
0.3u.elf:     file format elf32-avr

Sections:
Idx Name          Size      VMA       LMA       File off  Algn
  0 .data         000000ee  00800100  00002e5e  00002f12  2**0
                  CONTENTS, ALLOC, LOAD, DATA
  1 .text         00002e5e  00000000  00000000  000000b4  2**1
                  CONTENTS, ALLOC, LOAD, READONLY, CODE
  2 .bss          0000004a  008001ee  008001ee  00003000  2**0
                  ALLOC
  3 .eeprom       00000007  00810000  00810000  00003000  2**0
                  CONTENTS, ALLOC, LOAD, DATA
  4 .comment      0000005c  00000000  00000000  00003007  2**0
                  CONTENTS, READONLY
  5 .note.gnu.avr.deviceinfo 00000040  00000000  00000000  00003064  2**2
                  CONTENTS, READONLY
  6 .debug_aranges 000003b8  00000000  00000000  000030a4  2**0
                  CONTENTS, READONLY, DEBUGGING
  7 .debug_info   000074c7  00000000  00000000  0000345c  2**0
                  CONTENTS, READONLY, DEBUGGING
  8 .debug_abbrev 00001a70  00000000  00000000  0000a923  2**0
                  CONTENTS, READONLY, DEBUGGING
  9 .debug_line   0000b488  00000000  00000000  0000c393  2**0
                  CONTENTS, READONLY, DEBUGGING
 10 .debug_frame  00000af4  00000000  00000000  0001781c  2**2
                  CONTENTS, READONLY, DEBUGGING
 11 .debug_str    0001a7f8  00000000  00000000  00018310  2**0
                  CONTENTS, READONLY, DEBUGGING
 12 .debug_loc    00004952  00000000  00000000  00032b08  2**0
                  CONTENTS, READONLY, DEBUGGING
 13 .debug_ranges 00000540  00000000  00000000  0003745a  2**0
                  CONTENTS, READONLY, DEBUGGING
 14 .debug_macro  0000897a  00000000  00000000  0003799a  2**0
                  CONTENTS, READONLY, DEBUGGING

Disassembly of section .text:

00000000 <__vectors>:
       0:	1c c1       	rjmp	.+568    	; 0x23a <__ctors_end>
       2:	00 00       	nop
       4:	37 c1       	rjmp	.+622    	; 0x274 <__bad_interrupt>
       6:	00 00       	nop
       8:	35 c1       	rjmp	.+618    	; 0x274 <__bad_interrupt>
       a:	00 00       	nop
       c:	33 c1       	rjmp	.+614    	; 0x274 <__bad_interrupt>
       e:	00 00       	nop
      10:	31 c1       	rjmp	.+610    	; 0x274 <__bad_interrupt>
      12:	00 00       	nop
      14:	2f c1       	rjmp	.+606    	; 0x274 <__bad_interrupt>
      16:	00 00       	nop
      18:	2d c1       	rjmp	.+602    	; 0x274 <__bad_interrupt>
      1a:	00 00       	nop
      1c:	2b c1       	rjmp	.+598    	; 0x274 <__bad_interrupt>
      1e:	00 00       	nop
      20:	29 c1       	rjmp	.+594    	; 0x274 <__bad_interrupt>
      22:	00 00       	nop
      24:	27 c1       	rjmp	.+590    	; 0x274 <__bad_interrupt>
      26:	00 00       	nop
      28:	07 c7       	rjmp	.+3598   	; 0xe38 <__vector_10>
      2a:	00 00       	nop
      2c:	d2 c7       	rjmp	.+4004   	; 0xfd2 <__vector_11>
      2e:	00 00       	nop
      30:	21 c1       	rjmp	.+578    	; 0x274 <__bad_interrupt>
      32:	00 00       	nop
      34:	1f c1       	rjmp	.+574    	; 0x274 <__bad_interrupt>
      36:	00 00       	nop
      38:	1d c1       	rjmp	.+570    	; 0x274 <__bad_interrupt>
      3a:	00 00       	nop
      3c:	1b c1       	rjmp	.+566    	; 0x274 <__bad_interrupt>
      3e:	00 00       	nop
      40:	19 c1       	rjmp	.+562    	; 0x274 <__bad_interrupt>
      42:	00 00       	nop
      44:	17 c1       	rjmp	.+558    	; 0x274 <__bad_interrupt>
      46:	00 00       	nop
      48:	15 c1       	rjmp	.+554    	; 0x274 <__bad_interrupt>
      4a:	00 00       	nop
      4c:	13 c1       	rjmp	.+550    	; 0x274 <__bad_interrupt>
      4e:	00 00       	nop
      50:	11 c1       	rjmp	.+546    	; 0x274 <__bad_interrupt>
      52:	00 00       	nop
      54:	0f c1       	rjmp	.+542    	; 0x274 <__bad_interrupt>
      56:	00 00       	nop
      58:	0d c1       	rjmp	.+538    	; 0x274 <__bad_interrupt>
      5a:	00 00       	nop
      5c:	0b c1       	rjmp	.+534    	; 0x274 <__bad_interrupt>
      5e:	00 00       	nop
      60:	09 c1       	rjmp	.+530    	; 0x274 <__bad_interrupt>
      62:	00 00       	nop
      64:	07 c1       	rjmp	.+526    	; 0x274 <__bad_interrupt>
      66:	00 00       	nop
      68:	05 c1       	rjmp	.+522    	; 0x274 <__bad_interrupt>
      6a:	00 00       	nop
      6c:	03 c1       	rjmp	.+518    	; 0x274 <__bad_interrupt>
      6e:	00 00       	nop
      70:	01 c1       	rjmp	.+514    	; 0x274 <__bad_interrupt>
      72:	00 00       	nop
      74:	ff c0       	rjmp	.+510    	; 0x274 <__bad_interrupt>
      76:	00 00       	nop
      78:	fd c0       	rjmp	.+506    	; 0x274 <__bad_interrupt>
      7a:	00 00       	nop
      7c:	fb c0       	rjmp	.+502    	; 0x274 <__bad_interrupt>
      7e:	00 00       	nop
      80:	f9 c0       	rjmp	.+498    	; 0x274 <__bad_interrupt>
      82:	00 00       	nop
      84:	f7 c0       	rjmp	.+494    	; 0x274 <__bad_interrupt>
      86:	00 00       	nop
      88:	f5 c0       	rjmp	.+490    	; 0x274 <__bad_interrupt>
      8a:	00 00       	nop
      8c:	f3 c0       	rjmp	.+486    	; 0x274 <__bad_interrupt>
      8e:	00 00       	nop
      90:	f1 c0       	rjmp	.+482    	; 0x274 <__bad_interrupt>
      92:	00 00       	nop
      94:	ef c0       	rjmp	.+478    	; 0x274 <__bad_interrupt>
      96:	00 00       	nop
      98:	ed c0       	rjmp	.+474    	; 0x274 <__bad_interrupt>
      9a:	00 00       	nop
      9c:	eb c0       	rjmp	.+470    	; 0x274 <__bad_interrupt>
      9e:	00 00       	nop
      a0:	e9 c0       	rjmp	.+466    	; 0x274 <__bad_interrupt>
      a2:	00 00       	nop
      a4:	e7 c0       	rjmp	.+462    	; 0x274 <__bad_interrupt>
      a6:	00 00       	nop
      a8:	e5 c0       	rjmp	.+458    	; 0x274 <__bad_interrupt>
	...

000000ac <ProductString>:
      ac:	1c 03 4c 00 55 00 46 00 41 00 20 00 43 00 44 00     ..L.U.F.A. .C.D.
      bc:	43 00 20 00 44 00 65 00 6d 00 6f 00 00 00           C. .D.e.m.o...

000000ca <ManufacturerString>:
      ca:	18 03 44 00 65 00 61 00 6e 00 20 00 43 00 61 00     ..D.e.a.n. .C.a.
      da:	6d 00 65 00 72 00 61 00 00 00                       m.e.r.a...

000000e4 <LanguageString>:
      e4:	04 03 09 04                                         ....

000000e8 <ConfigurationDescriptor>:
      e8:	09 02 3e 00 02 01 00 c0 32 09 04 00 00 01 02 02     ..>.....2.......
      f8:	01 00 05 24 00 10 01 04 24 02 06 05 24 06 00 01     ...$....$...$...
     108:	07 05 82 03 08 00 ff 09 04 01 00 02 0a 00 00 00     ................
     118:	07 05 04 02 10 00 05 07 05 83 02 10 00 05           ..............

00000126 <DeviceDescriptor>:
     126:	12 01 10 01 02 00 00 08 eb 03 44 20 01 00 01 02     ..........D ....
     136:	dc 01                                               ..

00000138 <__c.2179>:
     138:	6e 61 6e 00                                         nan.

0000013c <__c.2177>:
     13c:	69 6e 66 00 00 40 7a 10 f3 5a 00 a0 72 4e 18 09     inf..@z..Z..rN..
     14c:	00 10 a5 d4 e8 00 00 e8 76 48 17 00 00 e4 0b 54     ........vH.....T
     15c:	02 00 00 ca 9a 3b 00 00 00 e1 f5 05 00 00 80 96     .....;..........
     16c:	98 00 00 00 40 42 0f 00 00 00 a0 86 01 00 00 00     ....@B..........
     17c:	10 27 00 00 00 00 e8 03 00 00 00 00 64 00 00 00     .'..........d...
     18c:	00 00 0a 00 00 00 00 00 01 00 00 00 00 00 2c 76     ..............,v
     19c:	d8 88 dc 67 4f 08 23 df c1 df ae 59 e1 b1 b7 96     ...gO.#....Y....
     1ac:	e5 e3 e4 53 c6 3a e6 51 99 76 96 e8 e6 c2 84 26     ...S.:.Q.v.....&
     1bc:	eb 89 8c 9b 62 ed 40 7c 6f fc ef bc 9c 9f 40 f2     ....b.@|o.....@.
     1cc:	ba a5 6f a5 f4 90 05 5a 2a f7 5c 93 6b 6c f9 67     ..o....Z*.\.kl.g
     1dc:	6d c1 1b fc e0 e4 0d 47 fe f5 20 e6 b5 00 d0 ed     m......G.. .....
     1ec:	90 2e 03 00 94 35 77 05 00 80 84 1e 08 00 00 20     .....5w........ 
     1fc:	4e 0a 00 00 00 c8 0c 33 33 33 33 0f 98 6e 12 83     N......3333..n..
     20c:	11 41 ef 8d 21 14 89 3b e6 55 16 cf fe e6 db 18     .A..!..;.U......
     21c:	d1 84 4b 38 1b f7 7c 1d 90 1d a4 bb e4 24 20 32     ..K8..|......$ 2
     22c:	84 72 5e 22 81 00 c9 f1 24 ec a1 e5 3d 27           .r^"....$...='

0000023a <__ctors_end>:
     23a:	11 24       	eor	r1, r1
     23c:	1f be       	out	0x3f, r1	; 63
     23e:	cf ef       	ldi	r28, 0xFF	; 255
     240:	da e0       	ldi	r29, 0x0A	; 10
     242:	de bf       	out	0x3e, r29	; 62
     244:	cd bf       	out	0x3d, r28	; 61

00000246 <__do_copy_data>:
     246:	11 e0       	ldi	r17, 0x01	; 1
     248:	a0 e0       	ldi	r26, 0x00	; 0
     24a:	b1 e0       	ldi	r27, 0x01	; 1
     24c:	ee e5       	ldi	r30, 0x5E	; 94
     24e:	fe e2       	ldi	r31, 0x2E	; 46
     250:	02 c0       	rjmp	.+4      	; 0x256 <__do_copy_data+0x10>
     252:	05 90       	lpm	r0, Z+
     254:	0d 92       	st	X+, r0
     256:	ae 3e       	cpi	r26, 0xEE	; 238
     258:	b1 07       	cpc	r27, r17
     25a:	d9 f7       	brne	.-10     	; 0x252 <__do_copy_data+0xc>

0000025c <__do_clear_bss>:
     25c:	22 e0       	ldi	r18, 0x02	; 2
     25e:	ae ee       	ldi	r26, 0xEE	; 238
     260:	b1 e0       	ldi	r27, 0x01	; 1
     262:	01 c0       	rjmp	.+2      	; 0x266 <.do_clear_bss_start>

00000264 <.do_clear_bss_loop>:
     264:	1d 92       	st	X+, r1

00000266 <.do_clear_bss_start>:
     266:	a8 33       	cpi	r26, 0x38	; 56
     268:	b2 07       	cpc	r27, r18
     26a:	e1 f7       	brne	.-8      	; 0x264 <.do_clear_bss_loop>
     26c:	0e 94 fc 0e 	call	0x1df8	; 0x1df8 <main>
     270:	0c 94 2d 17 	jmp	0x2e5a	; 0x2e5a <_exit>

00000274 <__bad_interrupt>:
     274:	c5 ce       	rjmp	.-630    	; 0x0 <__vectors>

00000276 <ADC_Init>:

#include "ADC.h"

void ADC_Init(void)
{
	ADMUX = 0b01000001;
     276:	81 e4       	ldi	r24, 0x41	; 65
     278:	80 93 7c 00 	sts	0x007C, r24
	ADCSRA = (1<<ADEN)|(0<<ADSC)|(0<<ADATE)|(0<<ADIE)|(1<<ADPS2)|(1<<ADPS1)|(1<<ADPS0);
     27c:	87 e8       	ldi	r24, 0x87	; 135
     27e:	80 93 7a 00 	sts	0x007A, r24
	ADCSRB |= (1 << MUX5);
     282:	eb e7       	ldi	r30, 0x7B	; 123
     284:	f0 e0       	ldi	r31, 0x00	; 0
     286:	80 81       	ld	r24, Z
     288:	80 62       	ori	r24, 0x20	; 32
     28a:	80 83       	st	Z, r24
     28c:	08 95       	ret

0000028e <CALLBACK_USB_GetDescriptor>:
 */
uint16_t CALLBACK_USB_GetDescriptor(const uint16_t wValue,
                                    const uint8_t wIndex,
                                    const void** const DescriptorAddress)
{
	const uint8_t  DescriptorType   = (wValue >> 8);
     28e:	29 2f       	mov	r18, r25
     290:	33 27       	eor	r19, r19
	const uint8_t  DescriptorNumber = (wValue & 0xFF);

	const void* Address = NULL;
	uint16_t    Size    = NO_DESCRIPTOR;

	switch (DescriptorType)
     292:	22 30       	cpi	r18, 0x02	; 2
     294:	31 05       	cpc	r19, r1
     296:	59 f0       	breq	.+22     	; 0x2ae <CALLBACK_USB_GetDescriptor+0x20>
     298:	23 30       	cpi	r18, 0x03	; 3
     29a:	31 05       	cpc	r19, r1
     29c:	69 f0       	breq	.+26     	; 0x2b8 <CALLBACK_USB_GetDescriptor+0x2a>
     29e:	21 30       	cpi	r18, 0x01	; 1
     2a0:	31 05       	cpc	r19, r1
     2a2:	f9 f4       	brne	.+62     	; 0x2e2 <CALLBACK_USB_GetDescriptor+0x54>
	{
		case DTYPE_Device:
			Address = &DeviceDescriptor;
			Size    = sizeof(USB_Descriptor_Device_t);
     2a4:	82 e1       	ldi	r24, 0x12	; 18
     2a6:	90 e0       	ldi	r25, 0x00	; 0
	uint16_t    Size    = NO_DESCRIPTOR;

	switch (DescriptorType)
	{
		case DTYPE_Device:
			Address = &DeviceDescriptor;
     2a8:	26 e2       	ldi	r18, 0x26	; 38
     2aa:	31 e0       	ldi	r19, 0x01	; 1
     2ac:	1e c0       	rjmp	.+60     	; 0x2ea <CALLBACK_USB_GetDescriptor+0x5c>
			Size    = sizeof(USB_Descriptor_Device_t);
			break;
		case DTYPE_Configuration:
			Address = &ConfigurationDescriptor;
			Size    = sizeof(USB_Descriptor_Configuration_t);
     2ae:	8e e3       	ldi	r24, 0x3E	; 62
     2b0:	90 e0       	ldi	r25, 0x00	; 0
		case DTYPE_Device:
			Address = &DeviceDescriptor;
			Size    = sizeof(USB_Descriptor_Device_t);
			break;
		case DTYPE_Configuration:
			Address = &ConfigurationDescriptor;
     2b2:	28 ee       	ldi	r18, 0xE8	; 232
     2b4:	30 e0       	ldi	r19, 0x00	; 0
			Size    = sizeof(USB_Descriptor_Configuration_t);
			break;
     2b6:	19 c0       	rjmp	.+50     	; 0x2ea <CALLBACK_USB_GetDescriptor+0x5c>
     2b8:	99 27       	eor	r25, r25
		case DTYPE_String:
			switch (DescriptorNumber)
     2ba:	81 30       	cpi	r24, 0x01	; 1
     2bc:	91 05       	cpc	r25, r1
     2be:	41 f0       	breq	.+16     	; 0x2d0 <CALLBACK_USB_GetDescriptor+0x42>
     2c0:	82 30       	cpi	r24, 0x02	; 2
     2c2:	91 05       	cpc	r25, r1
     2c4:	41 f0       	breq	.+16     	; 0x2d6 <CALLBACK_USB_GetDescriptor+0x48>
     2c6:	89 2b       	or	r24, r25
     2c8:	61 f4       	brne	.+24     	; 0x2e2 <CALLBACK_USB_GetDescriptor+0x54>
			{
				case STRING_ID_Language:
					Address = &LanguageString;
					Size    = pgm_read_byte(&LanguageString.Header.Size);
     2ca:	e4 ee       	ldi	r30, 0xE4	; 228
     2cc:	f0 e0       	ldi	r31, 0x00	; 0
     2ce:	05 c0       	rjmp	.+10     	; 0x2da <CALLBACK_USB_GetDescriptor+0x4c>
					break;
				case STRING_ID_Manufacturer:
					Address = &ManufacturerString;
					Size    = pgm_read_byte(&ManufacturerString.Header.Size);
     2d0:	ea ec       	ldi	r30, 0xCA	; 202
     2d2:	f0 e0       	ldi	r31, 0x00	; 0
     2d4:	02 c0       	rjmp	.+4      	; 0x2da <CALLBACK_USB_GetDescriptor+0x4c>
					break;
				case STRING_ID_Product:
					Address = &ProductString;
					Size    = pgm_read_byte(&ProductString.Header.Size);
     2d6:	ec ea       	ldi	r30, 0xAC	; 172
     2d8:	f0 e0       	ldi	r31, 0x00	; 0
     2da:	84 91       	lpm	r24, Z
     2dc:	90 e0       	ldi	r25, 0x00	; 0
				case STRING_ID_Manufacturer:
					Address = &ManufacturerString;
					Size    = pgm_read_byte(&ManufacturerString.Header.Size);
					break;
				case STRING_ID_Product:
					Address = &ProductString;
     2de:	9f 01       	movw	r18, r30
					Size    = pgm_read_byte(&ProductString.Header.Size);
					break;
     2e0:	04 c0       	rjmp	.+8      	; 0x2ea <CALLBACK_USB_GetDescriptor+0x5c>
{
	const uint8_t  DescriptorType   = (wValue >> 8);
	const uint8_t  DescriptorNumber = (wValue & 0xFF);

	const void* Address = NULL;
	uint16_t    Size    = NO_DESCRIPTOR;
     2e2:	80 e0       	ldi	r24, 0x00	; 0
     2e4:	90 e0       	ldi	r25, 0x00	; 0
                                    const void** const DescriptorAddress)
{
	const uint8_t  DescriptorType   = (wValue >> 8);
	const uint8_t  DescriptorNumber = (wValue & 0xFF);

	const void* Address = NULL;
     2e6:	20 e0       	ldi	r18, 0x00	; 0
     2e8:	30 e0       	ldi	r19, 0x00	; 0
			}

			break;
	}

	*DescriptorAddress = Address;
     2ea:	fa 01       	movw	r30, r20
     2ec:	31 83       	std	Z+1, r19	; 0x01
     2ee:	20 83       	st	Z, r18
	return Size;
}
     2f0:	08 95       	ret

000002f2 <LCD_CommonFunc>:
INLINE static void LCD_CommonFunc(uint8_t data)
{
#if (LCD_BUS_4_8_BIT == 0) 
  
  uint8_t tmp; 
  tmp = (data & 0xf0);
     2f2:	98 2f       	mov	r25, r24
     2f4:	90 7f       	andi	r25, 0xF0	; 240
  LCD_WritePort(LCD_PORT, tmp);
     2f6:	84 ff       	sbrs	r24, 4
     2f8:	02 c0       	rjmp	.+4      	; 0x2fe <LCD_CommonFunc+0xc>
     2fa:	8c 9a       	sbi	0x11, 4	; 17
     2fc:	01 c0       	rjmp	.+2      	; 0x300 <LCD_CommonFunc+0xe>
     2fe:	8c 98       	cbi	0x11, 4	; 17
     300:	85 ff       	sbrs	r24, 5
     302:	02 c0       	rjmp	.+4      	; 0x308 <LCD_CommonFunc+0x16>
     304:	8d 9a       	sbi	0x11, 5	; 17
     306:	01 c0       	rjmp	.+2      	; 0x30a <LCD_CommonFunc+0x18>
     308:	8d 98       	cbi	0x11, 5	; 17
     30a:	86 ff       	sbrs	r24, 6
     30c:	02 c0       	rjmp	.+4      	; 0x312 <LCD_CommonFunc+0x20>
     30e:	8e 9a       	sbi	0x11, 6	; 17
     310:	01 c0       	rjmp	.+2      	; 0x314 <LCD_CommonFunc+0x22>
     312:	8e 98       	cbi	0x11, 6	; 17
     314:	97 ff       	sbrs	r25, 7
     316:	02 c0       	rjmp	.+4      	; 0x31c <LCD_CommonFunc+0x2a>
     318:	8f 9a       	sbi	0x11, 7	; 17
     31a:	01 c0       	rjmp	.+2      	; 0x31e <LCD_CommonFunc+0x2c>
     31c:	8f 98       	cbi	0x11, 7	; 17
  LCD_SetPin(LCD_EN);
     31e:	89 9a       	sbi	0x11, 1	; 17
	#else
		//round up by default
		__ticks_dc = (uint32_t)(ceil(fabs(__tmp)));
	#endif

	__builtin_avr_delay_cycles(__ticks_dc);
     320:	9a e0       	ldi	r25, 0x0A	; 10
     322:	9a 95       	dec	r25
     324:	f1 f7       	brne	.-4      	; 0x322 <LCD_CommonFunc+0x30>
     326:	00 c0       	rjmp	.+0      	; 0x328 <LCD_CommonFunc+0x36>
  delay_us(LCD_DELAY_STROB);
  LCD_ClearPin(LCD_EN);
     328:	89 98       	cbi	0x11, 1	; 17

  data = __swap_nibbles(data); 
     32a:	82 95       	swap	r24
  tmp = (data & 0xf0);
     32c:	98 2f       	mov	r25, r24
     32e:	90 7f       	andi	r25, 0xF0	; 240
    
  LCD_WritePort(LCD_PORT, tmp);
     330:	84 ff       	sbrs	r24, 4
     332:	02 c0       	rjmp	.+4      	; 0x338 <LCD_CommonFunc+0x46>
     334:	8c 9a       	sbi	0x11, 4	; 17
     336:	01 c0       	rjmp	.+2      	; 0x33a <LCD_CommonFunc+0x48>
     338:	8c 98       	cbi	0x11, 4	; 17
     33a:	85 ff       	sbrs	r24, 5
     33c:	02 c0       	rjmp	.+4      	; 0x342 <LCD_CommonFunc+0x50>
     33e:	8d 9a       	sbi	0x11, 5	; 17
     340:	01 c0       	rjmp	.+2      	; 0x344 <LCD_CommonFunc+0x52>
     342:	8d 98       	cbi	0x11, 5	; 17
     344:	86 ff       	sbrs	r24, 6
     346:	02 c0       	rjmp	.+4      	; 0x34c <LCD_CommonFunc+0x5a>
     348:	8e 9a       	sbi	0x11, 6	; 17
     34a:	01 c0       	rjmp	.+2      	; 0x34e <LCD_CommonFunc+0x5c>
     34c:	8e 98       	cbi	0x11, 6	; 17
     34e:	97 ff       	sbrs	r25, 7
     350:	02 c0       	rjmp	.+4      	; 0x356 <LCD_CommonFunc+0x64>
     352:	8f 9a       	sbi	0x11, 7	; 17
     354:	01 c0       	rjmp	.+2      	; 0x358 <LCD_CommonFunc+0x66>
     356:	8f 98       	cbi	0x11, 7	; 17
  LCD_SetPin(LCD_EN);
     358:	89 9a       	sbi	0x11, 1	; 17
     35a:	8a e0       	ldi	r24, 0x0A	; 10
     35c:	8a 95       	dec	r24
     35e:	f1 f7       	brne	.-4      	; 0x35c <LCD_CommonFunc+0x6a>
     360:	00 c0       	rjmp	.+0      	; 0x362 <LCD_CommonFunc+0x70>
  delay_us(LCD_DELAY_STROB);
  LCD_ClearPin(LCD_EN);
     362:	89 98       	cbi	0x11, 1	; 17
     364:	08 95       	ret

00000366 <LCD_WriteComInit>:
     366:	95 ed       	ldi	r25, 0xD5	; 213
     368:	9a 95       	dec	r25
     36a:	f1 f7       	brne	.-4      	; 0x368 <LCD_WriteComInit+0x2>
     36c:	00 00       	nop
/*_________________________________________________________________*/

void LCD_WriteComInit(uint8_t data)
{
  delay_us(LCD_DELAY_WAIT);
  LCD_ClearPin(LCD_RS);  
     36e:	88 98       	cbi	0x11, 0	; 17
  
#if (LCD_BUS_4_8_BIT == 0)
  data &= 0xf0;
     370:	98 2f       	mov	r25, r24
     372:	90 7f       	andi	r25, 0xF0	; 240
#endif
  
  LCD_WritePort(LCD_PORT, data);	
     374:	84 ff       	sbrs	r24, 4
     376:	02 c0       	rjmp	.+4      	; 0x37c <LCD_WriteComInit+0x16>
     378:	8c 9a       	sbi	0x11, 4	; 17
     37a:	01 c0       	rjmp	.+2      	; 0x37e <LCD_WriteComInit+0x18>
     37c:	8c 98       	cbi	0x11, 4	; 17
     37e:	85 ff       	sbrs	r24, 5
     380:	02 c0       	rjmp	.+4      	; 0x386 <LCD_WriteComInit+0x20>
     382:	8d 9a       	sbi	0x11, 5	; 17
     384:	01 c0       	rjmp	.+2      	; 0x388 <LCD_WriteComInit+0x22>
     386:	8d 98       	cbi	0x11, 5	; 17
     388:	86 ff       	sbrs	r24, 6
     38a:	02 c0       	rjmp	.+4      	; 0x390 <LCD_WriteComInit+0x2a>
     38c:	8e 9a       	sbi	0x11, 6	; 17
     38e:	01 c0       	rjmp	.+2      	; 0x392 <LCD_WriteComInit+0x2c>
     390:	8e 98       	cbi	0x11, 6	; 17
     392:	97 ff       	sbrs	r25, 7
     394:	02 c0       	rjmp	.+4      	; 0x39a <LCD_WriteComInit+0x34>
     396:	8f 9a       	sbi	0x11, 7	; 17
     398:	01 c0       	rjmp	.+2      	; 0x39c <LCD_WriteComInit+0x36>
     39a:	8f 98       	cbi	0x11, 7	; 17
  LCD_SetPin(LCD_EN);
     39c:	89 9a       	sbi	0x11, 1	; 17
     39e:	8a e0       	ldi	r24, 0x0A	; 10
     3a0:	8a 95       	dec	r24
     3a2:	f1 f7       	brne	.-4      	; 0x3a0 <LCD_WriteComInit+0x3a>
     3a4:	00 c0       	rjmp	.+0      	; 0x3a6 <LCD_WriteComInit+0x40>
  delay_us(LCD_DELAY_STROB);
  LCD_ClearPin(LCD_EN);
     3a6:	89 98       	cbi	0x11, 1	; 17
     3a8:	08 95       	ret

000003aa <LCD_WriteCom>:
     3aa:	95 ed       	ldi	r25, 0xD5	; 213
     3ac:	9a 95       	dec	r25
     3ae:	f1 f7       	brne	.-4      	; 0x3ac <LCD_WriteCom+0x2>
     3b0:	00 00       	nop

/*функция записи команды*/
void LCD_WriteCom(uint8_t data)
{
  LCD_Wait();
  LCD_ClearPin(LCD_RS);	
     3b2:	88 98       	cbi	0x11, 0	; 17
  LCD_CommonFunc(data);
     3b4:	9e cf       	rjmp	.-196    	; 0x2f2 <LCD_CommonFunc>

000003b6 <LCD_WriteData>:
     3b6:	95 ed       	ldi	r25, 0xD5	; 213
     3b8:	9a 95       	dec	r25
     3ba:	f1 f7       	brne	.-4      	; 0x3b8 <LCD_WriteData+0x2>
     3bc:	00 00       	nop

/*функция записи данных*/
void LCD_WriteData(char data)
{
  LCD_Wait();
  LCD_SetPin(LCD_RS);	    
     3be:	88 9a       	sbi	0x11, 0	; 17
  LCD_CommonFunc(data);
     3c0:	98 cf       	rjmp	.-208    	; 0x2f2 <LCD_CommonFunc>

000003c2 <LCD_Init>:
}

/*функция инициализации*/
void LCD_Init(void)
{
  LCD_DirPort(LCD_PORT, 0xff);
     3c2:	84 9a       	sbi	0x10, 4	; 16
     3c4:	85 9a       	sbi	0x10, 5	; 16
     3c6:	86 9a       	sbi	0x10, 6	; 16
     3c8:	87 9a       	sbi	0x10, 7	; 16
  LCD_DirPin(LCD_RS, _OUT);
     3ca:	80 9a       	sbi	0x10, 0	; 16
  LCD_DirPin(LCD_RW, _OUT);  
  LCD_DirPin(LCD_EN, _OUT);
     3cc:	81 9a       	sbi	0x10, 1	; 16
	#else
		//round up by default
		__ticks_dc = (uint32_t)(ceil(fabs(__tmp)));
	#endif

	__builtin_avr_delay_cycles(__ticks_dc);
     3ce:	2f ef       	ldi	r18, 0xFF	; 255
     3d0:	83 ef       	ldi	r24, 0xF3	; 243
     3d2:	91 e0       	ldi	r25, 0x01	; 1
     3d4:	21 50       	subi	r18, 0x01	; 1
     3d6:	80 40       	sbci	r24, 0x00	; 0
     3d8:	90 40       	sbci	r25, 0x00	; 0
     3da:	e1 f7       	brne	.-8      	; 0x3d4 <LCD_Init+0x12>
     3dc:	00 c0       	rjmp	.+0      	; 0x3de <LCD_Init+0x1c>
     3de:	00 00       	nop
  
  delay_ms(40);
  
  LCD_WriteComInit(LCD_COM_INIT_1); 
     3e0:	80 e3       	ldi	r24, 0x30	; 48
     3e2:	c1 df       	rcall	.-126    	; 0x366 <LCD_WriteComInit>
     3e4:	8f e3       	ldi	r24, 0x3F	; 63
     3e6:	9c e9       	ldi	r25, 0x9C	; 156
     3e8:	01 97       	sbiw	r24, 0x01	; 1
     3ea:	f1 f7       	brne	.-4      	; 0x3e8 <LCD_Init+0x26>
     3ec:	00 c0       	rjmp	.+0      	; 0x3ee <LCD_Init+0x2c>
     3ee:	00 00       	nop
  delay_ms(10);
  LCD_WriteComInit(LCD_COM_INIT_1);
     3f0:	80 e3       	ldi	r24, 0x30	; 48
     3f2:	b9 df       	rcall	.-142    	; 0x366 <LCD_WriteComInit>
     3f4:	8f e3       	ldi	r24, 0x3F	; 63
     3f6:	9f e1       	ldi	r25, 0x1F	; 31
     3f8:	01 97       	sbiw	r24, 0x01	; 1
     3fa:	f1 f7       	brne	.-4      	; 0x3f8 <LCD_Init+0x36>
     3fc:	00 c0       	rjmp	.+0      	; 0x3fe <LCD_Init+0x3c>
     3fe:	00 00       	nop
  delay_ms(2);
  LCD_WriteComInit(LCD_COM_INIT_1);
     400:	80 e3       	ldi	r24, 0x30	; 48
     402:	b1 df       	rcall	.-158    	; 0x366 <LCD_WriteComInit>
  
#if (LCD_BUS_4_8_BIT == 0) 
  LCD_WriteComInit(LCD_COM_FUNCTION_SET);
     404:	88 e2       	ldi	r24, 0x28	; 40
     406:	af df       	rcall	.-162    	; 0x366 <LCD_WriteComInit>
#endif

  LCD_WriteCom(LCD_COM_FUNCTION_SET);
     408:	88 e2       	ldi	r24, 0x28	; 40
     40a:	cf df       	rcall	.-98     	; 0x3aa <LCD_WriteCom>
  LCD_WriteCom(LCD_COM_DISPLAY_CONTR);  
     40c:	8c e0       	ldi	r24, 0x0C	; 12
     40e:	cd df       	rcall	.-102    	; 0x3aa <LCD_WriteCom>
  LCD_WriteCom(LCD_CLEAR_DISPLAY);  
     410:	81 e0       	ldi	r24, 0x01	; 1
     412:	cb df       	rcall	.-106    	; 0x3aa <LCD_WriteCom>
     414:	8f e3       	ldi	r24, 0x3F	; 63
     416:	9f e1       	ldi	r25, 0x1F	; 31
     418:	01 97       	sbiw	r24, 0x01	; 1
     41a:	f1 f7       	brne	.-4      	; 0x418 <LCD_Init+0x56>
     41c:	00 c0       	rjmp	.+0      	; 0x41e <LCD_Init+0x5c>
     41e:	00 00       	nop
  delay_ms(2);
  LCD_WriteCom(LCD_COM_ENTRY_MODE_SET); 
     420:	86 e0       	ldi	r24, 0x06	; 6
     422:	c3 cf       	rjmp	.-122    	; 0x3aa <LCD_WriteCom>

00000424 <LCD_SendStr>:
  
}

/*функция вывда строки из ОЗУ*/
void LCD_SendStr(char *str)
{
     424:	ff 92       	push	r15
     426:	0f 93       	push	r16
     428:	1f 93       	push	r17
     42a:	cf 93       	push	r28
     42c:	df 93       	push	r29
     42e:	f8 2e       	mov	r15, r24
  uint8_t data;
  #if (LCD_ONE_LINE == 1)
  uint8_t i = 0;
   while (*str){
     430:	ec 01       	movw	r28, r24
     432:	8e 01       	movw	r16, r28
     434:	88 81       	ld	r24, Y
     436:	88 23       	and	r24, r24
     438:	59 f0       	breq	.+22     	; 0x450 <LCD_SendStr+0x2c>
     43a:	8c 2f       	mov	r24, r28
     43c:	8f 19       	sub	r24, r15
	   if (i == 8)
     43e:	88 30       	cpi	r24, 0x08	; 8
     440:	11 f4       	brne	.+4      	; 0x446 <LCD_SendStr+0x22>
	   {
		   LCD_Goto(0,1);
     442:	80 ec       	ldi	r24, 0xC0	; 192
     444:	b2 df       	rcall	.-156    	; 0x3aa <LCD_WriteCom>
     446:	21 96       	adiw	r28, 0x01	; 1
	   }
	   data =  *str++;
	   i++;
	   LCD_WriteData(data);
     448:	f8 01       	movw	r30, r16
     44a:	80 81       	ld	r24, Z
     44c:	b4 df       	rcall	.-152    	; 0x3b6 <LCD_WriteData>
     44e:	f1 cf       	rjmp	.-30     	; 0x432 <LCD_SendStr+0xe>
  while (*str){
    data =  *str++;
    LCD_WriteData(data);
  }
  #endif
}
     450:	df 91       	pop	r29
     452:	cf 91       	pop	r28
     454:	1f 91       	pop	r17
     456:	0f 91       	pop	r16
     458:	ff 90       	pop	r15
     45a:	08 95       	ret

0000045c <middle_of_3>:

uint16_t middle_of_3(uint16_t a, uint16_t b, uint16_t c)
{
	uint16_t middle;
	
	if ((a <= b) && (a <= c)){
     45c:	68 17       	cp	r22, r24
     45e:	79 07       	cpc	r23, r25
     460:	28 f0       	brcs	.+10     	; 0x46c <middle_of_3+0x10>
     462:	48 17       	cp	r20, r24
     464:	59 07       	cpc	r21, r25
     466:	10 f0       	brcs	.+4      	; 0x46c <middle_of_3+0x10>
		middle = (b <= c) ? b : c;
     468:	cb 01       	movw	r24, r22
     46a:	06 c0       	rjmp	.+12     	; 0x478 <middle_of_3+0x1c>
	}
	else{
		if ((b <= a) && (b <= c)){
     46c:	86 17       	cp	r24, r22
     46e:	97 07       	cpc	r25, r23
     470:	40 f0       	brcs	.+16     	; 0x482 <middle_of_3+0x26>
     472:	46 17       	cp	r20, r22
     474:	57 07       	cpc	r21, r23
     476:	28 f0       	brcs	.+10     	; 0x482 <middle_of_3+0x26>
			middle = (a <= c) ? a : c;
     478:	48 17       	cp	r20, r24
     47a:	59 07       	cpc	r21, r25
     47c:	30 f4       	brcc	.+12     	; 0x48a <middle_of_3+0x2e>
     47e:	ca 01       	movw	r24, r20
     480:	08 95       	ret
		}
		else{
			middle = (a <= b) ? a : b;
     482:	68 17       	cp	r22, r24
     484:	79 07       	cpc	r23, r25
     486:	08 f4       	brcc	.+2      	; 0x48a <middle_of_3+0x2e>
     488:	cb 01       	movw	r24, r22
		}
	}
	
	return middle;
}
     48a:	08 95       	ret

0000048c <pressure_midle>:

uint16_t pressure_midle ()
{
     48c:	cf 92       	push	r12
     48e:	df 92       	push	r13
     490:	ef 92       	push	r14
     492:	ff 92       	push	r15
     494:	0f 93       	push	r16
     496:	1f 93       	push	r17
     498:	cf 93       	push	r28
     49a:	df 93       	push	r29
     49c:	cd b7       	in	r28, 0x3d	; 61
     49e:	de b7       	in	r29, 0x3e	; 62
     4a0:	2c 97       	sbiw	r28, 0x0c	; 12
     4a2:	0f b6       	in	r0, 0x3f	; 63
     4a4:	f8 94       	cli
     4a6:	de bf       	out	0x3e, r29	; 62
     4a8:	0f be       	out	0x3f, r0	; 63
     4aa:	cd bf       	out	0x3d, r28	; 61
     4ac:	8e 01       	movw	r16, r28
     4ae:	0f 5f       	subi	r16, 0xFF	; 255
     4b0:	1f 4f       	sbci	r17, 0xFF	; 255
     4b2:	7e 01       	movw	r14, r28
     4b4:	87 e0       	ldi	r24, 0x07	; 7
     4b6:	e8 0e       	add	r14, r24
     4b8:	f1 1c       	adc	r15, r1
     4ba:	6e 01       	movw	r12, r28
     4bc:	ed e0       	ldi	r30, 0x0D	; 13
     4be:	ce 0e       	add	r12, r30
     4c0:	d1 1c       	adc	r13, r1
     4c2:	f7 01       	movw	r30, r14
	for (uint8_t i = 0; i<3;i++)
	{
		
		for (uint8_t i = 0; i<3;i++)
		{
			StartConvAdc();
     4c4:	80 91 7a 00 	lds	r24, 0x007A
     4c8:	80 64       	ori	r24, 0x40	; 64
     4ca:	80 93 7a 00 	sts	0x007A, r24
			while (bit_is_set(ADCSRA, ADSC));
     4ce:	80 91 7a 00 	lds	r24, 0x007A
     4d2:	86 fd       	sbrc	r24, 6
     4d4:	fc cf       	rjmp	.-8      	; 0x4ce <pressure_midle+0x42>
			uint8_t low  = ADCL;
     4d6:	80 91 78 00 	lds	r24, 0x0078
			uint8_t high = ADCH;
     4da:	20 91 79 00 	lds	r18, 0x0079
			pressure1[i] = ((uint16_t)low)|((uint16_t)high<<8);
     4de:	90 e0       	ldi	r25, 0x00	; 0
     4e0:	92 2b       	or	r25, r18
     4e2:	81 93       	st	Z+, r24
     4e4:	91 93       	st	Z+, r25
	uint16_t pressure2[3];
	uint16_t pressure_mid;
	for (uint8_t i = 0; i<3;i++)
	{
		
		for (uint8_t i = 0; i<3;i++)
     4e6:	ec 15       	cp	r30, r12
     4e8:	fd 05       	cpc	r31, r13
     4ea:	61 f7       	brne	.-40     	; 0x4c4 <pressure_midle+0x38>
			while (bit_is_set(ADCSRA, ADSC));
			uint8_t low  = ADCL;
			uint8_t high = ADCH;
			pressure1[i] = ((uint16_t)low)|((uint16_t)high<<8);
		}
		pressure2[i] = middle_of_3(pressure1[0],pressure1[1],pressure1[2]);
     4ec:	4b 85       	ldd	r20, Y+11	; 0x0b
     4ee:	5c 85       	ldd	r21, Y+12	; 0x0c
     4f0:	69 85       	ldd	r22, Y+9	; 0x09
     4f2:	7a 85       	ldd	r23, Y+10	; 0x0a
     4f4:	8f 81       	ldd	r24, Y+7	; 0x07
     4f6:	98 85       	ldd	r25, Y+8	; 0x08
     4f8:	b1 df       	rcall	.-158    	; 0x45c <middle_of_3>
     4fa:	f8 01       	movw	r30, r16
     4fc:	81 93       	st	Z+, r24
     4fe:	91 93       	st	Z+, r25
     500:	8f 01       	movw	r16, r30
uint16_t pressure_midle ()
{
	uint16_t pressure1[3];
	uint16_t pressure2[3];
	uint16_t pressure_mid;
	for (uint8_t i = 0; i<3;i++)
     502:	ee 15       	cp	r30, r14
     504:	ff 05       	cpc	r31, r15
     506:	e9 f6       	brne	.-70     	; 0x4c2 <pressure_midle+0x36>
			uint8_t high = ADCH;
			pressure1[i] = ((uint16_t)low)|((uint16_t)high<<8);
		}
		pressure2[i] = middle_of_3(pressure1[0],pressure1[1],pressure1[2]);
	}
	return pressure_mid = middle_of_3(pressure2[0],pressure2[1],pressure2[2]);
     508:	4d 81       	ldd	r20, Y+5	; 0x05
     50a:	5e 81       	ldd	r21, Y+6	; 0x06
     50c:	6b 81       	ldd	r22, Y+3	; 0x03
     50e:	7c 81       	ldd	r23, Y+4	; 0x04
     510:	89 81       	ldd	r24, Y+1	; 0x01
     512:	9a 81       	ldd	r25, Y+2	; 0x02
}
     514:	2c 96       	adiw	r28, 0x0c	; 12
     516:	0f b6       	in	r0, 0x3f	; 63
     518:	f8 94       	cli
     51a:	de bf       	out	0x3e, r29	; 62
     51c:	0f be       	out	0x3f, r0	; 63
     51e:	cd bf       	out	0x3d, r28	; 61
     520:	df 91       	pop	r29
     522:	cf 91       	pop	r28
     524:	1f 91       	pop	r17
     526:	0f 91       	pop	r16
     528:	ff 90       	pop	r15
     52a:	ef 90       	pop	r14
     52c:	df 90       	pop	r13
     52e:	cf 90       	pop	r12
			uint8_t high = ADCH;
			pressure1[i] = ((uint16_t)low)|((uint16_t)high<<8);
		}
		pressure2[i] = middle_of_3(pressure1[0],pressure1[1],pressure1[2]);
	}
	return pressure_mid = middle_of_3(pressure2[0],pressure2[1],pressure2[2]);
     530:	95 cf       	rjmp	.-214    	; 0x45c <middle_of_3>

00000532 <pressure_Init>:

static volatile uint16_t pressure_mass[window];
static volatile uint32_t pressure_temp = 0;

void pressure_Init()
{
     532:	cf 93       	push	r28
     534:	df 93       	push	r29
     536:	c0 e0       	ldi	r28, 0x00	; 0
     538:	d0 e0       	ldi	r29, 0x00	; 0
	for (uint8_t i =0; i<window; i++)
	{
		pressure_mass[i] = pressure_midle();
     53a:	a8 df       	rcall	.-176    	; 0x48c <pressure_midle>
     53c:	fe 01       	movw	r30, r28
     53e:	ee 0f       	add	r30, r30
     540:	ff 1f       	adc	r31, r31
     542:	ee 50       	subi	r30, 0x0E	; 14
     544:	fe 4f       	sbci	r31, 0xFE	; 254
     546:	91 83       	std	Z+1, r25	; 0x01
     548:	80 83       	st	Z, r24
     54a:	21 96       	adiw	r28, 0x01	; 1
static volatile uint16_t pressure_mass[window];
static volatile uint32_t pressure_temp = 0;

void pressure_Init()
{
	for (uint8_t i =0; i<window; i++)
     54c:	c0 31       	cpi	r28, 0x10	; 16
     54e:	d1 05       	cpc	r29, r1
     550:	a1 f7       	brne	.-24     	; 0x53a <pressure_Init+0x8>
	{
		pressure_mass[i] = pressure_midle();
	}
}
     552:	df 91       	pop	r29
     554:	cf 91       	pop	r28
     556:	08 95       	ret

00000558 <cur_pressure_SMA>:
	}
	return pressure_mid = middle_of_3(pressure2[0],pressure2[1],pressure2[2]);
}

uint16_t cur_pressure_SMA(uint16_t _current_pressure)
{
     558:	8f 92       	push	r8
     55a:	9f 92       	push	r9
     55c:	af 92       	push	r10
     55e:	bf 92       	push	r11
     560:	cf 92       	push	r12
     562:	df 92       	push	r13
     564:	ef 92       	push	r14
     566:	ff 92       	push	r15
     568:	20 e0       	ldi	r18, 0x00	; 0
     56a:	30 e0       	ldi	r19, 0x00	; 0
     56c:	a9 01       	movw	r20, r18
     56e:	4f 5f       	subi	r20, 0xFF	; 255
     570:	5f 4f       	sbci	r21, 0xFF	; 255
	
	for (uint8_t i = 1; i < window; i++)
	{
		pressure_mass[i-1] = pressure_mass[i];
     572:	fa 01       	movw	r30, r20
     574:	ee 0f       	add	r30, r30
     576:	ff 1f       	adc	r31, r31
     578:	ee 50       	subi	r30, 0x0E	; 14
     57a:	fe 4f       	sbci	r31, 0xFE	; 254
     57c:	60 81       	ld	r22, Z
     57e:	71 81       	ldd	r23, Z+1	; 0x01
     580:	22 0f       	add	r18, r18
     582:	33 1f       	adc	r19, r19
     584:	f9 01       	movw	r30, r18
     586:	ee 50       	subi	r30, 0x0E	; 14
     588:	fe 4f       	sbci	r31, 0xFE	; 254
     58a:	71 83       	std	Z+1, r23	; 0x01
     58c:	60 83       	st	Z, r22
     58e:	9a 01       	movw	r18, r20
}

uint16_t cur_pressure_SMA(uint16_t _current_pressure)
{
	
	for (uint8_t i = 1; i < window; i++)
     590:	4f 30       	cpi	r20, 0x0F	; 15
     592:	51 05       	cpc	r21, r1
     594:	59 f7       	brne	.-42     	; 0x56c <cur_pressure_SMA+0x14>
	{
		pressure_mass[i-1] = pressure_mass[i];
	}
	
	pressure_mass[window-1] = _current_pressure;
     596:	90 93 11 02 	sts	0x0211, r25
     59a:	80 93 10 02 	sts	0x0210, r24
	
	pressure_temp = 0;
     59e:	10 92 ee 01 	sts	0x01EE, r1
     5a2:	10 92 ef 01 	sts	0x01EF, r1
     5a6:	10 92 f0 01 	sts	0x01F0, r1
     5aa:	10 92 f1 01 	sts	0x01F1, r1
     5ae:	c1 2c       	mov	r12, r1
     5b0:	d1 2c       	mov	r13, r1
     5b2:	76 01       	movw	r14, r12
     5b4:	c3 94       	inc	r12
     5b6:	f6 01       	movw	r30, r12
     5b8:	32 97       	sbiw	r30, 0x02	; 2
	
	for (uint8_t i = 0; i<window; i++)
	{
		pressure_temp+=(uint32_t)pressure_mass[i-1]*((uint32_t)(i+1));
     5ba:	ee 0f       	add	r30, r30
     5bc:	ff 1f       	adc	r31, r31
     5be:	ee 50       	subi	r30, 0x0E	; 14
     5c0:	fe 4f       	sbci	r31, 0xFE	; 254
     5c2:	a0 81       	ld	r26, Z
     5c4:	b1 81       	ldd	r27, Z+1	; 0x01
     5c6:	80 90 ee 01 	lds	r8, 0x01EE
     5ca:	90 90 ef 01 	lds	r9, 0x01EF
     5ce:	a0 90 f0 01 	lds	r10, 0x01F0
     5d2:	b0 90 f1 01 	lds	r11, 0x01F1
     5d6:	a7 01       	movw	r20, r14
     5d8:	96 01       	movw	r18, r12
     5da:	0e 94 f8 14 	call	0x29f0	; 0x29f0 <__muluhisi3>
     5de:	86 0e       	add	r8, r22
     5e0:	97 1e       	adc	r9, r23
     5e2:	a8 1e       	adc	r10, r24
     5e4:	b9 1e       	adc	r11, r25
     5e6:	80 92 ee 01 	sts	0x01EE, r8
     5ea:	90 92 ef 01 	sts	0x01EF, r9
     5ee:	a0 92 f0 01 	sts	0x01F0, r10
     5f2:	b0 92 f1 01 	sts	0x01F1, r11
     5f6:	8f ef       	ldi	r24, 0xFF	; 255
     5f8:	c8 1a       	sub	r12, r24
     5fa:	d8 0a       	sbc	r13, r24
     5fc:	e8 0a       	sbc	r14, r24
     5fe:	f8 0a       	sbc	r15, r24
	
	pressure_mass[window-1] = _current_pressure;
	
	pressure_temp = 0;
	
	for (uint8_t i = 0; i<window; i++)
     600:	81 e1       	ldi	r24, 0x11	; 17
     602:	c8 16       	cp	r12, r24
     604:	d1 04       	cpc	r13, r1
     606:	e1 04       	cpc	r14, r1
     608:	f1 04       	cpc	r15, r1
     60a:	a9 f6       	brne	.-86     	; 0x5b6 <cur_pressure_SMA+0x5e>
	{
		pressure_temp+=(uint32_t)pressure_mass[i-1]*((uint32_t)(i+1));
	}
	return (uint16_t)((uint32_t)pressure_temp/(uint16_t)del);
     60c:	60 91 ee 01 	lds	r22, 0x01EE
     610:	70 91 ef 01 	lds	r23, 0x01EF
     614:	80 91 f0 01 	lds	r24, 0x01F0
     618:	90 91 f1 01 	lds	r25, 0x01F1
     61c:	28 e8       	ldi	r18, 0x88	; 136
     61e:	30 e0       	ldi	r19, 0x00	; 0
     620:	40 e0       	ldi	r20, 0x00	; 0
     622:	50 e0       	ldi	r21, 0x00	; 0
     624:	0e 94 d6 14 	call	0x29ac	; 0x29ac <__udivmodsi4>
}
     628:	c9 01       	movw	r24, r18
     62a:	ff 90       	pop	r15
     62c:	ef 90       	pop	r14
     62e:	df 90       	pop	r13
     630:	cf 90       	pop	r12
     632:	bf 90       	pop	r11
     634:	af 90       	pop	r10
     636:	9f 90       	pop	r9
     638:	8f 90       	pop	r8
     63a:	08 95       	ret

0000063c <CDC_Device_ConfigureEndpoints>:

void CDC_Device_CreateBlockingStream(USB_ClassInfo_CDC_Device_t* const CDCInterfaceInfo,
                                     FILE* const Stream)
{
	*Stream = (FILE)FDEV_SETUP_STREAM(CDC_Device_putchar, CDC_Device_getchar_Blocking, _FDEV_SETUP_RW);
	fdev_set_udata(Stream, CDCInterfaceInfo);
     63c:	cf 93       	push	r28
     63e:	df 93       	push	r29
     640:	ec 01       	movw	r28, r24
     642:	fc 01       	movw	r30, r24
     644:	70 96       	adiw	r30, 0x10	; 16
     646:	8b e0       	ldi	r24, 0x0B	; 11
     648:	df 01       	movw	r26, r30
     64a:	1d 92       	st	X+, r1
     64c:	8a 95       	dec	r24
     64e:	e9 f7       	brne	.-6      	; 0x64a <CDC_Device_ConfigureEndpoints+0xe>
     650:	82 e0       	ldi	r24, 0x02	; 2
     652:	8c 83       	std	Y+4, r24	; 0x04
     654:	89 87       	std	Y+9, r24	; 0x09
     656:	83 e0       	ldi	r24, 0x03	; 3
     658:	8e 87       	std	Y+14, r24	; 0x0e
     65a:	61 e0       	ldi	r22, 0x01	; 1
     65c:	ce 01       	movw	r24, r28
     65e:	01 96       	adiw	r24, 0x01	; 1
     660:	f5 d2       	rcall	.+1514   	; 0xc4c <Endpoint_ConfigureEndpointTable>
     662:	88 23       	and	r24, r24
     664:	61 f0       	breq	.+24     	; 0x67e <CDC_Device_ConfigureEndpoints+0x42>
     666:	61 e0       	ldi	r22, 0x01	; 1
     668:	ce 01       	movw	r24, r28
     66a:	06 96       	adiw	r24, 0x06	; 6
     66c:	ef d2       	rcall	.+1502   	; 0xc4c <Endpoint_ConfigureEndpointTable>
     66e:	88 23       	and	r24, r24
     670:	31 f0       	breq	.+12     	; 0x67e <CDC_Device_ConfigureEndpoints+0x42>
     672:	61 e0       	ldi	r22, 0x01	; 1
     674:	ce 01       	movw	r24, r28
     676:	0b 96       	adiw	r24, 0x0b	; 11
     678:	df 91       	pop	r29
     67a:	cf 91       	pop	r28
     67c:	e7 c2       	rjmp	.+1486   	; 0xc4c <Endpoint_ConfigureEndpointTable>
     67e:	80 e0       	ldi	r24, 0x00	; 0
     680:	df 91       	pop	r29
     682:	cf 91       	pop	r28
     684:	08 95       	ret

00000686 <CDC_Device_SendString>:
     686:	db 01       	movw	r26, r22
     688:	20 91 2f 02 	lds	r18, 0x022F
     68c:	24 30       	cpi	r18, 0x04	; 4
     68e:	c9 f4       	brne	.+50     	; 0x6c2 <CDC_Device_SendString+0x3c>
     690:	fc 01       	movw	r30, r24
     692:	44 89       	ldd	r20, Z+20	; 0x14
     694:	55 89       	ldd	r21, Z+21	; 0x15
     696:	66 89       	ldd	r22, Z+22	; 0x16
     698:	77 89       	ldd	r23, Z+23	; 0x17
     69a:	45 2b       	or	r20, r21
     69c:	46 2b       	or	r20, r22
     69e:	47 2b       	or	r20, r23
     6a0:	81 f0       	breq	.+32     	; 0x6c2 <CDC_Device_SendString+0x3c>
     6a2:	81 81       	ldd	r24, Z+1	; 0x01
     6a4:	8f 70       	andi	r24, 0x0F	; 15
     6a6:	80 93 e9 00 	sts	0x00E9, r24
     6aa:	fd 01       	movw	r30, r26
     6ac:	01 90       	ld	r0, Z+
     6ae:	00 20       	and	r0, r0
     6b0:	e9 f7       	brne	.-6      	; 0x6ac <CDC_Device_SendString+0x26>
     6b2:	31 97       	sbiw	r30, 0x01	; 1
     6b4:	bf 01       	movw	r22, r30
     6b6:	6a 1b       	sub	r22, r26
     6b8:	7b 0b       	sbc	r23, r27
     6ba:	40 e0       	ldi	r20, 0x00	; 0
     6bc:	50 e0       	ldi	r21, 0x00	; 0
     6be:	cd 01       	movw	r24, r26
     6c0:	83 c1       	rjmp	.+774    	; 0x9c8 <Endpoint_Write_Stream_LE>
     6c2:	82 e0       	ldi	r24, 0x02	; 2
     6c4:	08 95       	ret

000006c6 <CDC_Device_SendByte>:
     6c6:	0f 93       	push	r16
     6c8:	1f 93       	push	r17
     6ca:	cf 93       	push	r28
     6cc:	20 91 2f 02 	lds	r18, 0x022F
     6d0:	24 30       	cpi	r18, 0x04	; 4
     6d2:	f9 f4       	brne	.+62     	; 0x712 <CDC_Device_SendByte+0x4c>
     6d4:	fc 01       	movw	r30, r24
     6d6:	04 89       	ldd	r16, Z+20	; 0x14
     6d8:	15 89       	ldd	r17, Z+21	; 0x15
     6da:	26 89       	ldd	r18, Z+22	; 0x16
     6dc:	37 89       	ldd	r19, Z+23	; 0x17
     6de:	01 2b       	or	r16, r17
     6e0:	02 2b       	or	r16, r18
     6e2:	03 2b       	or	r16, r19
     6e4:	b1 f0       	breq	.+44     	; 0x712 <CDC_Device_SendByte+0x4c>
     6e6:	c6 2f       	mov	r28, r22
     6e8:	81 81       	ldd	r24, Z+1	; 0x01
     6ea:	8f 70       	andi	r24, 0x0F	; 15
     6ec:	80 93 e9 00 	sts	0x00E9, r24
     6f0:	80 91 e8 00 	lds	r24, 0x00E8
     6f4:	85 ff       	sbrs	r24, 5
     6f6:	04 c0       	rjmp	.+8      	; 0x700 <CDC_Device_SendByte+0x3a>
     6f8:	c0 93 f1 00 	sts	0x00F1, r28
     6fc:	80 e0       	ldi	r24, 0x00	; 0
     6fe:	0a c0       	rjmp	.+20     	; 0x714 <CDC_Device_SendByte+0x4e>
     700:	80 91 e8 00 	lds	r24, 0x00E8
     704:	8e 77       	andi	r24, 0x7E	; 126
     706:	80 93 e8 00 	sts	0x00E8, r24
     70a:	07 d3       	rcall	.+1550   	; 0xd1a <Endpoint_WaitUntilReady>
     70c:	88 23       	and	r24, r24
     70e:	a1 f3       	breq	.-24     	; 0x6f8 <CDC_Device_SendByte+0x32>
     710:	01 c0       	rjmp	.+2      	; 0x714 <CDC_Device_SendByte+0x4e>
     712:	82 e0       	ldi	r24, 0x02	; 2
     714:	cf 91       	pop	r28
     716:	1f 91       	pop	r17
     718:	0f 91       	pop	r16
     71a:	08 95       	ret

0000071c <CDC_Device_putchar>:
     71c:	fb 01       	movw	r30, r22
     71e:	68 2f       	mov	r22, r24
     720:	84 85       	ldd	r24, Z+12	; 0x0c
     722:	95 85       	ldd	r25, Z+13	; 0x0d
     724:	d0 df       	rcall	.-96     	; 0x6c6 <CDC_Device_SendByte>
     726:	21 e0       	ldi	r18, 0x01	; 1
     728:	30 e0       	ldi	r19, 0x00	; 0
     72a:	81 11       	cpse	r24, r1
     72c:	02 c0       	rjmp	.+4      	; 0x732 <CDC_Device_putchar+0x16>
     72e:	20 e0       	ldi	r18, 0x00	; 0
     730:	30 e0       	ldi	r19, 0x00	; 0
     732:	88 27       	eor	r24, r24
     734:	99 27       	eor	r25, r25
     736:	82 1b       	sub	r24, r18
     738:	93 0b       	sbc	r25, r19
     73a:	08 95       	ret

0000073c <CDC_Device_Flush>:
     73c:	20 91 2f 02 	lds	r18, 0x022F
     740:	24 30       	cpi	r18, 0x04	; 4
     742:	41 f5       	brne	.+80     	; 0x794 <CDC_Device_Flush+0x58>
     744:	fc 01       	movw	r30, r24
     746:	44 89       	ldd	r20, Z+20	; 0x14
     748:	55 89       	ldd	r21, Z+21	; 0x15
     74a:	66 89       	ldd	r22, Z+22	; 0x16
     74c:	77 89       	ldd	r23, Z+23	; 0x17
     74e:	45 2b       	or	r20, r21
     750:	46 2b       	or	r20, r22
     752:	47 2b       	or	r20, r23
     754:	f9 f0       	breq	.+62     	; 0x794 <CDC_Device_Flush+0x58>
     756:	81 81       	ldd	r24, Z+1	; 0x01
     758:	8f 70       	andi	r24, 0x0F	; 15
     75a:	80 93 e9 00 	sts	0x00E9, r24
     75e:	20 91 f3 00 	lds	r18, 0x00F3
     762:	80 91 f2 00 	lds	r24, 0x00F2
     766:	90 e0       	ldi	r25, 0x00	; 0
     768:	92 2b       	or	r25, r18
     76a:	89 2b       	or	r24, r25
     76c:	89 f0       	breq	.+34     	; 0x790 <CDC_Device_Flush+0x54>
     76e:	90 91 e8 00 	lds	r25, 0x00E8
     772:	80 91 e8 00 	lds	r24, 0x00E8
     776:	8e 77       	andi	r24, 0x7E	; 126
     778:	80 93 e8 00 	sts	0x00E8, r24
     77c:	95 fd       	sbrc	r25, 5
     77e:	08 c0       	rjmp	.+16     	; 0x790 <CDC_Device_Flush+0x54>
     780:	cc d2       	rcall	.+1432   	; 0xd1a <Endpoint_WaitUntilReady>
     782:	81 11       	cpse	r24, r1
     784:	08 c0       	rjmp	.+16     	; 0x796 <CDC_Device_Flush+0x5a>
     786:	80 91 e8 00 	lds	r24, 0x00E8
     78a:	8e 77       	andi	r24, 0x7E	; 126
     78c:	80 93 e8 00 	sts	0x00E8, r24
     790:	80 e0       	ldi	r24, 0x00	; 0
     792:	08 95       	ret
     794:	82 e0       	ldi	r24, 0x02	; 2
     796:	08 95       	ret

00000798 <CDC_Device_USBTask>:
     798:	20 91 2f 02 	lds	r18, 0x022F
     79c:	24 30       	cpi	r18, 0x04	; 4
     79e:	89 f4       	brne	.+34     	; 0x7c2 <CDC_Device_USBTask+0x2a>
     7a0:	fc 01       	movw	r30, r24
     7a2:	44 89       	ldd	r20, Z+20	; 0x14
     7a4:	55 89       	ldd	r21, Z+21	; 0x15
     7a6:	66 89       	ldd	r22, Z+22	; 0x16
     7a8:	77 89       	ldd	r23, Z+23	; 0x17
     7aa:	45 2b       	or	r20, r21
     7ac:	46 2b       	or	r20, r22
     7ae:	47 2b       	or	r20, r23
     7b0:	41 f0       	breq	.+16     	; 0x7c2 <CDC_Device_USBTask+0x2a>
     7b2:	21 81       	ldd	r18, Z+1	; 0x01
     7b4:	2f 70       	andi	r18, 0x0F	; 15
     7b6:	20 93 e9 00 	sts	0x00E9, r18
     7ba:	20 91 e8 00 	lds	r18, 0x00E8
     7be:	20 fd       	sbrc	r18, 0
     7c0:	bd cf       	rjmp	.-134    	; 0x73c <CDC_Device_Flush>
     7c2:	08 95       	ret

000007c4 <CDC_Device_ReceiveByte>:
     7c4:	20 91 2f 02 	lds	r18, 0x022F
     7c8:	24 30       	cpi	r18, 0x04	; 4
     7ca:	19 f0       	breq	.+6      	; 0x7d2 <CDC_Device_ReceiveByte+0xe>
     7cc:	8f ef       	ldi	r24, 0xFF	; 255
     7ce:	9f ef       	ldi	r25, 0xFF	; 255
     7d0:	08 95       	ret
     7d2:	fc 01       	movw	r30, r24
     7d4:	44 89       	ldd	r20, Z+20	; 0x14
     7d6:	55 89       	ldd	r21, Z+21	; 0x15
     7d8:	66 89       	ldd	r22, Z+22	; 0x16
     7da:	77 89       	ldd	r23, Z+23	; 0x17
     7dc:	45 2b       	or	r20, r21
     7de:	46 2b       	or	r20, r22
     7e0:	47 2b       	or	r20, r23
     7e2:	a1 f3       	breq	.-24     	; 0x7cc <CDC_Device_ReceiveByte+0x8>
     7e4:	86 81       	ldd	r24, Z+6	; 0x06
     7e6:	8f 70       	andi	r24, 0x0F	; 15
     7e8:	80 93 e9 00 	sts	0x00E9, r24
     7ec:	80 91 e8 00 	lds	r24, 0x00E8
     7f0:	82 ff       	sbrs	r24, 2
     7f2:	ec cf       	rjmp	.-40     	; 0x7cc <CDC_Device_ReceiveByte+0x8>
     7f4:	20 91 f3 00 	lds	r18, 0x00F3
     7f8:	80 91 f2 00 	lds	r24, 0x00F2
     7fc:	90 e0       	ldi	r25, 0x00	; 0
     7fe:	92 2b       	or	r25, r18
     800:	89 2b       	or	r24, r25
     802:	21 f0       	breq	.+8      	; 0x80c <CDC_Device_ReceiveByte+0x48>
     804:	20 91 f1 00 	lds	r18, 0x00F1
     808:	30 e0       	ldi	r19, 0x00	; 0
     80a:	02 c0       	rjmp	.+4      	; 0x810 <CDC_Device_ReceiveByte+0x4c>
     80c:	2f ef       	ldi	r18, 0xFF	; 255
     80e:	3f ef       	ldi	r19, 0xFF	; 255
     810:	40 91 f3 00 	lds	r20, 0x00F3
     814:	80 91 f2 00 	lds	r24, 0x00F2
     818:	90 e0       	ldi	r25, 0x00	; 0
     81a:	94 2b       	or	r25, r20
     81c:	89 2b       	or	r24, r25
     81e:	29 f4       	brne	.+10     	; 0x82a <CDC_Device_ReceiveByte+0x66>
     820:	80 91 e8 00 	lds	r24, 0x00E8
     824:	8b 77       	andi	r24, 0x7B	; 123
     826:	80 93 e8 00 	sts	0x00E8, r24
     82a:	c9 01       	movw	r24, r18
     82c:	08 95       	ret

0000082e <CDC_Device_getchar>:
     82e:	fc 01       	movw	r30, r24
     830:	84 85       	ldd	r24, Z+12	; 0x0c
     832:	95 85       	ldd	r25, Z+13	; 0x0d
     834:	c7 df       	rcall	.-114    	; 0x7c4 <CDC_Device_ReceiveByte>
     836:	97 ff       	sbrs	r25, 7
     838:	02 c0       	rjmp	.+4      	; 0x83e <CDC_Device_getchar+0x10>
     83a:	8e ef       	ldi	r24, 0xFE	; 254
     83c:	9f ef       	ldi	r25, 0xFF	; 255
     83e:	08 95       	ret

00000840 <CDC_Device_CreateStream>:
     840:	fb 01       	movw	r30, r22
     842:	2e e0       	ldi	r18, 0x0E	; 14
     844:	db 01       	movw	r26, r22
     846:	1d 92       	st	X+, r1
     848:	2a 95       	dec	r18
     84a:	e9 f7       	brne	.-6      	; 0x846 <CDC_Device_CreateStream+0x6>
     84c:	23 e0       	ldi	r18, 0x03	; 3
     84e:	23 83       	std	Z+3, r18	; 0x03
     850:	2e e8       	ldi	r18, 0x8E	; 142
     852:	33 e0       	ldi	r19, 0x03	; 3
     854:	31 87       	std	Z+9, r19	; 0x09
     856:	20 87       	std	Z+8, r18	; 0x08
     858:	27 e1       	ldi	r18, 0x17	; 23
     85a:	34 e0       	ldi	r19, 0x04	; 4
     85c:	33 87       	std	Z+11, r19	; 0x0b
     85e:	22 87       	std	Z+10, r18	; 0x0a
     860:	95 87       	std	Z+13, r25	; 0x0d
     862:	84 87       	std	Z+12, r24	; 0x0c
     864:	08 95       	ret

00000866 <CDC_Device_Event_Stub>:
	return ReceivedByte;
}
#endif

void CDC_Device_Event_Stub(void)
{
     866:	08 95       	ret

00000868 <CDC_Device_ProcessControlRequest>:
#define  __INCLUDE_FROM_CDC_DRIVER
#define  __INCLUDE_FROM_CDC_DEVICE_C
#include "CDCClassDevice.h"

void CDC_Device_ProcessControlRequest(USB_ClassInfo_CDC_Device_t* const CDCInterfaceInfo)
{
     868:	cf 93       	push	r28
     86a:	df 93       	push	r29
     86c:	ec 01       	movw	r28, r24
			 *  \return Boolean \c true if the selected endpoint has received a SETUP packet, \c false otherwise.
			 */
			static inline bool Endpoint_IsSETUPReceived(void) ATTR_WARN_UNUSED_RESULT ATTR_ALWAYS_INLINE;
			static inline bool Endpoint_IsSETUPReceived(void)
			{
				return ((UEINTX & (1 << RXSTPI)) ? true : false);
     86e:	80 91 e8 00 	lds	r24, 0x00E8
	if (!(Endpoint_IsSETUPReceived()))
     872:	83 ff       	sbrs	r24, 3
     874:	a6 c0       	rjmp	.+332    	; 0x9c2 <CDC_Device_ProcessControlRequest+0x15a>
	  return;

	if (USB_ControlRequest.wIndex != CDCInterfaceInfo->Config.ControlInterfaceNumber)
     876:	88 81       	ld	r24, Y
     878:	90 e0       	ldi	r25, 0x00	; 0
     87a:	20 91 34 02 	lds	r18, 0x0234
     87e:	30 91 35 02 	lds	r19, 0x0235
     882:	28 17       	cp	r18, r24
     884:	39 07       	cpc	r19, r25
     886:	09 f0       	breq	.+2      	; 0x88a <CDC_Device_ProcessControlRequest+0x22>
     888:	9c c0       	rjmp	.+312    	; 0x9c2 <CDC_Device_ProcessControlRequest+0x15a>
	  return;

	switch (USB_ControlRequest.bRequest)
     88a:	80 91 31 02 	lds	r24, 0x0231
     88e:	81 32       	cpi	r24, 0x21	; 33
     890:	61 f0       	breq	.+24     	; 0x8aa <CDC_Device_ProcessControlRequest+0x42>
     892:	20 f4       	brcc	.+8      	; 0x89c <CDC_Device_ProcessControlRequest+0x34>
     894:	80 32       	cpi	r24, 0x20	; 32
     896:	09 f4       	brne	.+2      	; 0x89a <CDC_Device_ProcessControlRequest+0x32>
     898:	3e c0       	rjmp	.+124    	; 0x916 <CDC_Device_ProcessControlRequest+0xae>
     89a:	93 c0       	rjmp	.+294    	; 0x9c2 <CDC_Device_ProcessControlRequest+0x15a>
     89c:	82 32       	cpi	r24, 0x22	; 34
     89e:	09 f4       	brne	.+2      	; 0x8a2 <CDC_Device_ProcessControlRequest+0x3a>
     8a0:	6c c0       	rjmp	.+216    	; 0x97a <CDC_Device_ProcessControlRequest+0x112>
     8a2:	83 32       	cpi	r24, 0x23	; 35
     8a4:	09 f4       	brne	.+2      	; 0x8a8 <CDC_Device_ProcessControlRequest+0x40>
     8a6:	7d c0       	rjmp	.+250    	; 0x9a2 <CDC_Device_ProcessControlRequest+0x13a>
     8a8:	8c c0       	rjmp	.+280    	; 0x9c2 <CDC_Device_ProcessControlRequest+0x15a>
	{
		case CDC_REQ_GetLineEncoding:
			if (USB_ControlRequest.bmRequestType == (REQDIR_DEVICETOHOST | REQTYPE_CLASS | REQREC_INTERFACE))
     8aa:	80 91 30 02 	lds	r24, 0x0230
     8ae:	81 3a       	cpi	r24, 0xA1	; 161
     8b0:	09 f0       	breq	.+2      	; 0x8b4 <CDC_Device_ProcessControlRequest+0x4c>
     8b2:	87 c0       	rjmp	.+270    	; 0x9c2 <CDC_Device_ProcessControlRequest+0x15a>
			 *  \note This is not applicable for non CONTROL type endpoints.
			 */
			static inline void Endpoint_ClearSETUP(void) ATTR_ALWAYS_INLINE;
			static inline void Endpoint_ClearSETUP(void)
			{
				UEINTX &= ~(1 << RXSTPI);
     8b4:	80 91 e8 00 	lds	r24, 0x00E8
     8b8:	87 7f       	andi	r24, 0xF7	; 247
     8ba:	80 93 e8 00 	sts	0x00E8, r24
			 *  \return Boolean \c true if the current endpoint is ready for an IN packet, \c false otherwise.
			 */
			static inline bool Endpoint_IsINReady(void) ATTR_WARN_UNUSED_RESULT ATTR_ALWAYS_INLINE;
			static inline bool Endpoint_IsINReady(void)
			{
				return ((UEINTX & (1 << TXINI)) ? true : false);
     8be:	80 91 e8 00 	lds	r24, 0x00E8
			{
				Endpoint_ClearSETUP();

				while (!(Endpoint_IsINReady()));
     8c2:	80 ff       	sbrs	r24, 0
     8c4:	fc cf       	rjmp	.-8      	; 0x8be <CDC_Device_ProcessControlRequest+0x56>

				Endpoint_Write_32_LE(CDCInterfaceInfo->State.LineEncoding.BaudRateBPS);
     8c6:	8c 89       	ldd	r24, Y+20	; 0x14
     8c8:	9d 89       	ldd	r25, Y+21	; 0x15
     8ca:	ae 89       	ldd	r26, Y+22	; 0x16
     8cc:	bf 89       	ldd	r27, Y+23	; 0x17
			 *  \param[in] Data  Data to write to the currently selected endpoint's FIFO buffer.
			 */
			static inline void Endpoint_Write_32_LE(const uint32_t Data) ATTR_ALWAYS_INLINE;
			static inline void Endpoint_Write_32_LE(const uint32_t Data)
			{
				UEDATX = (Data &  0xFF);
     8ce:	80 93 f1 00 	sts	0x00F1, r24
				UEDATX = (Data >> 8);
     8d2:	49 2f       	mov	r20, r25
     8d4:	5a 2f       	mov	r21, r26
     8d6:	6b 2f       	mov	r22, r27
     8d8:	77 27       	eor	r23, r23
     8da:	40 93 f1 00 	sts	0x00F1, r20
				UEDATX = (Data >> 16);
     8de:	ad 01       	movw	r20, r26
     8e0:	66 27       	eor	r22, r22
     8e2:	77 27       	eor	r23, r23
     8e4:	40 93 f1 00 	sts	0x00F1, r20
				UEDATX = (Data >> 24);
     8e8:	8b 2f       	mov	r24, r27
     8ea:	99 27       	eor	r25, r25
     8ec:	aa 27       	eor	r26, r26
     8ee:	bb 27       	eor	r27, r27
     8f0:	80 93 f1 00 	sts	0x00F1, r24
				Endpoint_Write_8(CDCInterfaceInfo->State.LineEncoding.CharFormat);
     8f4:	88 8d       	ldd	r24, Y+24	; 0x18
			 *  \param[in] Data  Data to write into the the currently selected endpoint's FIFO buffer.
			 */
			static inline void Endpoint_Write_8(const uint8_t Data) ATTR_ALWAYS_INLINE;
			static inline void Endpoint_Write_8(const uint8_t Data)
			{
				UEDATX = Data;
     8f6:	80 93 f1 00 	sts	0x00F1, r24
				Endpoint_Write_8(CDCInterfaceInfo->State.LineEncoding.ParityType);
     8fa:	89 8d       	ldd	r24, Y+25	; 0x19
     8fc:	80 93 f1 00 	sts	0x00F1, r24
				Endpoint_Write_8(CDCInterfaceInfo->State.LineEncoding.DataBits);
     900:	8a 8d       	ldd	r24, Y+26	; 0x1a
     902:	80 93 f1 00 	sts	0x00F1, r24
			 */
			static inline void Endpoint_ClearIN(void) ATTR_ALWAYS_INLINE;
			static inline void Endpoint_ClearIN(void)
			{
				#if !defined(CONTROL_ONLY_DEVICE)
					UEINTX &= ~((1 << TXINI) | (1 << FIFOCON));
     906:	80 91 e8 00 	lds	r24, 0x00E8
     90a:	8e 77       	andi	r24, 0x7E	; 126
     90c:	80 93 e8 00 	sts	0x00E8, r24
				EVENT_CDC_Device_BreakSent(CDCInterfaceInfo, (uint8_t)USB_ControlRequest.wValue);
			}

			break;
	}
}
     910:	df 91       	pop	r29
     912:	cf 91       	pop	r28
				Endpoint_Write_8(CDCInterfaceInfo->State.LineEncoding.CharFormat);
				Endpoint_Write_8(CDCInterfaceInfo->State.LineEncoding.ParityType);
				Endpoint_Write_8(CDCInterfaceInfo->State.LineEncoding.DataBits);

				Endpoint_ClearIN();
				Endpoint_ClearStatusStage();
     914:	e3 c1       	rjmp	.+966    	; 0xcdc <Endpoint_ClearStatusStage>
			}

			break;
		case CDC_REQ_SetLineEncoding:
			if (USB_ControlRequest.bmRequestType == (REQDIR_HOSTTODEVICE | REQTYPE_CLASS | REQREC_INTERFACE))
     916:	80 91 30 02 	lds	r24, 0x0230
     91a:	81 32       	cpi	r24, 0x21	; 33
     91c:	09 f0       	breq	.+2      	; 0x920 <CDC_Device_ProcessControlRequest+0xb8>
     91e:	51 c0       	rjmp	.+162    	; 0x9c2 <CDC_Device_ProcessControlRequest+0x15a>
			 *  \note This is not applicable for non CONTROL type endpoints.
			 */
			static inline void Endpoint_ClearSETUP(void) ATTR_ALWAYS_INLINE;
			static inline void Endpoint_ClearSETUP(void)
			{
				UEINTX &= ~(1 << RXSTPI);
     920:	80 91 e8 00 	lds	r24, 0x00E8
     924:	87 7f       	andi	r24, 0xF7	; 247
     926:	80 93 e8 00 	sts	0x00E8, r24
			 *  \return Boolean \c true if current endpoint is has received an OUT packet, \c false otherwise.
			 */
			static inline bool Endpoint_IsOUTReceived(void) ATTR_WARN_UNUSED_RESULT ATTR_ALWAYS_INLINE;
			static inline bool Endpoint_IsOUTReceived(void)
			{
				return ((UEINTX & (1 << RXOUTI)) ? true : false);
     92a:	80 91 e8 00 	lds	r24, 0x00E8
			{
				Endpoint_ClearSETUP();

				while (!(Endpoint_IsOUTReceived()))
     92e:	82 fd       	sbrc	r24, 2
     930:	05 c0       	rjmp	.+10     	; 0x93c <CDC_Device_ProcessControlRequest+0xd4>
				{
					if (USB_DeviceState == DEVICE_STATE_Unattached)
     932:	80 91 2f 02 	lds	r24, 0x022F
     936:	81 11       	cpse	r24, r1
     938:	f8 cf       	rjmp	.-16     	; 0x92a <CDC_Device_ProcessControlRequest+0xc2>
     93a:	43 c0       	rjmp	.+134    	; 0x9c2 <CDC_Device_ProcessControlRequest+0x15a>
				{
					uint32_t Value;
					uint8_t  Bytes[4];
				} Data;

				Data.Bytes[0] = UEDATX;
     93c:	30 91 f1 00 	lds	r19, 0x00F1
				Data.Bytes[1] = UEDATX;
     940:	20 91 f1 00 	lds	r18, 0x00F1
				Data.Bytes[2] = UEDATX;
     944:	90 91 f1 00 	lds	r25, 0x00F1
				Data.Bytes[3] = UEDATX;
     948:	80 91 f1 00 	lds	r24, 0x00F1
					  return;
				}

				CDCInterfaceInfo->State.LineEncoding.BaudRateBPS = Endpoint_Read_32_LE();
     94c:	3c 8b       	std	Y+20, r19	; 0x14
     94e:	2d 8b       	std	Y+21, r18	; 0x15
     950:	9e 8b       	std	Y+22, r25	; 0x16
     952:	8f 8b       	std	Y+23, r24	; 0x17
			 *  \return Next byte in the currently selected endpoint's FIFO buffer.
			 */
			static inline uint8_t Endpoint_Read_8(void) ATTR_WARN_UNUSED_RESULT ATTR_ALWAYS_INLINE;
			static inline uint8_t Endpoint_Read_8(void)
			{
				return UEDATX;
     954:	80 91 f1 00 	lds	r24, 0x00F1
				CDCInterfaceInfo->State.LineEncoding.CharFormat  = Endpoint_Read_8();
     958:	88 8f       	std	Y+24, r24	; 0x18
     95a:	80 91 f1 00 	lds	r24, 0x00F1
				CDCInterfaceInfo->State.LineEncoding.ParityType  = Endpoint_Read_8();
     95e:	89 8f       	std	Y+25, r24	; 0x19
     960:	80 91 f1 00 	lds	r24, 0x00F1
				CDCInterfaceInfo->State.LineEncoding.DataBits    = Endpoint_Read_8();
     964:	8a 8f       	std	Y+26, r24	; 0x1a
			 */
			static inline void Endpoint_ClearOUT(void) ATTR_ALWAYS_INLINE;
			static inline void Endpoint_ClearOUT(void)
			{
				#if !defined(CONTROL_ONLY_DEVICE)
					UEINTX &= ~((1 << RXOUTI) | (1 << FIFOCON));
     966:	80 91 e8 00 	lds	r24, 0x00E8
     96a:	8b 77       	andi	r24, 0x7B	; 123
     96c:	80 93 e8 00 	sts	0x00E8, r24

				Endpoint_ClearOUT();
				Endpoint_ClearStatusStage();
     970:	b5 d1       	rcall	.+874    	; 0xcdc <Endpoint_ClearStatusStage>

				EVENT_CDC_Device_LineEncodingChanged(CDCInterfaceInfo);
     972:	ce 01       	movw	r24, r28
				EVENT_CDC_Device_BreakSent(CDCInterfaceInfo, (uint8_t)USB_ControlRequest.wValue);
			}

			break;
	}
}
     974:	df 91       	pop	r29
     976:	cf 91       	pop	r28
				CDCInterfaceInfo->State.LineEncoding.DataBits    = Endpoint_Read_8();

				Endpoint_ClearOUT();
				Endpoint_ClearStatusStage();

				EVENT_CDC_Device_LineEncodingChanged(CDCInterfaceInfo);
     978:	76 cf       	rjmp	.-276    	; 0x866 <CDC_Device_Event_Stub>
			}

			break;
		case CDC_REQ_SetControlLineState:
			if (USB_ControlRequest.bmRequestType == (REQDIR_HOSTTODEVICE | REQTYPE_CLASS | REQREC_INTERFACE))
     97a:	80 91 30 02 	lds	r24, 0x0230
     97e:	81 32       	cpi	r24, 0x21	; 33
     980:	01 f5       	brne	.+64     	; 0x9c2 <CDC_Device_ProcessControlRequest+0x15a>
			 *  \note This is not applicable for non CONTROL type endpoints.
			 */
			static inline void Endpoint_ClearSETUP(void) ATTR_ALWAYS_INLINE;
			static inline void Endpoint_ClearSETUP(void)
			{
				UEINTX &= ~(1 << RXSTPI);
     982:	80 91 e8 00 	lds	r24, 0x00E8
     986:	87 7f       	andi	r24, 0xF7	; 247
     988:	80 93 e8 00 	sts	0x00E8, r24
			{
				Endpoint_ClearSETUP();
				Endpoint_ClearStatusStage();
     98c:	a7 d1       	rcall	.+846    	; 0xcdc <Endpoint_ClearStatusStage>

				CDCInterfaceInfo->State.ControlLineStates.HostToDevice = USB_ControlRequest.wValue;
     98e:	80 91 32 02 	lds	r24, 0x0232
     992:	90 91 33 02 	lds	r25, 0x0233
     996:	99 8b       	std	Y+17, r25	; 0x11
     998:	88 8b       	std	Y+16, r24	; 0x10

				EVENT_CDC_Device_ControLineStateChanged(CDCInterfaceInfo);
     99a:	ce 01       	movw	r24, r28
				EVENT_CDC_Device_BreakSent(CDCInterfaceInfo, (uint8_t)USB_ControlRequest.wValue);
			}

			break;
	}
}
     99c:	df 91       	pop	r29
     99e:	cf 91       	pop	r28
				Endpoint_ClearSETUP();
				Endpoint_ClearStatusStage();

				CDCInterfaceInfo->State.ControlLineStates.HostToDevice = USB_ControlRequest.wValue;

				EVENT_CDC_Device_ControLineStateChanged(CDCInterfaceInfo);
     9a0:	62 cf       	rjmp	.-316    	; 0x866 <CDC_Device_Event_Stub>
			}

			break;
		case CDC_REQ_SendBreak:
			if (USB_ControlRequest.bmRequestType == (REQDIR_HOSTTODEVICE | REQTYPE_CLASS | REQREC_INTERFACE))
     9a2:	80 91 30 02 	lds	r24, 0x0230
     9a6:	81 32       	cpi	r24, 0x21	; 33
     9a8:	61 f4       	brne	.+24     	; 0x9c2 <CDC_Device_ProcessControlRequest+0x15a>
     9aa:	80 91 e8 00 	lds	r24, 0x00E8
     9ae:	87 7f       	andi	r24, 0xF7	; 247
     9b0:	80 93 e8 00 	sts	0x00E8, r24
			{
				Endpoint_ClearSETUP();
				Endpoint_ClearStatusStage();
     9b4:	93 d1       	rcall	.+806    	; 0xcdc <Endpoint_ClearStatusStage>

				EVENT_CDC_Device_BreakSent(CDCInterfaceInfo, (uint8_t)USB_ControlRequest.wValue);
     9b6:	60 91 32 02 	lds	r22, 0x0232
     9ba:	ce 01       	movw	r24, r28
			}

			break;
	}
}
     9bc:	df 91       	pop	r29
     9be:	cf 91       	pop	r28
			if (USB_ControlRequest.bmRequestType == (REQDIR_HOSTTODEVICE | REQTYPE_CLASS | REQREC_INTERFACE))
			{
				Endpoint_ClearSETUP();
				Endpoint_ClearStatusStage();

				EVENT_CDC_Device_BreakSent(CDCInterfaceInfo, (uint8_t)USB_ControlRequest.wValue);
     9c0:	52 cf       	rjmp	.-348    	; 0x866 <CDC_Device_Event_Stub>
			}

			break;
	}
}
     9c2:	df 91       	pop	r29
     9c4:	cf 91       	pop	r28
     9c6:	08 95       	ret

000009c8 <Endpoint_Write_Stream_LE>:
		else if (USB_DeviceState_LCL == DEVICE_STATE_Suspended)
		  return ENDPOINT_RWCSTREAM_BusSuspended;
	}

	return ENDPOINT_RWCSTREAM_NoError;
}
     9c8:	cf 92       	push	r12
     9ca:	df 92       	push	r13
     9cc:	ef 92       	push	r14
     9ce:	ff 92       	push	r15
     9d0:	0f 93       	push	r16
     9d2:	1f 93       	push	r17
     9d4:	cf 93       	push	r28
     9d6:	df 93       	push	r29
     9d8:	ec 01       	movw	r28, r24
     9da:	8b 01       	movw	r16, r22
     9dc:	6a 01       	movw	r12, r20
     9de:	9d d1       	rcall	.+826    	; 0xd1a <Endpoint_WaitUntilReady>
     9e0:	81 11       	cpse	r24, r1
     9e2:	32 c0       	rjmp	.+100    	; 0xa48 <Endpoint_Write_Stream_LE+0x80>
     9e4:	c1 14       	cp	r12, r1
     9e6:	d1 04       	cpc	r13, r1
     9e8:	39 f0       	breq	.+14     	; 0x9f8 <Endpoint_Write_Stream_LE+0x30>
     9ea:	f6 01       	movw	r30, r12
     9ec:	80 81       	ld	r24, Z
     9ee:	91 81       	ldd	r25, Z+1	; 0x01
     9f0:	08 1b       	sub	r16, r24
     9f2:	19 0b       	sbc	r17, r25
     9f4:	c8 0f       	add	r28, r24
     9f6:	d9 1f       	adc	r29, r25
     9f8:	e1 2c       	mov	r14, r1
     9fa:	f1 2c       	mov	r15, r1
     9fc:	01 15       	cp	r16, r1
     9fe:	11 05       	cpc	r17, r1
     a00:	11 f1       	breq	.+68     	; 0xa46 <Endpoint_Write_Stream_LE+0x7e>
     a02:	80 91 e8 00 	lds	r24, 0x00E8
     a06:	85 fd       	sbrc	r24, 5
     a08:	15 c0       	rjmp	.+42     	; 0xa34 <Endpoint_Write_Stream_LE+0x6c>
     a0a:	80 91 e8 00 	lds	r24, 0x00E8
     a0e:	8e 77       	andi	r24, 0x7E	; 126
     a10:	80 93 e8 00 	sts	0x00E8, r24
     a14:	c1 14       	cp	r12, r1
     a16:	d1 04       	cpc	r13, r1
     a18:	49 f0       	breq	.+18     	; 0xa2c <Endpoint_Write_Stream_LE+0x64>
     a1a:	f6 01       	movw	r30, r12
     a1c:	80 81       	ld	r24, Z
     a1e:	91 81       	ldd	r25, Z+1	; 0x01
     a20:	e8 0e       	add	r14, r24
     a22:	f9 1e       	adc	r15, r25
     a24:	f1 82       	std	Z+1, r15	; 0x01
     a26:	e0 82       	st	Z, r14
     a28:	85 e0       	ldi	r24, 0x05	; 5
     a2a:	0e c0       	rjmp	.+28     	; 0xa48 <Endpoint_Write_Stream_LE+0x80>
     a2c:	76 d1       	rcall	.+748    	; 0xd1a <Endpoint_WaitUntilReady>
     a2e:	88 23       	and	r24, r24
     a30:	29 f3       	breq	.-54     	; 0x9fc <Endpoint_Write_Stream_LE+0x34>
     a32:	0a c0       	rjmp	.+20     	; 0xa48 <Endpoint_Write_Stream_LE+0x80>
     a34:	89 91       	ld	r24, Y+
     a36:	80 93 f1 00 	sts	0x00F1, r24
     a3a:	01 50       	subi	r16, 0x01	; 1
     a3c:	11 09       	sbc	r17, r1
     a3e:	ff ef       	ldi	r31, 0xFF	; 255
     a40:	ef 1a       	sub	r14, r31
     a42:	ff 0a       	sbc	r15, r31
     a44:	db cf       	rjmp	.-74     	; 0x9fc <Endpoint_Write_Stream_LE+0x34>
     a46:	80 e0       	ldi	r24, 0x00	; 0
     a48:	df 91       	pop	r29
     a4a:	cf 91       	pop	r28
     a4c:	1f 91       	pop	r17
     a4e:	0f 91       	pop	r16
     a50:	ff 90       	pop	r15
     a52:	ef 90       	pop	r14
     a54:	df 90       	pop	r13
     a56:	cf 90       	pop	r12
     a58:	08 95       	ret

00000a5a <Endpoint_Write_Control_Stream_LE>:
     a5a:	20 91 36 02 	lds	r18, 0x0236
     a5e:	30 91 37 02 	lds	r19, 0x0237
     a62:	26 17       	cp	r18, r22
     a64:	37 07       	cpc	r19, r23
     a66:	48 f0       	brcs	.+18     	; 0xa7a <Endpoint_Write_Control_Stream_LE+0x20>
     a68:	61 15       	cp	r22, r1
     a6a:	71 05       	cpc	r23, r1
     a6c:	39 f4       	brne	.+14     	; 0xa7c <Endpoint_Write_Control_Stream_LE+0x22>
     a6e:	20 91 e8 00 	lds	r18, 0x00E8
     a72:	2e 77       	andi	r18, 0x7E	; 126
     a74:	20 93 e8 00 	sts	0x00E8, r18
     a78:	01 c0       	rjmp	.+2      	; 0xa7c <Endpoint_Write_Control_Stream_LE+0x22>
     a7a:	b9 01       	movw	r22, r18
     a7c:	40 e0       	ldi	r20, 0x00	; 0
     a7e:	61 15       	cp	r22, r1
     a80:	71 05       	cpc	r23, r1
     a82:	a9 f1       	breq	.+106    	; 0xaee <Endpoint_Write_Control_Stream_LE+0x94>
     a84:	20 91 2f 02 	lds	r18, 0x022F
     a88:	22 23       	and	r18, r18
     a8a:	09 f4       	brne	.+2      	; 0xa8e <Endpoint_Write_Control_Stream_LE+0x34>
     a8c:	43 c0       	rjmp	.+134    	; 0xb14 <__stack+0x15>
     a8e:	25 30       	cpi	r18, 0x05	; 5
     a90:	09 f4       	brne	.+2      	; 0xa94 <Endpoint_Write_Control_Stream_LE+0x3a>
     a92:	42 c0       	rjmp	.+132    	; 0xb18 <__stack+0x19>
     a94:	20 91 e8 00 	lds	r18, 0x00E8
     a98:	23 fd       	sbrc	r18, 3
     a9a:	40 c0       	rjmp	.+128    	; 0xb1c <__stack+0x1d>
     a9c:	20 91 e8 00 	lds	r18, 0x00E8
     aa0:	22 fd       	sbrc	r18, 2
     aa2:	32 c0       	rjmp	.+100    	; 0xb08 <__stack+0x9>
     aa4:	20 91 e8 00 	lds	r18, 0x00E8
     aa8:	20 ff       	sbrs	r18, 0
     aaa:	e9 cf       	rjmp	.-46     	; 0xa7e <Endpoint_Write_Control_Stream_LE+0x24>
     aac:	40 91 f3 00 	lds	r20, 0x00F3
     ab0:	20 91 f2 00 	lds	r18, 0x00F2
     ab4:	30 e0       	ldi	r19, 0x00	; 0
     ab6:	34 2b       	or	r19, r20
     ab8:	fc 01       	movw	r30, r24
     aba:	cf 01       	movw	r24, r30
     abc:	61 15       	cp	r22, r1
     abe:	71 05       	cpc	r23, r1
     ac0:	59 f0       	breq	.+22     	; 0xad8 <Endpoint_Write_Control_Stream_LE+0x7e>
     ac2:	28 30       	cpi	r18, 0x08	; 8
     ac4:	31 05       	cpc	r19, r1
     ac6:	40 f4       	brcc	.+16     	; 0xad8 <Endpoint_Write_Control_Stream_LE+0x7e>
     ac8:	81 91       	ld	r24, Z+
     aca:	80 93 f1 00 	sts	0x00F1, r24
     ace:	61 50       	subi	r22, 0x01	; 1
     ad0:	71 09       	sbc	r23, r1
     ad2:	2f 5f       	subi	r18, 0xFF	; 255
     ad4:	3f 4f       	sbci	r19, 0xFF	; 255
     ad6:	f1 cf       	rjmp	.-30     	; 0xaba <Endpoint_Write_Control_Stream_LE+0x60>
     ad8:	41 e0       	ldi	r20, 0x01	; 1
     ada:	28 30       	cpi	r18, 0x08	; 8
     adc:	31 05       	cpc	r19, r1
     ade:	09 f0       	breq	.+2      	; 0xae2 <Endpoint_Write_Control_Stream_LE+0x88>
     ae0:	40 e0       	ldi	r20, 0x00	; 0
     ae2:	20 91 e8 00 	lds	r18, 0x00E8
     ae6:	2e 77       	andi	r18, 0x7E	; 126
     ae8:	20 93 e8 00 	sts	0x00E8, r18
     aec:	c8 cf       	rjmp	.-112    	; 0xa7e <Endpoint_Write_Control_Stream_LE+0x24>
     aee:	41 11       	cpse	r20, r1
     af0:	c9 cf       	rjmp	.-110    	; 0xa84 <Endpoint_Write_Control_Stream_LE+0x2a>
     af2:	0a c0       	rjmp	.+20     	; 0xb08 <__stack+0x9>
     af4:	80 91 2f 02 	lds	r24, 0x022F
     af8:	88 23       	and	r24, r24
     afa:	61 f0       	breq	.+24     	; 0xb14 <__stack+0x15>
     afc:	85 30       	cpi	r24, 0x05	; 5
     afe:	61 f0       	breq	.+24     	; 0xb18 <__stack+0x19>
     b00:	80 91 e8 00 	lds	r24, 0x00E8
     b04:	83 fd       	sbrc	r24, 3
     b06:	0a c0       	rjmp	.+20     	; 0xb1c <__stack+0x1d>
     b08:	80 91 e8 00 	lds	r24, 0x00E8
     b0c:	82 ff       	sbrs	r24, 2
     b0e:	f2 cf       	rjmp	.-28     	; 0xaf4 <Endpoint_Write_Control_Stream_LE+0x9a>
     b10:	80 e0       	ldi	r24, 0x00	; 0
     b12:	08 95       	ret
     b14:	82 e0       	ldi	r24, 0x02	; 2
     b16:	08 95       	ret
     b18:	83 e0       	ldi	r24, 0x03	; 3
     b1a:	08 95       	ret
     b1c:	81 e0       	ldi	r24, 0x01	; 1
     b1e:	08 95       	ret

00000b20 <Endpoint_Write_Control_PStream_LE>:
                            uint16_t Length)
{
	uint8_t* DataStream     = ((uint8_t*)Buffer + TEMPLATE_BUFFER_OFFSET(Length));
	bool     LastPacketFull = false;

	if (Length > USB_ControlRequest.wLength)
     b20:	20 91 36 02 	lds	r18, 0x0236
     b24:	30 91 37 02 	lds	r19, 0x0237
     b28:	26 17       	cp	r18, r22
     b2a:	37 07       	cpc	r19, r23
     b2c:	48 f0       	brcs	.+18     	; 0xb40 <Endpoint_Write_Control_PStream_LE+0x20>
	  Length = USB_ControlRequest.wLength;
	else if (!(Length))
     b2e:	61 15       	cp	r22, r1
     b30:	71 05       	cpc	r23, r1
     b32:	39 f4       	brne	.+14     	; 0xb42 <Endpoint_Write_Control_PStream_LE+0x22>
			 */
			static inline void Endpoint_ClearIN(void) ATTR_ALWAYS_INLINE;
			static inline void Endpoint_ClearIN(void)
			{
				#if !defined(CONTROL_ONLY_DEVICE)
					UEINTX &= ~((1 << TXINI) | (1 << FIFOCON));
     b34:	20 91 e8 00 	lds	r18, 0x00E8
     b38:	2e 77       	andi	r18, 0x7E	; 126
     b3a:	20 93 e8 00 	sts	0x00E8, r18
     b3e:	01 c0       	rjmp	.+2      	; 0xb42 <Endpoint_Write_Control_PStream_LE+0x22>
     b40:	b9 01       	movw	r22, r18
     b42:	fc 01       	movw	r30, r24
     b44:	20 e0       	ldi	r18, 0x00	; 0
	  Endpoint_ClearIN();

	while (Length || LastPacketFull)
     b46:	61 15       	cp	r22, r1
     b48:	71 05       	cpc	r23, r1
     b4a:	91 f1       	breq	.+100    	; 0xbb0 <Endpoint_Write_Control_PStream_LE+0x90>
	{
		uint8_t USB_DeviceState_LCL = USB_DeviceState;
     b4c:	80 91 2f 02 	lds	r24, 0x022F

		if (USB_DeviceState_LCL == DEVICE_STATE_Unattached)
     b50:	88 23       	and	r24, r24
     b52:	09 f4       	brne	.+2      	; 0xb56 <Endpoint_Write_Control_PStream_LE+0x36>
     b54:	40 c0       	rjmp	.+128    	; 0xbd6 <Endpoint_Write_Control_PStream_LE+0xb6>
		  return ENDPOINT_RWCSTREAM_DeviceDisconnected;
		else if (USB_DeviceState_LCL == DEVICE_STATE_Suspended)
     b56:	85 30       	cpi	r24, 0x05	; 5
     b58:	09 f4       	brne	.+2      	; 0xb5c <Endpoint_Write_Control_PStream_LE+0x3c>
     b5a:	3f c0       	rjmp	.+126    	; 0xbda <Endpoint_Write_Control_PStream_LE+0xba>
			 *  \return Boolean \c true if the selected endpoint has received a SETUP packet, \c false otherwise.
			 */
			static inline bool Endpoint_IsSETUPReceived(void) ATTR_WARN_UNUSED_RESULT ATTR_ALWAYS_INLINE;
			static inline bool Endpoint_IsSETUPReceived(void)
			{
				return ((UEINTX & (1 << RXSTPI)) ? true : false);
     b5c:	80 91 e8 00 	lds	r24, 0x00E8
		  return ENDPOINT_RWCSTREAM_BusSuspended;
		else if (Endpoint_IsSETUPReceived())
     b60:	83 fd       	sbrc	r24, 3
     b62:	3d c0       	rjmp	.+122    	; 0xbde <Endpoint_Write_Control_PStream_LE+0xbe>
			 *  \return Boolean \c true if current endpoint is has received an OUT packet, \c false otherwise.
			 */
			static inline bool Endpoint_IsOUTReceived(void) ATTR_WARN_UNUSED_RESULT ATTR_ALWAYS_INLINE;
			static inline bool Endpoint_IsOUTReceived(void)
			{
				return ((UEINTX & (1 << RXOUTI)) ? true : false);
     b64:	80 91 e8 00 	lds	r24, 0x00E8
		  return ENDPOINT_RWCSTREAM_HostAborted;
		else if (Endpoint_IsOUTReceived())
     b68:	82 fd       	sbrc	r24, 2
     b6a:	2f c0       	rjmp	.+94     	; 0xbca <Endpoint_Write_Control_PStream_LE+0xaa>
			 *  \return Boolean \c true if the current endpoint is ready for an IN packet, \c false otherwise.
			 */
			static inline bool Endpoint_IsINReady(void) ATTR_WARN_UNUSED_RESULT ATTR_ALWAYS_INLINE;
			static inline bool Endpoint_IsINReady(void)
			{
				return ((UEINTX & (1 << TXINI)) ? true : false);
     b6c:	80 91 e8 00 	lds	r24, 0x00E8
		  break;

		if (Endpoint_IsINReady())
     b70:	80 ff       	sbrs	r24, 0
     b72:	e9 cf       	rjmp	.-46     	; 0xb46 <Endpoint_Write_Control_PStream_LE+0x26>
			static inline uint16_t Endpoint_BytesInEndpoint(void)
			{
				#if (defined(USB_SERIES_6_AVR) || defined(USB_SERIES_7_AVR))
					return UEBCX;
				#elif defined(USB_SERIES_4_AVR)
					return (((uint16_t)UEBCHX << 8) | UEBCLX);
     b74:	20 91 f3 00 	lds	r18, 0x00F3
     b78:	80 91 f2 00 	lds	r24, 0x00F2
     b7c:	90 e0       	ldi	r25, 0x00	; 0
     b7e:	92 2b       	or	r25, r18
		{
			uint16_t BytesInEndpoint = Endpoint_BytesInEndpoint();

			while (Length && (BytesInEndpoint < USB_Device_ControlEndpointSize))
     b80:	61 15       	cp	r22, r1
     b82:	71 05       	cpc	r23, r1
     b84:	59 f0       	breq	.+22     	; 0xb9c <Endpoint_Write_Control_PStream_LE+0x7c>
     b86:	88 30       	cpi	r24, 0x08	; 8
     b88:	91 05       	cpc	r25, r1
     b8a:	40 f4       	brcc	.+16     	; 0xb9c <Endpoint_Write_Control_PStream_LE+0x7c>
			{
				TEMPLATE_TRANSFER_BYTE(DataStream);
     b8c:	24 91       	lpm	r18, Z
			 *  \param[in] Data  Data to write into the the currently selected endpoint's FIFO buffer.
			 */
			static inline void Endpoint_Write_8(const uint8_t Data) ATTR_ALWAYS_INLINE;
			static inline void Endpoint_Write_8(const uint8_t Data)
			{
				UEDATX = Data;
     b8e:	20 93 f1 00 	sts	0x00F1, r18
				TEMPLATE_BUFFER_MOVE(DataStream, 1);
     b92:	31 96       	adiw	r30, 0x01	; 1
				Length--;
     b94:	61 50       	subi	r22, 0x01	; 1
     b96:	71 09       	sbc	r23, r1
				BytesInEndpoint++;
     b98:	01 96       	adiw	r24, 0x01	; 1
     b9a:	f2 cf       	rjmp	.-28     	; 0xb80 <Endpoint_Write_Control_PStream_LE+0x60>
			}

			LastPacketFull = (BytesInEndpoint == USB_Device_ControlEndpointSize);
     b9c:	21 e0       	ldi	r18, 0x01	; 1
     b9e:	08 97       	sbiw	r24, 0x08	; 8
     ba0:	09 f0       	breq	.+2      	; 0xba4 <Endpoint_Write_Control_PStream_LE+0x84>
     ba2:	20 e0       	ldi	r18, 0x00	; 0
			 */
			static inline void Endpoint_ClearIN(void) ATTR_ALWAYS_INLINE;
			static inline void Endpoint_ClearIN(void)
			{
				#if !defined(CONTROL_ONLY_DEVICE)
					UEINTX &= ~((1 << TXINI) | (1 << FIFOCON));
     ba4:	80 91 e8 00 	lds	r24, 0x00E8
     ba8:	8e 77       	andi	r24, 0x7E	; 126
     baa:	80 93 e8 00 	sts	0x00E8, r24
     bae:	cb cf       	rjmp	.-106    	; 0xb46 <Endpoint_Write_Control_PStream_LE+0x26>
	if (Length > USB_ControlRequest.wLength)
	  Length = USB_ControlRequest.wLength;
	else if (!(Length))
	  Endpoint_ClearIN();

	while (Length || LastPacketFull)
     bb0:	21 11       	cpse	r18, r1
     bb2:	cc cf       	rjmp	.-104    	; 0xb4c <Endpoint_Write_Control_PStream_LE+0x2c>
     bb4:	0a c0       	rjmp	.+20     	; 0xbca <Endpoint_Write_Control_PStream_LE+0xaa>
		}
	}

	while (!(Endpoint_IsOUTReceived()))
	{
		uint8_t USB_DeviceState_LCL = USB_DeviceState;
     bb6:	80 91 2f 02 	lds	r24, 0x022F

		if (USB_DeviceState_LCL == DEVICE_STATE_Unattached)
     bba:	88 23       	and	r24, r24
     bbc:	61 f0       	breq	.+24     	; 0xbd6 <Endpoint_Write_Control_PStream_LE+0xb6>
		  return ENDPOINT_RWCSTREAM_DeviceDisconnected;
		else if (USB_DeviceState_LCL == DEVICE_STATE_Suspended)
     bbe:	85 30       	cpi	r24, 0x05	; 5
     bc0:	61 f0       	breq	.+24     	; 0xbda <Endpoint_Write_Control_PStream_LE+0xba>
			 *  \return Boolean \c true if the selected endpoint has received a SETUP packet, \c false otherwise.
			 */
			static inline bool Endpoint_IsSETUPReceived(void) ATTR_WARN_UNUSED_RESULT ATTR_ALWAYS_INLINE;
			static inline bool Endpoint_IsSETUPReceived(void)
			{
				return ((UEINTX & (1 << RXSTPI)) ? true : false);
     bc2:	80 91 e8 00 	lds	r24, 0x00E8
		  return ENDPOINT_RWCSTREAM_BusSuspended;
		else if (Endpoint_IsSETUPReceived())
     bc6:	83 fd       	sbrc	r24, 3
     bc8:	0a c0       	rjmp	.+20     	; 0xbde <Endpoint_Write_Control_PStream_LE+0xbe>
			 *  \return Boolean \c true if current endpoint is has received an OUT packet, \c false otherwise.
			 */
			static inline bool Endpoint_IsOUTReceived(void) ATTR_WARN_UNUSED_RESULT ATTR_ALWAYS_INLINE;
			static inline bool Endpoint_IsOUTReceived(void)
			{
				return ((UEINTX & (1 << RXOUTI)) ? true : false);
     bca:	80 91 e8 00 	lds	r24, 0x00E8
			LastPacketFull = (BytesInEndpoint == USB_Device_ControlEndpointSize);
			Endpoint_ClearIN();
		}
	}

	while (!(Endpoint_IsOUTReceived()))
     bce:	82 ff       	sbrs	r24, 2
     bd0:	f2 cf       	rjmp	.-28     	; 0xbb6 <Endpoint_Write_Control_PStream_LE+0x96>
		  return ENDPOINT_RWCSTREAM_BusSuspended;
		else if (Endpoint_IsSETUPReceived())
		  return ENDPOINT_RWCSTREAM_HostAborted;
	}

	return ENDPOINT_RWCSTREAM_NoError;
     bd2:	80 e0       	ldi	r24, 0x00	; 0
     bd4:	08 95       	ret
	while (Length || LastPacketFull)
	{
		uint8_t USB_DeviceState_LCL = USB_DeviceState;

		if (USB_DeviceState_LCL == DEVICE_STATE_Unattached)
		  return ENDPOINT_RWCSTREAM_DeviceDisconnected;
     bd6:	82 e0       	ldi	r24, 0x02	; 2
     bd8:	08 95       	ret
		else if (USB_DeviceState_LCL == DEVICE_STATE_Suspended)
		  return ENDPOINT_RWCSTREAM_BusSuspended;
     bda:	83 e0       	ldi	r24, 0x03	; 3
     bdc:	08 95       	ret
		else if (Endpoint_IsSETUPReceived())
		  return ENDPOINT_RWCSTREAM_HostAborted;
     bde:	81 e0       	ldi	r24, 0x01	; 1
		else if (Endpoint_IsSETUPReceived())
		  return ENDPOINT_RWCSTREAM_HostAborted;
	}

	return ENDPOINT_RWCSTREAM_NoError;
}
     be0:	08 95       	ret

00000be2 <Endpoint_ConfigureEndpoint_Prv>:
		UEIENX  = 0;
		UEINTX  = 0;
		UECFG1X = 0;
		Endpoint_DisableEndpoint();
	}
}
     be2:	98 2f       	mov	r25, r24
     be4:	97 30       	cpi	r25, 0x07	; 7
     be6:	58 f5       	brcc	.+86     	; 0xc3e <Endpoint_ConfigureEndpoint_Prv+0x5c>
     be8:	90 93 e9 00 	sts	0x00E9, r25
     bec:	98 17       	cp	r25, r24
     bee:	39 f0       	breq	.+14     	; 0xbfe <Endpoint_ConfigureEndpoint_Prv+0x1c>
     bf0:	70 91 ec 00 	lds	r23, 0x00EC
     bf4:	20 91 ed 00 	lds	r18, 0x00ED
     bf8:	50 91 f0 00 	lds	r21, 0x00F0
     bfc:	03 c0       	rjmp	.+6      	; 0xc04 <Endpoint_ConfigureEndpoint_Prv+0x22>
     bfe:	24 2f       	mov	r18, r20
     c00:	76 2f       	mov	r23, r22
     c02:	50 e0       	ldi	r21, 0x00	; 0
     c04:	21 ff       	sbrs	r18, 1
     c06:	19 c0       	rjmp	.+50     	; 0xc3a <Endpoint_ConfigureEndpoint_Prv+0x58>
     c08:	30 91 eb 00 	lds	r19, 0x00EB
     c0c:	3e 7f       	andi	r19, 0xFE	; 254
     c0e:	30 93 eb 00 	sts	0x00EB, r19
     c12:	30 91 ed 00 	lds	r19, 0x00ED
     c16:	3d 7f       	andi	r19, 0xFD	; 253
     c18:	30 93 ed 00 	sts	0x00ED, r19
     c1c:	30 91 eb 00 	lds	r19, 0x00EB
     c20:	31 60       	ori	r19, 0x01	; 1
     c22:	30 93 eb 00 	sts	0x00EB, r19
     c26:	70 93 ec 00 	sts	0x00EC, r23
     c2a:	20 93 ed 00 	sts	0x00ED, r18
     c2e:	50 93 f0 00 	sts	0x00F0, r21
     c32:	20 91 ee 00 	lds	r18, 0x00EE
     c36:	27 ff       	sbrs	r18, 7
     c38:	07 c0       	rjmp	.+14     	; 0xc48 <Endpoint_ConfigureEndpoint_Prv+0x66>
     c3a:	9f 5f       	subi	r25, 0xFF	; 255
     c3c:	d3 cf       	rjmp	.-90     	; 0xbe4 <Endpoint_ConfigureEndpoint_Prv+0x2>
     c3e:	8f 70       	andi	r24, 0x0F	; 15
     c40:	80 93 e9 00 	sts	0x00E9, r24
     c44:	81 e0       	ldi	r24, 0x01	; 1
     c46:	08 95       	ret
     c48:	80 e0       	ldi	r24, 0x00	; 0
     c4a:	08 95       	ret

00000c4c <Endpoint_ConfigureEndpointTable>:
     c4c:	ef 92       	push	r14
     c4e:	ff 92       	push	r15
     c50:	0f 93       	push	r16
     c52:	1f 93       	push	r17
     c54:	cf 93       	push	r28
     c56:	df 93       	push	r29
     c58:	e6 2e       	mov	r14, r22
     c5a:	ec 01       	movw	r28, r24
     c5c:	8c 01       	movw	r16, r24
     c5e:	0c 5f       	subi	r16, 0xFC	; 252
     c60:	1f 4f       	sbci	r17, 0xFF	; 255
     c62:	f1 2c       	mov	r15, r1
     c64:	fe 14       	cp	r15, r14
     c66:	91 f1       	breq	.+100    	; 0xccc <Endpoint_ConfigureEndpointTable+0x80>
     c68:	58 81       	ld	r21, Y
     c6a:	55 23       	and	r21, r21
     c6c:	51 f1       	breq	.+84     	; 0xcc2 <Endpoint_ConfigureEndpointTable+0x76>
     c6e:	f8 01       	movw	r30, r16
     c70:	20 81       	ld	r18, Z
     c72:	69 81       	ldd	r22, Y+1	; 0x01
     c74:	7a 81       	ldd	r23, Y+2	; 0x02
     c76:	31 97       	sbiw	r30, 0x01	; 1
     c78:	90 81       	ld	r25, Z
     c7a:	85 2f       	mov	r24, r21
     c7c:	8f 70       	andi	r24, 0x0F	; 15
     c7e:	87 30       	cpi	r24, 0x07	; 7
     c80:	10 f0       	brcs	.+4      	; 0xc86 <Endpoint_ConfigureEndpointTable+0x3a>
     c82:	80 e0       	ldi	r24, 0x00	; 0
     c84:	24 c0       	rjmp	.+72     	; 0xcce <Endpoint_ConfigureEndpointTable+0x82>
     c86:	22 30       	cpi	r18, 0x02	; 2
     c88:	10 f4       	brcc	.+4      	; 0xc8e <Endpoint_ConfigureEndpointTable+0x42>
     c8a:	42 e0       	ldi	r20, 0x02	; 2
     c8c:	01 c0       	rjmp	.+2      	; 0xc90 <Endpoint_ConfigureEndpointTable+0x44>
     c8e:	46 e0       	ldi	r20, 0x06	; 6
     c90:	e8 e0       	ldi	r30, 0x08	; 8
     c92:	f0 e0       	ldi	r31, 0x00	; 0
     c94:	20 e0       	ldi	r18, 0x00	; 0
     c96:	e6 17       	cp	r30, r22
     c98:	f7 07       	cpc	r31, r23
     c9a:	20 f4       	brcc	.+8      	; 0xca4 <Endpoint_ConfigureEndpointTable+0x58>
     c9c:	2f 5f       	subi	r18, 0xFF	; 255
     c9e:	ee 0f       	add	r30, r30
     ca0:	ff 1f       	adc	r31, r31
     ca2:	f9 cf       	rjmp	.-14     	; 0xc96 <Endpoint_ConfigureEndpointTable+0x4a>
     ca4:	22 95       	swap	r18
     ca6:	20 7f       	andi	r18, 0xF0	; 240
     ca8:	42 2b       	or	r20, r18
     caa:	f0 e4       	ldi	r31, 0x40	; 64
     cac:	9f 9f       	mul	r25, r31
     cae:	90 01       	movw	r18, r0
     cb0:	11 24       	eor	r1, r1
     cb2:	55 1f       	adc	r21, r21
     cb4:	55 27       	eor	r21, r21
     cb6:	55 1f       	adc	r21, r21
     cb8:	65 2f       	mov	r22, r21
     cba:	62 2b       	or	r22, r18
     cbc:	92 df       	rcall	.-220    	; 0xbe2 <Endpoint_ConfigureEndpoint_Prv>
     cbe:	88 23       	and	r24, r24
     cc0:	01 f3       	breq	.-64     	; 0xc82 <Endpoint_ConfigureEndpointTable+0x36>
     cc2:	f3 94       	inc	r15
     cc4:	25 96       	adiw	r28, 0x05	; 5
     cc6:	0b 5f       	subi	r16, 0xFB	; 251
     cc8:	1f 4f       	sbci	r17, 0xFF	; 255
     cca:	cc cf       	rjmp	.-104    	; 0xc64 <Endpoint_ConfigureEndpointTable+0x18>
     ccc:	81 e0       	ldi	r24, 0x01	; 1
     cce:	df 91       	pop	r29
     cd0:	cf 91       	pop	r28
     cd2:	1f 91       	pop	r17
     cd4:	0f 91       	pop	r16
     cd6:	ff 90       	pop	r15
     cd8:	ef 90       	pop	r14
     cda:	08 95       	ret

00000cdc <Endpoint_ClearStatusStage>:

void Endpoint_ClearStatusStage(void)
{
	if (USB_ControlRequest.bmRequestType & REQDIR_DEVICETOHOST)
     cdc:	80 91 30 02 	lds	r24, 0x0230
     ce0:	87 ff       	sbrs	r24, 7
     ce2:	11 c0       	rjmp	.+34     	; 0xd06 <Endpoint_ClearStatusStage+0x2a>
			 *  \return Boolean \c true if current endpoint is has received an OUT packet, \c false otherwise.
			 */
			static inline bool Endpoint_IsOUTReceived(void) ATTR_WARN_UNUSED_RESULT ATTR_ALWAYS_INLINE;
			static inline bool Endpoint_IsOUTReceived(void)
			{
				return ((UEINTX & (1 << RXOUTI)) ? true : false);
     ce4:	80 91 e8 00 	lds	r24, 0x00E8
	{
		while (!(Endpoint_IsOUTReceived()))
     ce8:	82 fd       	sbrc	r24, 2
     cea:	05 c0       	rjmp	.+10     	; 0xcf6 <Endpoint_ClearStatusStage+0x1a>
		{
			if (USB_DeviceState == DEVICE_STATE_Unattached)
     cec:	80 91 2f 02 	lds	r24, 0x022F
     cf0:	81 11       	cpse	r24, r1
     cf2:	f8 cf       	rjmp	.-16     	; 0xce4 <Endpoint_ClearStatusStage+0x8>
     cf4:	11 c0       	rjmp	.+34     	; 0xd18 <Endpoint_ClearStatusStage+0x3c>
			 */
			static inline void Endpoint_ClearOUT(void) ATTR_ALWAYS_INLINE;
			static inline void Endpoint_ClearOUT(void)
			{
				#if !defined(CONTROL_ONLY_DEVICE)
					UEINTX &= ~((1 << RXOUTI) | (1 << FIFOCON));
     cf6:	80 91 e8 00 	lds	r24, 0x00E8
     cfa:	8b 77       	andi	r24, 0x7B	; 123
     cfc:	0b c0       	rjmp	.+22     	; 0xd14 <Endpoint_ClearStatusStage+0x38>
	}
	else
	{
		while (!(Endpoint_IsINReady()))
		{
			if (USB_DeviceState == DEVICE_STATE_Unattached)
     cfe:	80 91 2f 02 	lds	r24, 0x022F
     d02:	88 23       	and	r24, r24
     d04:	49 f0       	breq	.+18     	; 0xd18 <Endpoint_ClearStatusStage+0x3c>
			 *  \return Boolean \c true if the current endpoint is ready for an IN packet, \c false otherwise.
			 */
			static inline bool Endpoint_IsINReady(void) ATTR_WARN_UNUSED_RESULT ATTR_ALWAYS_INLINE;
			static inline bool Endpoint_IsINReady(void)
			{
				return ((UEINTX & (1 << TXINI)) ? true : false);
     d06:	80 91 e8 00 	lds	r24, 0x00E8

		Endpoint_ClearOUT();
	}
	else
	{
		while (!(Endpoint_IsINReady()))
     d0a:	80 ff       	sbrs	r24, 0
     d0c:	f8 cf       	rjmp	.-16     	; 0xcfe <Endpoint_ClearStatusStage+0x22>
			 */
			static inline void Endpoint_ClearIN(void) ATTR_ALWAYS_INLINE;
			static inline void Endpoint_ClearIN(void)
			{
				#if !defined(CONTROL_ONLY_DEVICE)
					UEINTX &= ~((1 << TXINI) | (1 << FIFOCON));
     d0e:	80 91 e8 00 	lds	r24, 0x00E8
     d12:	8e 77       	andi	r24, 0x7E	; 126
     d14:	80 93 e8 00 	sts	0x00E8, r24
     d18:	08 95       	ret

00000d1a <Endpoint_WaitUntilReady>:
			 *  \return Current USB frame number from the USB controller.
			 */
			static inline uint16_t USB_Device_GetFrameNumber(void) ATTR_ALWAYS_INLINE ATTR_WARN_UNUSED_RESULT;
			static inline uint16_t USB_Device_GetFrameNumber(void)
			{
				return UDFNUM;
     d1a:	20 91 e4 00 	lds	r18, 0x00E4
     d1e:	30 91 e5 00 	lds	r19, 0x00E5
     d22:	95 e6       	ldi	r25, 0x65	; 101
			 *  \return The currently selected endpoint's direction, as a \c ENDPOINT_DIR_* mask.
			 */
			static inline uint8_t Endpoint_GetEndpointDirection(void) ATTR_WARN_UNUSED_RESULT ATTR_ALWAYS_INLINE;
			static inline uint8_t Endpoint_GetEndpointDirection(void)
			{
				return (UECFG0X & (1 << EPDIR)) ? ENDPOINT_DIR_IN : ENDPOINT_DIR_OUT;
     d24:	40 91 ec 00 	lds	r20, 0x00EC
     d28:	84 2f       	mov	r24, r20
     d2a:	81 70       	andi	r24, 0x01	; 1
     d2c:	40 ff       	sbrs	r20, 0
     d2e:	22 c0       	rjmp	.+68     	; 0xd74 <Endpoint_WaitUntilReady+0x5a>
			 *  \return Boolean \c true if the current endpoint is ready for an IN packet, \c false otherwise.
			 */
			static inline bool Endpoint_IsINReady(void) ATTR_WARN_UNUSED_RESULT ATTR_ALWAYS_INLINE;
			static inline bool Endpoint_IsINReady(void)
			{
				return ((UEINTX & (1 << TXINI)) ? true : false);
     d30:	80 91 e8 00 	lds	r24, 0x00E8

	for (;;)
	{
		if (Endpoint_GetEndpointDirection() == ENDPOINT_DIR_IN)
		{
			if (Endpoint_IsINReady())
     d34:	80 fd       	sbrc	r24, 0
     d36:	1c c0       	rjmp	.+56     	; 0xd70 <Endpoint_WaitUntilReady+0x56>
		{
			if (Endpoint_IsOUTReceived())
			  return ENDPOINT_READYWAIT_NoError;
		}

		uint8_t USB_DeviceState_LCL = USB_DeviceState;
     d38:	80 91 2f 02 	lds	r24, 0x022F

		if (USB_DeviceState_LCL == DEVICE_STATE_Unattached)
     d3c:	88 23       	and	r24, r24
     d3e:	91 f0       	breq	.+36     	; 0xd64 <Endpoint_WaitUntilReady+0x4a>
		  return ENDPOINT_READYWAIT_DeviceDisconnected;
		else if (USB_DeviceState_LCL == DEVICE_STATE_Suspended)
     d40:	85 30       	cpi	r24, 0x05	; 5
     d42:	91 f0       	breq	.+36     	; 0xd68 <Endpoint_WaitUntilReady+0x4e>
			 *  \return Boolean \c true if the currently selected endpoint is stalled, \c false otherwise.
			 */
			static inline bool Endpoint_IsStalled(void) ATTR_WARN_UNUSED_RESULT ATTR_ALWAYS_INLINE;
			static inline bool Endpoint_IsStalled(void)
			{
				return ((UECONX & (1 << STALLRQ)) ? true : false);
     d44:	80 91 eb 00 	lds	r24, 0x00EB
		  return ENDPOINT_READYWAIT_BusSuspended;
		else if (Endpoint_IsStalled())
     d48:	85 fd       	sbrc	r24, 5
     d4a:	10 c0       	rjmp	.+32     	; 0xd6c <Endpoint_WaitUntilReady+0x52>
     d4c:	40 91 e4 00 	lds	r20, 0x00E4
     d50:	50 91 e5 00 	lds	r21, 0x00E5
		  return ENDPOINT_READYWAIT_EndpointStalled;

		uint16_t CurrentFrameNumber = USB_Device_GetFrameNumber();

		if (CurrentFrameNumber != PreviousFrameNumber)
     d54:	42 17       	cp	r20, r18
     d56:	53 07       	cpc	r21, r19
     d58:	29 f3       	breq	.-54     	; 0xd24 <Endpoint_WaitUntilReady+0xa>
     d5a:	9a 01       	movw	r18, r20
     d5c:	91 50       	subi	r25, 0x01	; 1
		{
			PreviousFrameNumber = CurrentFrameNumber;

			if (!(TimeoutMSRem--))
     d5e:	11 f7       	brne	.-60     	; 0xd24 <Endpoint_WaitUntilReady+0xa>
			  return ENDPOINT_READYWAIT_Timeout;
     d60:	84 e0       	ldi	r24, 0x04	; 4
     d62:	08 95       	ret
		}

		uint8_t USB_DeviceState_LCL = USB_DeviceState;

		if (USB_DeviceState_LCL == DEVICE_STATE_Unattached)
		  return ENDPOINT_READYWAIT_DeviceDisconnected;
     d64:	82 e0       	ldi	r24, 0x02	; 2
     d66:	08 95       	ret
		else if (USB_DeviceState_LCL == DEVICE_STATE_Suspended)
		  return ENDPOINT_READYWAIT_BusSuspended;
     d68:	83 e0       	ldi	r24, 0x03	; 3
     d6a:	08 95       	ret
		else if (Endpoint_IsStalled())
		  return ENDPOINT_READYWAIT_EndpointStalled;
     d6c:	81 e0       	ldi	r24, 0x01	; 1
     d6e:	08 95       	ret
	for (;;)
	{
		if (Endpoint_GetEndpointDirection() == ENDPOINT_DIR_IN)
		{
			if (Endpoint_IsINReady())
			  return ENDPOINT_READYWAIT_NoError;
     d70:	80 e0       	ldi	r24, 0x00	; 0
     d72:	08 95       	ret
			 *  \return Boolean \c true if current endpoint is has received an OUT packet, \c false otherwise.
			 */
			static inline bool Endpoint_IsOUTReceived(void) ATTR_WARN_UNUSED_RESULT ATTR_ALWAYS_INLINE;
			static inline bool Endpoint_IsOUTReceived(void)
			{
				return ((UEINTX & (1 << RXOUTI)) ? true : false);
     d74:	40 91 e8 00 	lds	r20, 0x00E8
		}
		else
		{
			if (Endpoint_IsOUTReceived())
     d78:	42 ff       	sbrs	r20, 2
     d7a:	de cf       	rjmp	.-68     	; 0xd38 <Endpoint_WaitUntilReady+0x1e>

			if (!(TimeoutMSRem--))
			  return ENDPOINT_READYWAIT_Timeout;
		}
	}
}
     d7c:	08 95       	ret

00000d7e <USB_ResetInterface>:

	USB_IsInitialized = false;
}

void USB_ResetInterface(void)
{
     d7e:	0f 93       	push	r16
     d80:	1f 93       	push	r17
     d82:	cf 93       	push	r28
     d84:	df 93       	push	r29
	#if defined(USB_CAN_BE_BOTH)
	bool UIDModeSelectEnabled = ((UHWCON & (1 << UIDE)) != 0);
	#endif

	USB_INT_DisableAllInterrupts();
     d86:	4b d0       	rcall	.+150    	; 0xe1e <USB_INT_DisableAllInterrupts>
	USB_INT_ClearAllInterrupts();
     d88:	52 d0       	rcall	.+164    	; 0xe2e <USB_INT_ClearAllInterrupts>
			}

			static inline void USB_Controller_Reset(void) ATTR_ALWAYS_INLINE;
			static inline void USB_Controller_Reset(void)
			{
				USBCON &= ~(1 << USBE);
     d8a:	c8 ed       	ldi	r28, 0xD8	; 216
     d8c:	d0 e0       	ldi	r29, 0x00	; 0
     d8e:	88 81       	ld	r24, Y
     d90:	8f 77       	andi	r24, 0x7F	; 127
     d92:	88 83       	st	Y, r24
				USBCON |=  (1 << USBE);
     d94:	88 81       	ld	r24, Y
     d96:	80 68       	ori	r24, 0x80	; 128
     d98:	88 83       	st	Y, r24
			}

			static inline void USB_CLK_Unfreeze(void) ATTR_ALWAYS_INLINE;
			static inline void USB_CLK_Unfreeze(void)
			{
				USBCON &= ~(1 << FRZCLK);
     d9a:	88 81       	ld	r24, Y
     d9c:	8f 7d       	andi	r24, 0xDF	; 223
     d9e:	88 83       	st	Y, r24
			}

			static inline void USB_PLL_Off(void) ATTR_ALWAYS_INLINE;
			static inline void USB_PLL_Off(void)
			{
				PLLCSR = 0;
     da0:	19 bc       	out	0x29, r1	; 41
}

#if defined(USB_CAN_BE_DEVICE)
static void USB_Init_Device(void)
{
	USB_DeviceState                 = DEVICE_STATE_Unattached;
     da2:	10 92 2f 02 	sts	0x022F, r1
	USB_Device_ConfigurationNumber  = 0;
     da6:	10 92 2b 02 	sts	0x022B, r1

	#if !defined(NO_DEVICE_REMOTE_WAKEUP)
	USB_Device_RemoteWakeupEnabled  = false;
     daa:	10 92 2d 02 	sts	0x022D, r1
	#endif

	#if !defined(NO_DEVICE_SELF_POWER)
	USB_Device_CurrentlySelfPowered = false;
     dae:	10 92 2c 02 	sts	0x022C, r1
			}

			static inline void USB_Device_SetFullSpeed(void) ATTR_ALWAYS_INLINE;
			static inline void USB_Device_SetFullSpeed(void)
			{
				UDCON &= ~(1 << LSM);
     db2:	00 ee       	ldi	r16, 0xE0	; 224
     db4:	10 e0       	ldi	r17, 0x00	; 0
     db6:	f8 01       	movw	r30, r16
     db8:	80 81       	ld	r24, Z
     dba:	8b 7f       	andi	r24, 0xFB	; 251
     dbc:	80 83       	st	Z, r24
			{
				switch (Interrupt)
				{
					#if (defined(USB_SERIES_4_AVR) || defined(USB_SERIES_6_AVR) || defined(USB_SERIES_7_AVR))
					case USB_INT_VBUSTI:
						USBCON |= (1 << VBUSTE);
     dbe:	88 81       	ld	r24, Y
     dc0:	81 60       	ori	r24, 0x01	; 1
     dc2:	88 83       	st	Y, r24
				uint8_t Number = (Address & ENDPOINT_EPNUM_MASK);

				if (Number >= ENDPOINT_TOTAL_ENDPOINTS)
				  return false;

				return Endpoint_ConfigureEndpoint_Prv(Number,
     dc4:	42 e0       	ldi	r20, 0x02	; 2
     dc6:	60 e0       	ldi	r22, 0x00	; 0
     dc8:	80 e0       	ldi	r24, 0x00	; 0
     dca:	0b df       	rcall	.-490    	; 0xbe2 <Endpoint_ConfigureEndpoint_Prv>
					#if defined(USB_CAN_BE_DEVICE)
					case USB_INT_WAKEUPI:
						UDINT  &= ~(1 << WAKEUPI);
						break;
					case USB_INT_SUSPI:
						UDINT  &= ~(1 << SUSPI);
     dcc:	e1 ee       	ldi	r30, 0xE1	; 225
     dce:	f0 e0       	ldi	r31, 0x00	; 0
     dd0:	80 81       	ld	r24, Z
     dd2:	8e 7f       	andi	r24, 0xFE	; 254
     dd4:	80 83       	st	Z, r24
					#if defined(USB_CAN_BE_DEVICE)
					case USB_INT_WAKEUPI:
						UDIEN  |= (1 << WAKEUPE);
						break;
					case USB_INT_SUSPI:
						UDIEN  |= (1 << SUSPE);
     dd6:	e2 ee       	ldi	r30, 0xE2	; 226
     dd8:	f0 e0       	ldi	r31, 0x00	; 0
     dda:	80 81       	ld	r24, Z
     ddc:	81 60       	ori	r24, 0x01	; 1
     dde:	80 83       	st	Z, r24
						break;
					case USB_INT_EORSTI:
						UDIEN  |= (1 << EORSTE);
     de0:	80 81       	ld	r24, Z
     de2:	88 60       	ori	r24, 0x08	; 8
     de4:	80 83       	st	Z, r24
			 *  register and despite the datasheet making no mention of its requirement in host mode.
			 */
			static inline void USB_Attach(void) ATTR_ALWAYS_INLINE;
			static inline void USB_Attach(void)
			{
				UDCON  &= ~(1 << DETACH);
     de6:	f8 01       	movw	r30, r16
     de8:	80 81       	ld	r24, Z
     dea:	8e 7f       	andi	r24, 0xFE	; 254
     dec:	80 83       	st	Z, r24

			#if defined(USB_SERIES_4_AVR) || defined(USB_SERIES_6_AVR) || defined(USB_SERIES_7_AVR)
			static inline void USB_OTGPAD_On(void) ATTR_ALWAYS_INLINE;
			static inline void USB_OTGPAD_On(void)
			{
				USBCON |=  (1 << OTGPADE);
     dee:	88 81       	ld	r24, Y
     df0:	80 61       	ori	r24, 0x10	; 16
     df2:	88 83       	st	Y, r24
	}

	#if (defined(USB_SERIES_4_AVR) || defined(USB_SERIES_6_AVR) || defined(USB_SERIES_7_AVR))
	USB_OTGPAD_On();
	#endif
}
     df4:	df 91       	pop	r29
     df6:	cf 91       	pop	r28
     df8:	1f 91       	pop	r17
     dfa:	0f 91       	pop	r16
     dfc:	08 95       	ret

00000dfe <USB_Init>:
			}

			static inline void USB_OTGPAD_Off(void) ATTR_ALWAYS_INLINE;
			static inline void USB_OTGPAD_Off(void)
			{
				USBCON &= ~(1 << OTGPADE);
     dfe:	e8 ed       	ldi	r30, 0xD8	; 216
     e00:	f0 e0       	ldi	r31, 0x00	; 0
     e02:	80 81       	ld	r24, Z
     e04:	8f 7e       	andi	r24, 0xEF	; 239
     e06:	80 83       	st	Z, r24

			static inline void USB_REG_On(void) ATTR_ALWAYS_INLINE;
			static inline void USB_REG_On(void)
			{
			#if defined(USB_SERIES_4_AVR) || defined(USB_SERIES_6_AVR) || defined(USB_SERIES_7_AVR)
				UHWCON |=  (1 << UVREGE);
     e08:	e7 ed       	ldi	r30, 0xD7	; 215
     e0a:	f0 e0       	ldi	r31, 0x00	; 0
     e0c:	80 81       	ld	r24, Z
     e0e:	81 60       	ori	r24, 0x01	; 1
     e10:	80 83       	st	Z, r24
	  USB_REG_Off();

	if (!(USB_Options & USB_OPT_MANUAL_PLL))
	{
		#if defined(USB_SERIES_4_AVR)
		PLLFRQ = (1 << PDIV2);
     e12:	84 e0       	ldi	r24, 0x04	; 4
     e14:	82 bf       	out	0x32, r24	; 50
		UHWCON &= ~(1 << UIDE);
		USB_CurrentMode = Mode;
	}
	#endif

	USB_IsInitialized = true;
     e16:	81 e0       	ldi	r24, 0x01	; 1
     e18:	80 93 2e 02 	sts	0x022E, r24

	USB_ResetInterface();
     e1c:	b0 cf       	rjmp	.-160    	; 0xd7e <USB_ResetInterface>

00000e1e <USB_INT_DisableAllInterrupts>:
void USB_INT_DisableAllInterrupts(void)
{
	#if defined(USB_SERIES_6_AVR) || defined(USB_SERIES_7_AVR)
	USBCON &= ~((1 << VBUSTE) | (1 << IDTE));
	#elif defined(USB_SERIES_4_AVR)
	USBCON &= ~(1 << VBUSTE);
     e1e:	e8 ed       	ldi	r30, 0xD8	; 216
     e20:	f0 e0       	ldi	r31, 0x00	; 0
     e22:	80 81       	ld	r24, Z
     e24:	8e 7f       	andi	r24, 0xFE	; 254
     e26:	80 83       	st	Z, r24
	#if defined(USB_CAN_BE_HOST)
	UHIEN   = 0;
	#endif

	#if defined(USB_CAN_BE_DEVICE)
	UDIEN   = 0;
     e28:	10 92 e2 00 	sts	0x00E2, r1
     e2c:	08 95       	ret

00000e2e <USB_INT_ClearAllInterrupts>:
}

void USB_INT_ClearAllInterrupts(void)
{
	#if defined(USB_SERIES_4_AVR) || defined(USB_SERIES_6_AVR) || defined(USB_SERIES_7_AVR)
	USBINT = 0;
     e2e:	10 92 da 00 	sts	0x00DA, r1
	#if defined(USB_CAN_BE_HOST)
	UHINT  = 0;
	#endif

	#if defined(USB_CAN_BE_DEVICE)
	UDINT  = 0;
     e32:	10 92 e1 00 	sts	0x00E1, r1
     e36:	08 95       	ret

00000e38 <__vector_10>:
	#endif
}

ISR(USB_GEN_vect, ISR_BLOCK)
{
     e38:	1f 92       	push	r1
     e3a:	0f 92       	push	r0
     e3c:	0f b6       	in	r0, 0x3f	; 63
     e3e:	0f 92       	push	r0
     e40:	11 24       	eor	r1, r1
     e42:	2f 93       	push	r18
     e44:	3f 93       	push	r19
     e46:	4f 93       	push	r20
     e48:	5f 93       	push	r21
     e4a:	6f 93       	push	r22
     e4c:	7f 93       	push	r23
     e4e:	8f 93       	push	r24
     e50:	9f 93       	push	r25
     e52:	af 93       	push	r26
     e54:	bf 93       	push	r27
     e56:	ef 93       	push	r30
     e58:	ff 93       	push	r31
					case USB_INT_SUSPI:
						return (UDINT  & (1 << SUSPI));
					case USB_INT_EORSTI:
						return (UDINT  & (1 << EORSTI));
					case USB_INT_SOFI:
						return (UDINT  & (1 << SOFI));
     e5a:	80 91 e1 00 	lds	r24, 0x00E1
	#if defined(USB_CAN_BE_DEVICE)
	#if !defined(NO_SOF_EVENTS)
	if (USB_INT_HasOccurred(USB_INT_SOFI) && USB_INT_IsEnabled(USB_INT_SOFI))
     e5e:	82 ff       	sbrs	r24, 2
     e60:	0a c0       	rjmp	.+20     	; 0xe76 <__vector_10+0x3e>
					case USB_INT_SUSPI:
						return (UDIEN  & (1 << SUSPE));
					case USB_INT_EORSTI:
						return (UDIEN  & (1 << EORSTE));
					case USB_INT_SOFI:
						return (UDIEN  & (1 << SOFE));
     e62:	80 91 e2 00 	lds	r24, 0x00E2
     e66:	82 ff       	sbrs	r24, 2
     e68:	06 c0       	rjmp	.+12     	; 0xe76 <__vector_10+0x3e>
						break;
					case USB_INT_EORSTI:
						UDINT  &= ~(1 << EORSTI);
						break;
					case USB_INT_SOFI:
						UDINT  &= ~(1 << SOFI);
     e6a:	80 91 e1 00 	lds	r24, 0x00E1
     e6e:	8b 7f       	andi	r24, 0xFB	; 251
     e70:	80 93 e1 00 	sts	0x00E1, r24
	{
		USB_INT_Clear(USB_INT_SOFI);

		EVENT_USB_Device_StartOfFrame();
     e74:	43 d2       	rcall	.+1158   	; 0x12fc <USB_Event_Stub>
			{
				switch (Interrupt)
				{
					#if (defined(USB_SERIES_4_AVR) || defined(USB_SERIES_6_AVR) || defined(USB_SERIES_7_AVR))
					case USB_INT_VBUSTI:
						return (USBINT & (1 << VBUSTI));
     e76:	80 91 da 00 	lds	r24, 0x00DA
	}
	#endif

	#if defined(USB_SERIES_4_AVR) || defined(USB_SERIES_6_AVR) || defined(USB_SERIES_7_AVR)
	if (USB_INT_HasOccurred(USB_INT_VBUSTI) && USB_INT_IsEnabled(USB_INT_VBUSTI))
     e7a:	80 ff       	sbrs	r24, 0
     e7c:	1f c0       	rjmp	.+62     	; 0xebc <__vector_10+0x84>
			{
				switch (Interrupt)
				{
					#if (defined(USB_SERIES_4_AVR) || defined(USB_SERIES_6_AVR) || defined(USB_SERIES_7_AVR))
					case USB_INT_VBUSTI:
						return (USBCON & (1 << VBUSTE));
     e7e:	80 91 d8 00 	lds	r24, 0x00D8
     e82:	80 ff       	sbrs	r24, 0
     e84:	1b c0       	rjmp	.+54     	; 0xebc <__vector_10+0x84>
			{
				switch (Interrupt)
				{
					#if (defined(USB_SERIES_4_AVR) || defined(USB_SERIES_6_AVR) || defined(USB_SERIES_7_AVR))
					case USB_INT_VBUSTI:
						USBINT &= ~(1 << VBUSTI);
     e86:	80 91 da 00 	lds	r24, 0x00DA
     e8a:	8e 7f       	andi	r24, 0xFE	; 254
     e8c:	80 93 da 00 	sts	0x00DA, r24
				 *  \return Boolean \c true if the VBUS line is currently detecting power from a host, \c false otherwise.
				 */
				static inline bool USB_VBUS_GetStatus(void) ATTR_WARN_UNUSED_RESULT ATTR_ALWAYS_INLINE;
				static inline bool USB_VBUS_GetStatus(void)
				{
					return ((USBSTA & (1 << VBUS)) ? true : false);
     e90:	80 91 d9 00 	lds	r24, 0x00D9
	{
		USB_INT_Clear(USB_INT_VBUSTI);

		if (USB_VBUS_GetStatus())
     e94:	80 ff       	sbrs	r24, 0
     e96:	0d c0       	rjmp	.+26     	; 0xeb2 <__vector_10+0x7a>

		/* Inline Functions: */
			static inline void USB_PLL_On(void) ATTR_ALWAYS_INLINE;
			static inline void USB_PLL_On(void)
			{
				PLLCSR = USB_PLL_PSC;
     e98:	80 e1       	ldi	r24, 0x10	; 16
     e9a:	89 bd       	out	0x29, r24	; 41
				PLLCSR = (USB_PLL_PSC | (1 << PLLE));
     e9c:	82 e1       	ldi	r24, 0x12	; 18
     e9e:	89 bd       	out	0x29, r24	; 41
		{
			if (!(USB_Options & USB_OPT_MANUAL_PLL))
			{
				USB_PLL_On();
				while (!(USB_PLL_IsReady()));
     ea0:	09 b4       	in	r0, 0x29	; 41
     ea2:	00 fe       	sbrs	r0, 0
     ea4:	fd cf       	rjmp	.-6      	; 0xea0 <__vector_10+0x68>
			}

			USB_DeviceState = DEVICE_STATE_Powered;
     ea6:	81 e0       	ldi	r24, 0x01	; 1
     ea8:	80 93 2f 02 	sts	0x022F, r24
			EVENT_USB_Device_Connect();
     eac:	0e 94 db 0f 	call	0x1fb6	; 0x1fb6 <EVENT_USB_Device_Connect>
     eb0:	05 c0       	rjmp	.+10     	; 0xebc <__vector_10+0x84>
			}

			static inline void USB_PLL_Off(void) ATTR_ALWAYS_INLINE;
			static inline void USB_PLL_Off(void)
			{
				PLLCSR = 0;
     eb2:	19 bc       	out	0x29, r1	; 41
		else
		{
			if (!(USB_Options & USB_OPT_MANUAL_PLL))
			  USB_PLL_Off();

			USB_DeviceState = DEVICE_STATE_Unattached;
     eb4:	10 92 2f 02 	sts	0x022F, r1
			EVENT_USB_Device_Disconnect();
     eb8:	0e 94 fb 0f 	call	0x1ff6	; 0x1ff6 <EVENT_USB_Device_Disconnect>
					#endif
					#if defined(USB_CAN_BE_DEVICE)
					case USB_INT_WAKEUPI:
						return (UDINT  & (1 << WAKEUPI));
					case USB_INT_SUSPI:
						return (UDINT  & (1 << SUSPI));
     ebc:	80 91 e1 00 	lds	r24, 0x00E1
		}
	}
	#endif

	if (USB_INT_HasOccurred(USB_INT_SUSPI) && USB_INT_IsEnabled(USB_INT_SUSPI))
     ec0:	80 ff       	sbrs	r24, 0
     ec2:	18 c0       	rjmp	.+48     	; 0xef4 <__vector_10+0xbc>
					#endif
					#if defined(USB_CAN_BE_DEVICE)
					case USB_INT_WAKEUPI:
						return (UDIEN  & (1 << WAKEUPE));
					case USB_INT_SUSPI:
						return (UDIEN  & (1 << SUSPE));
     ec4:	80 91 e2 00 	lds	r24, 0x00E2
     ec8:	80 ff       	sbrs	r24, 0
     eca:	14 c0       	rjmp	.+40     	; 0xef4 <__vector_10+0xbc>
					#if defined(USB_CAN_BE_DEVICE)
					case USB_INT_WAKEUPI:
						UDIEN  &= ~(1 << WAKEUPE);
						break;
					case USB_INT_SUSPI:
						UDIEN  &= ~(1 << SUSPE);
     ecc:	80 91 e2 00 	lds	r24, 0x00E2
     ed0:	8e 7f       	andi	r24, 0xFE	; 254
     ed2:	80 93 e2 00 	sts	0x00E2, r24
						USBCON |= (1 << IDTE);
						break;
					#endif
					#if defined(USB_CAN_BE_DEVICE)
					case USB_INT_WAKEUPI:
						UDIEN  |= (1 << WAKEUPE);
     ed6:	80 91 e2 00 	lds	r24, 0x00E2
     eda:	80 61       	ori	r24, 0x10	; 16
     edc:	80 93 e2 00 	sts	0x00E2, r24
			#endif

			static inline void USB_CLK_Freeze(void) ATTR_ALWAYS_INLINE;
			static inline void USB_CLK_Freeze(void)
			{
				USBCON |=  (1 << FRZCLK);
     ee0:	80 91 d8 00 	lds	r24, 0x00D8
     ee4:	80 62       	ori	r24, 0x20	; 32
     ee6:	80 93 d8 00 	sts	0x00D8, r24
			}

			static inline void USB_PLL_Off(void) ATTR_ALWAYS_INLINE;
			static inline void USB_PLL_Off(void)
			{
				PLLCSR = 0;
     eea:	19 bc       	out	0x29, r1	; 41

		#if defined(USB_SERIES_2_AVR) && !defined(NO_LIMITED_CONTROLLER_CONNECT)
		USB_DeviceState = DEVICE_STATE_Unattached;
		EVENT_USB_Device_Disconnect();
		#else
		USB_DeviceState = DEVICE_STATE_Suspended;
     eec:	85 e0       	ldi	r24, 0x05	; 5
     eee:	80 93 2f 02 	sts	0x022F, r24
		EVENT_USB_Device_Suspend();
     ef2:	04 d2       	rcall	.+1032   	; 0x12fc <USB_Event_Stub>
					case USB_INT_IDTI:
						return (USBINT & (1 << IDTI));
					#endif
					#if defined(USB_CAN_BE_DEVICE)
					case USB_INT_WAKEUPI:
						return (UDINT  & (1 << WAKEUPI));
     ef4:	80 91 e1 00 	lds	r24, 0x00E1
		#endif
	}

	if (USB_INT_HasOccurred(USB_INT_WAKEUPI) && USB_INT_IsEnabled(USB_INT_WAKEUPI))
     ef8:	84 ff       	sbrs	r24, 4
     efa:	2f c0       	rjmp	.+94     	; 0xf5a <__vector_10+0x122>
					case USB_INT_IDTI:
						return (USBCON & (1 << IDTE));
					#endif
					#if defined(USB_CAN_BE_DEVICE)
					case USB_INT_WAKEUPI:
						return (UDIEN  & (1 << WAKEUPE));
     efc:	80 91 e2 00 	lds	r24, 0x00E2
     f00:	84 ff       	sbrs	r24, 4
     f02:	2b c0       	rjmp	.+86     	; 0xf5a <__vector_10+0x122>

		/* Inline Functions: */
			static inline void USB_PLL_On(void) ATTR_ALWAYS_INLINE;
			static inline void USB_PLL_On(void)
			{
				PLLCSR = USB_PLL_PSC;
     f04:	80 e1       	ldi	r24, 0x10	; 16
     f06:	89 bd       	out	0x29, r24	; 41
				PLLCSR = (USB_PLL_PSC | (1 << PLLE));
     f08:	82 e1       	ldi	r24, 0x12	; 18
     f0a:	89 bd       	out	0x29, r24	; 41
	{
		if (!(USB_Options & USB_OPT_MANUAL_PLL))
		{
			USB_PLL_On();
			while (!(USB_PLL_IsReady()));
     f0c:	09 b4       	in	r0, 0x29	; 41
     f0e:	00 fe       	sbrs	r0, 0
     f10:	fd cf       	rjmp	.-6      	; 0xf0c <__vector_10+0xd4>
			}

			static inline void USB_CLK_Unfreeze(void) ATTR_ALWAYS_INLINE;
			static inline void USB_CLK_Unfreeze(void)
			{
				USBCON &= ~(1 << FRZCLK);
     f12:	80 91 d8 00 	lds	r24, 0x00D8
     f16:	8f 7d       	andi	r24, 0xDF	; 223
     f18:	80 93 d8 00 	sts	0x00D8, r24
						USBINT &= ~(1 << IDTI);
						break;
					#endif
					#if defined(USB_CAN_BE_DEVICE)
					case USB_INT_WAKEUPI:
						UDINT  &= ~(1 << WAKEUPI);
     f1c:	80 91 e1 00 	lds	r24, 0x00E1
     f20:	8f 7e       	andi	r24, 0xEF	; 239
     f22:	80 93 e1 00 	sts	0x00E1, r24
						USBCON &= ~(1 << IDTE);
						break;
					#endif
					#if defined(USB_CAN_BE_DEVICE)
					case USB_INT_WAKEUPI:
						UDIEN  &= ~(1 << WAKEUPE);
     f26:	80 91 e2 00 	lds	r24, 0x00E2
     f2a:	8f 7e       	andi	r24, 0xEF	; 239
     f2c:	80 93 e2 00 	sts	0x00E2, r24
					#if defined(USB_CAN_BE_DEVICE)
					case USB_INT_WAKEUPI:
						UDIEN  |= (1 << WAKEUPE);
						break;
					case USB_INT_SUSPI:
						UDIEN  |= (1 << SUSPE);
     f30:	80 91 e2 00 	lds	r24, 0x00E2
     f34:	81 60       	ori	r24, 0x01	; 1
     f36:	80 93 e2 00 	sts	0x00E2, r24
		USB_INT_Clear(USB_INT_WAKEUPI);

		USB_INT_Disable(USB_INT_WAKEUPI);
		USB_INT_Enable(USB_INT_SUSPI);

		if (USB_Device_ConfigurationNumber)
     f3a:	80 91 2b 02 	lds	r24, 0x022B
     f3e:	88 23       	and	r24, r24
     f40:	11 f0       	breq	.+4      	; 0xf46 <__vector_10+0x10e>
		  USB_DeviceState = DEVICE_STATE_Configured;
     f42:	84 e0       	ldi	r24, 0x04	; 4
     f44:	07 c0       	rjmp	.+14     	; 0xf54 <__vector_10+0x11c>
			}

			static inline bool USB_Device_IsAddressSet(void) ATTR_ALWAYS_INLINE ATTR_WARN_UNUSED_RESULT;
			static inline bool USB_Device_IsAddressSet(void)
			{
				return (UDADDR & (1 << ADDEN));
     f46:	80 91 e3 00 	lds	r24, 0x00E3
		else
		  USB_DeviceState = (USB_Device_IsAddressSet()) ? DEVICE_STATE_Addressed : DEVICE_STATE_Powered;
     f4a:	87 fd       	sbrc	r24, 7
     f4c:	02 c0       	rjmp	.+4      	; 0xf52 <__vector_10+0x11a>
     f4e:	81 e0       	ldi	r24, 0x01	; 1
     f50:	01 c0       	rjmp	.+2      	; 0xf54 <__vector_10+0x11c>
     f52:	83 e0       	ldi	r24, 0x03	; 3
     f54:	80 93 2f 02 	sts	0x022F, r24

		#if defined(USB_SERIES_2_AVR) && !defined(NO_LIMITED_CONTROLLER_CONNECT)
		EVENT_USB_Device_Connect();
		#else
		EVENT_USB_Device_WakeUp();
     f58:	d1 d1       	rcall	.+930    	; 0x12fc <USB_Event_Stub>
					case USB_INT_WAKEUPI:
						return (UDINT  & (1 << WAKEUPI));
					case USB_INT_SUSPI:
						return (UDINT  & (1 << SUSPI));
					case USB_INT_EORSTI:
						return (UDINT  & (1 << EORSTI));
     f5a:	80 91 e1 00 	lds	r24, 0x00E1
		#endif
	}

	if (USB_INT_HasOccurred(USB_INT_EORSTI) && USB_INT_IsEnabled(USB_INT_EORSTI))
     f5e:	83 ff       	sbrs	r24, 3
     f60:	27 c0       	rjmp	.+78     	; 0xfb0 <__vector_10+0x178>
					case USB_INT_WAKEUPI:
						return (UDIEN  & (1 << WAKEUPE));
					case USB_INT_SUSPI:
						return (UDIEN  & (1 << SUSPE));
					case USB_INT_EORSTI:
						return (UDIEN  & (1 << EORSTE));
     f62:	80 91 e2 00 	lds	r24, 0x00E2
     f66:	83 ff       	sbrs	r24, 3
     f68:	23 c0       	rjmp	.+70     	; 0xfb0 <__vector_10+0x178>
						break;
					case USB_INT_SUSPI:
						UDINT  &= ~(1 << SUSPI);
						break;
					case USB_INT_EORSTI:
						UDINT  &= ~(1 << EORSTI);
     f6a:	80 91 e1 00 	lds	r24, 0x00E1
     f6e:	87 7f       	andi	r24, 0xF7	; 247
     f70:	80 93 e1 00 	sts	0x00E1, r24
	{
		USB_INT_Clear(USB_INT_EORSTI);

		USB_DeviceState                = DEVICE_STATE_Default;
     f74:	82 e0       	ldi	r24, 0x02	; 2
     f76:	80 93 2f 02 	sts	0x022F, r24
		USB_Device_ConfigurationNumber = 0;
     f7a:	10 92 2b 02 	sts	0x022B, r1
					#if defined(USB_CAN_BE_DEVICE)
					case USB_INT_WAKEUPI:
						UDINT  &= ~(1 << WAKEUPI);
						break;
					case USB_INT_SUSPI:
						UDINT  &= ~(1 << SUSPI);
     f7e:	80 91 e1 00 	lds	r24, 0x00E1
     f82:	8e 7f       	andi	r24, 0xFE	; 254
     f84:	80 93 e1 00 	sts	0x00E1, r24
					#if defined(USB_CAN_BE_DEVICE)
					case USB_INT_WAKEUPI:
						UDIEN  &= ~(1 << WAKEUPE);
						break;
					case USB_INT_SUSPI:
						UDIEN  &= ~(1 << SUSPE);
     f88:	80 91 e2 00 	lds	r24, 0x00E2
     f8c:	8e 7f       	andi	r24, 0xFE	; 254
     f8e:	80 93 e2 00 	sts	0x00E2, r24
						USBCON |= (1 << IDTE);
						break;
					#endif
					#if defined(USB_CAN_BE_DEVICE)
					case USB_INT_WAKEUPI:
						UDIEN  |= (1 << WAKEUPE);
     f92:	80 91 e2 00 	lds	r24, 0x00E2
     f96:	80 61       	ori	r24, 0x10	; 16
     f98:	80 93 e2 00 	sts	0x00E2, r24
				uint8_t Number = (Address & ENDPOINT_EPNUM_MASK);

				if (Number >= ENDPOINT_TOTAL_ENDPOINTS)
				  return false;

				return Endpoint_ConfigureEndpoint_Prv(Number,
     f9c:	42 e0       	ldi	r20, 0x02	; 2
     f9e:	60 e0       	ldi	r22, 0x00	; 0
     fa0:	80 e0       	ldi	r24, 0x00	; 0
     fa2:	1f de       	rcall	.-962    	; 0xbe2 <Endpoint_ConfigureEndpoint_Prv>
						break;
					case USB_INT_SOFI:
						UDIEN  |= (1 << SOFE);
						break;
					case USB_INT_RXSTPI:
						UEIENX |= (1 << RXSTPE);
     fa4:	80 91 f0 00 	lds	r24, 0x00F0
     fa8:	88 60       	ori	r24, 0x08	; 8
     faa:	80 93 f0 00 	sts	0x00F0, r24

		#if defined(INTERRUPT_CONTROL_ENDPOINT)
		USB_INT_Enable(USB_INT_RXSTPI);
		#endif

		EVENT_USB_Device_Reset();
     fae:	a6 d1       	rcall	.+844    	; 0x12fc <USB_Event_Stub>
		USB_ResetInterface();

		EVENT_USB_UIDChange();
	}
	#endif
}
     fb0:	ff 91       	pop	r31
     fb2:	ef 91       	pop	r30
     fb4:	bf 91       	pop	r27
     fb6:	af 91       	pop	r26
     fb8:	9f 91       	pop	r25
     fba:	8f 91       	pop	r24
     fbc:	7f 91       	pop	r23
     fbe:	6f 91       	pop	r22
     fc0:	5f 91       	pop	r21
     fc2:	4f 91       	pop	r20
     fc4:	3f 91       	pop	r19
     fc6:	2f 91       	pop	r18
     fc8:	0f 90       	pop	r0
     fca:	0f be       	out	0x3f, r0	; 63
     fcc:	0f 90       	pop	r0
     fce:	1f 90       	pop	r1
     fd0:	18 95       	reti

00000fd2 <__vector_11>:

#if defined(INTERRUPT_CONTROL_ENDPOINT) && defined(USB_CAN_BE_DEVICE)
ISR(USB_COM_vect, ISR_BLOCK)
{
     fd2:	1f 92       	push	r1
     fd4:	0f 92       	push	r0
     fd6:	0f b6       	in	r0, 0x3f	; 63
     fd8:	0f 92       	push	r0
     fda:	11 24       	eor	r1, r1
     fdc:	2f 93       	push	r18
     fde:	3f 93       	push	r19
     fe0:	4f 93       	push	r20
     fe2:	5f 93       	push	r21
     fe4:	6f 93       	push	r22
     fe6:	7f 93       	push	r23
     fe8:	8f 93       	push	r24
     fea:	9f 93       	push	r25
     fec:	af 93       	push	r26
     fee:	bf 93       	push	r27
     ff0:	cf 93       	push	r28
     ff2:	df 93       	push	r29
     ff4:	ef 93       	push	r30
     ff6:	ff 93       	push	r31
			 */
			static inline uint8_t Endpoint_GetCurrentEndpoint(void) ATTR_WARN_UNUSED_RESULT ATTR_ALWAYS_INLINE;
			static inline uint8_t Endpoint_GetCurrentEndpoint(void)
			{
				#if !defined(CONTROL_ONLY_DEVICE)
					return ((UENUM & ENDPOINT_EPNUM_MASK) | Endpoint_GetEndpointDirection());
     ff8:	c0 91 e9 00 	lds	r28, 0x00E9
     ffc:	cf 70       	andi	r28, 0x0F	; 15
			 *  \return The currently selected endpoint's direction, as a \c ENDPOINT_DIR_* mask.
			 */
			static inline uint8_t Endpoint_GetEndpointDirection(void) ATTR_WARN_UNUSED_RESULT ATTR_ALWAYS_INLINE;
			static inline uint8_t Endpoint_GetEndpointDirection(void)
			{
				return (UECFG0X & (1 << EPDIR)) ? ENDPOINT_DIR_IN : ENDPOINT_DIR_OUT;
     ffe:	80 91 ec 00 	lds	r24, 0x00EC
    1002:	d8 2f       	mov	r29, r24
    1004:	d1 70       	andi	r29, 0x01	; 1
    1006:	80 fd       	sbrc	r24, 0
    1008:	d0 e8       	ldi	r29, 0x80	; 128
			 */
			static inline void Endpoint_SelectEndpoint(const uint8_t Address) ATTR_ALWAYS_INLINE;
			static inline void Endpoint_SelectEndpoint(const uint8_t Address)
			{
				#if !defined(CONTROL_ONLY_DEVICE)
					UENUM = (Address & ENDPOINT_EPNUM_MASK);
    100a:	10 92 e9 00 	sts	0x00E9, r1
						break;
					case USB_INT_SOFI:
						UDIEN  &= ~(1 << SOFE);
						break;
					case USB_INT_RXSTPI:
						UEIENX &= ~(1 << RXSTPE);
    100e:	80 91 f0 00 	lds	r24, 0x00F0
    1012:	87 7f       	andi	r24, 0xF7	; 247
    1014:	80 93 f0 00 	sts	0x00F0, r24
			static inline void GlobalInterruptEnable(void)
			{
				GCC_MEMORY_BARRIER();

				#if (ARCH == ARCH_AVR8)
				sei();
    1018:	78 94       	sei
	Endpoint_SelectEndpoint(ENDPOINT_CONTROLEP);
	USB_INT_Disable(USB_INT_RXSTPI);

	GlobalInterruptEnable();

	USB_Device_ProcessControlRequest();
    101a:	1e d0       	rcall	.+60     	; 0x1058 <USB_Device_ProcessControlRequest>
    101c:	10 92 e9 00 	sts	0x00E9, r1
						break;
					case USB_INT_SOFI:
						UDIEN  |= (1 << SOFE);
						break;
					case USB_INT_RXSTPI:
						UEIENX |= (1 << RXSTPE);
    1020:	80 91 f0 00 	lds	r24, 0x00F0
    1024:	88 60       	ori	r24, 0x08	; 8
    1026:	80 93 f0 00 	sts	0x00F0, r24
			 */
			static inline uint8_t Endpoint_GetCurrentEndpoint(void) ATTR_WARN_UNUSED_RESULT ATTR_ALWAYS_INLINE;
			static inline uint8_t Endpoint_GetCurrentEndpoint(void)
			{
				#if !defined(CONTROL_ONLY_DEVICE)
					return ((UENUM & ENDPOINT_EPNUM_MASK) | Endpoint_GetEndpointDirection());
    102a:	cd 2b       	or	r28, r29
			 */
			static inline void Endpoint_SelectEndpoint(const uint8_t Address) ATTR_ALWAYS_INLINE;
			static inline void Endpoint_SelectEndpoint(const uint8_t Address)
			{
				#if !defined(CONTROL_ONLY_DEVICE)
					UENUM = (Address & ENDPOINT_EPNUM_MASK);
    102c:	cf 70       	andi	r28, 0x0F	; 15
    102e:	c0 93 e9 00 	sts	0x00E9, r28

	Endpoint_SelectEndpoint(ENDPOINT_CONTROLEP);
	USB_INT_Enable(USB_INT_RXSTPI);
	Endpoint_SelectEndpoint(PrevSelectedEndpoint);
}
    1032:	ff 91       	pop	r31
    1034:	ef 91       	pop	r30
    1036:	df 91       	pop	r29
    1038:	cf 91       	pop	r28
    103a:	bf 91       	pop	r27
    103c:	af 91       	pop	r26
    103e:	9f 91       	pop	r25
    1040:	8f 91       	pop	r24
    1042:	7f 91       	pop	r23
    1044:	6f 91       	pop	r22
    1046:	5f 91       	pop	r21
    1048:	4f 91       	pop	r20
    104a:	3f 91       	pop	r19
    104c:	2f 91       	pop	r18
    104e:	0f 90       	pop	r0
    1050:	0f be       	out	0x3f, r0	; 63
    1052:	0f 90       	pop	r0
    1054:	1f 90       	pop	r1
    1056:	18 95       	reti

00001058 <USB_Device_ProcessControlRequest>:
#if !defined(NO_DEVICE_REMOTE_WAKEUP)
bool    USB_Device_RemoteWakeupEnabled;
#endif

void USB_Device_ProcessControlRequest(void)
{
    1058:	1f 93       	push	r17
    105a:	cf 93       	push	r28
    105c:	df 93       	push	r29
    105e:	cd b7       	in	r28, 0x3d	; 61
    1060:	de b7       	in	r29, 0x3e	; 62
    1062:	aa 97       	sbiw	r28, 0x2a	; 42
    1064:	0f b6       	in	r0, 0x3f	; 63
    1066:	f8 94       	cli
    1068:	de bf       	out	0x3e, r29	; 62
    106a:	0f be       	out	0x3f, r0	; 63
    106c:	cd bf       	out	0x3d, r28	; 61
    106e:	e0 e3       	ldi	r30, 0x30	; 48
    1070:	f2 e0       	ldi	r31, 0x02	; 2
    1072:	88 e0       	ldi	r24, 0x08	; 8
    1074:	8e 0f       	add	r24, r30
			 *  \return Next byte in the currently selected endpoint's FIFO buffer.
			 */
			static inline uint8_t Endpoint_Read_8(void) ATTR_WARN_UNUSED_RESULT ATTR_ALWAYS_INLINE;
			static inline uint8_t Endpoint_Read_8(void)
			{
				return UEDATX;
    1076:	90 91 f1 00 	lds	r25, 0x00F1
	USB_ControlRequest.wLength       = Endpoint_Read_16_LE();
	#else
	uint8_t* RequestHeader = (uint8_t*)&USB_ControlRequest;

	for (uint8_t RequestHeaderByte = 0; RequestHeaderByte < sizeof(USB_Request_Header_t); RequestHeaderByte++)
	  *(RequestHeader++) = Endpoint_Read_8();
    107a:	91 93       	st	Z+, r25
	USB_ControlRequest.wIndex        = Endpoint_Read_16_LE();
	USB_ControlRequest.wLength       = Endpoint_Read_16_LE();
	#else
	uint8_t* RequestHeader = (uint8_t*)&USB_ControlRequest;

	for (uint8_t RequestHeaderByte = 0; RequestHeaderByte < sizeof(USB_Request_Header_t); RequestHeaderByte++)
    107c:	8e 13       	cpse	r24, r30
    107e:	fb cf       	rjmp	.-10     	; 0x1076 <USB_Device_ProcessControlRequest+0x1e>
	  *(RequestHeader++) = Endpoint_Read_8();
	#endif

	EVENT_USB_Device_ControlRequest();
    1080:	de d7       	rcall	.+4028   	; 0x203e <EVENT_USB_Device_ControlRequest>
			 *  \return Boolean \c true if the selected endpoint has received a SETUP packet, \c false otherwise.
			 */
			static inline bool Endpoint_IsSETUPReceived(void) ATTR_WARN_UNUSED_RESULT ATTR_ALWAYS_INLINE;
			static inline bool Endpoint_IsSETUPReceived(void)
			{
				return ((UEINTX & (1 << RXSTPI)) ? true : false);
    1082:	80 91 e8 00 	lds	r24, 0x00E8

	if (Endpoint_IsSETUPReceived())
    1086:	83 ff       	sbrs	r24, 3
    1088:	21 c1       	rjmp	.+578    	; 0x12cc <USB_Device_ProcessControlRequest+0x274>
	{
		uint8_t bmRequestType = USB_ControlRequest.bmRequestType;
    108a:	80 91 30 02 	lds	r24, 0x0230

		switch (USB_ControlRequest.bRequest)
    108e:	90 91 31 02 	lds	r25, 0x0231
    1092:	95 30       	cpi	r25, 0x05	; 5
    1094:	09 f4       	brne	.+2      	; 0x1098 <USB_Device_ProcessControlRequest+0x40>
    1096:	78 c0       	rjmp	.+240    	; 0x1188 <USB_Device_ProcessControlRequest+0x130>
    1098:	30 f4       	brcc	.+12     	; 0x10a6 <USB_Device_ProcessControlRequest+0x4e>
    109a:	91 30       	cpi	r25, 0x01	; 1
    109c:	81 f1       	breq	.+96     	; 0x10fe <USB_Device_ProcessControlRequest+0xa6>
    109e:	68 f0       	brcs	.+26     	; 0x10ba <USB_Device_ProcessControlRequest+0x62>
    10a0:	93 30       	cpi	r25, 0x03	; 3
    10a2:	69 f1       	breq	.+90     	; 0x10fe <USB_Device_ProcessControlRequest+0xa6>
    10a4:	13 c1       	rjmp	.+550    	; 0x12cc <USB_Device_ProcessControlRequest+0x274>
    10a6:	98 30       	cpi	r25, 0x08	; 8
    10a8:	09 f4       	brne	.+2      	; 0x10ac <USB_Device_ProcessControlRequest+0x54>
    10aa:	e2 c0       	rjmp	.+452    	; 0x1270 <USB_Device_ProcessControlRequest+0x218>
    10ac:	99 30       	cpi	r25, 0x09	; 9
    10ae:	09 f4       	brne	.+2      	; 0x10b2 <USB_Device_ProcessControlRequest+0x5a>
    10b0:	f1 c0       	rjmp	.+482    	; 0x1294 <USB_Device_ProcessControlRequest+0x23c>
    10b2:	96 30       	cpi	r25, 0x06	; 6
    10b4:	09 f0       	breq	.+2      	; 0x10b8 <USB_Device_ProcessControlRequest+0x60>
    10b6:	0a c1       	rjmp	.+532    	; 0x12cc <USB_Device_ProcessControlRequest+0x274>
    10b8:	89 c0       	rjmp	.+274    	; 0x11cc <USB_Device_ProcessControlRequest+0x174>
		{
			case REQ_GetStatus:
				if ((bmRequestType == (REQDIR_DEVICETOHOST | REQTYPE_STANDARD | REQREC_DEVICE)) ||
    10ba:	80 38       	cpi	r24, 0x80	; 128
    10bc:	81 f0       	breq	.+32     	; 0x10de <USB_Device_ProcessControlRequest+0x86>
    10be:	82 38       	cpi	r24, 0x82	; 130
    10c0:	09 f0       	breq	.+2      	; 0x10c4 <USB_Device_ProcessControlRequest+0x6c>
    10c2:	04 c1       	rjmp	.+520    	; 0x12cc <USB_Device_ProcessControlRequest+0x274>
			 */
			static inline void Endpoint_SelectEndpoint(const uint8_t Address) ATTR_ALWAYS_INLINE;
			static inline void Endpoint_SelectEndpoint(const uint8_t Address)
			{
				#if !defined(CONTROL_ONLY_DEVICE)
					UENUM = (Address & ENDPOINT_EPNUM_MASK);
    10c4:	80 91 34 02 	lds	r24, 0x0234
    10c8:	8f 70       	andi	r24, 0x0F	; 15
    10ca:	80 93 e9 00 	sts	0x00E9, r24
			 *  \return Boolean \c true if the currently selected endpoint is stalled, \c false otherwise.
			 */
			static inline bool Endpoint_IsStalled(void) ATTR_WARN_UNUSED_RESULT ATTR_ALWAYS_INLINE;
			static inline bool Endpoint_IsStalled(void)
			{
				return ((UECONX & (1 << STALLRQ)) ? true : false);
    10ce:	80 91 eb 00 	lds	r24, 0x00EB
    10d2:	85 fb       	bst	r24, 5
    10d4:	88 27       	eor	r24, r24
    10d6:	80 f9       	bld	r24, 0
			 */
			static inline void Endpoint_SelectEndpoint(const uint8_t Address) ATTR_ALWAYS_INLINE;
			static inline void Endpoint_SelectEndpoint(const uint8_t Address)
			{
				#if !defined(CONTROL_ONLY_DEVICE)
					UENUM = (Address & ENDPOINT_EPNUM_MASK);
    10d8:	10 92 e9 00 	sts	0x00E9, r1
    10dc:	06 c0       	rjmp	.+12     	; 0x10ea <USB_Device_ProcessControlRequest+0x92>
	Endpoint_ClearOUT();
}

static void USB_Device_GetStatus(void)
{
	uint8_t CurrentStatus = 0;
    10de:	80 91 2c 02 	lds	r24, 0x022C
			if (USB_Device_CurrentlySelfPowered)
			  CurrentStatus |= FEATURE_SELFPOWERED_ENABLED;
			#endif

			#if !defined(NO_DEVICE_REMOTE_WAKEUP)
			if (USB_Device_RemoteWakeupEnabled)
    10e2:	90 91 2d 02 	lds	r25, 0x022D
    10e6:	91 11       	cpse	r25, r1
			  CurrentStatus |= FEATURE_REMOTE_WAKEUP_ENABLED;
    10e8:	82 60       	ori	r24, 0x02	; 2
			 *  \note This is not applicable for non CONTROL type endpoints.
			 */
			static inline void Endpoint_ClearSETUP(void) ATTR_ALWAYS_INLINE;
			static inline void Endpoint_ClearSETUP(void)
			{
				UEINTX &= ~(1 << RXSTPI);
    10ea:	90 91 e8 00 	lds	r25, 0x00E8
    10ee:	97 7f       	andi	r25, 0xF7	; 247
    10f0:	90 93 e8 00 	sts	0x00E8, r25
			 *  \param[in] Data  Data to write to the currently selected endpoint's FIFO buffer.
			 */
			static inline void Endpoint_Write_16_LE(const uint16_t Data) ATTR_ALWAYS_INLINE;
			static inline void Endpoint_Write_16_LE(const uint16_t Data)
			{
				UEDATX = (Data & 0xFF);
    10f4:	80 93 f1 00 	sts	0x00F1, r24
				UEDATX = (Data >> 8);
    10f8:	10 92 f1 00 	sts	0x00F1, r1
    10fc:	c4 c0       	rjmp	.+392    	; 0x1286 <USB_Device_ProcessControlRequest+0x22e>
				}

				break;
			case REQ_ClearFeature:
			case REQ_SetFeature:
				if ((bmRequestType == (REQDIR_HOSTTODEVICE | REQTYPE_STANDARD | REQREC_DEVICE)) ||
    10fe:	28 2f       	mov	r18, r24
    1100:	2d 7f       	andi	r18, 0xFD	; 253
    1102:	09 f0       	breq	.+2      	; 0x1106 <USB_Device_ProcessControlRequest+0xae>
    1104:	e3 c0       	rjmp	.+454    	; 0x12cc <USB_Device_ProcessControlRequest+0x274>
	Endpoint_ClearStatusStage();
}

static void USB_Device_ClearSetFeature(void)
{
	switch (USB_ControlRequest.bmRequestType & CONTROL_REQTYPE_RECIPIENT)
    1106:	88 23       	and	r24, r24
    1108:	19 f0       	breq	.+6      	; 0x1110 <USB_Device_ProcessControlRequest+0xb8>
    110a:	82 30       	cpi	r24, 0x02	; 2
    110c:	61 f0       	breq	.+24     	; 0x1126 <USB_Device_ProcessControlRequest+0xce>
    110e:	de c0       	rjmp	.+444    	; 0x12cc <USB_Device_ProcessControlRequest+0x274>
	{
		#if !defined(NO_DEVICE_REMOTE_WAKEUP)
		case REQREC_DEVICE:
			if ((uint8_t)USB_ControlRequest.wValue == FEATURE_SEL_DeviceRemoteWakeup)
    1110:	80 91 32 02 	lds	r24, 0x0232
    1114:	81 30       	cpi	r24, 0x01	; 1
    1116:	09 f0       	breq	.+2      	; 0x111a <USB_Device_ProcessControlRequest+0xc2>
    1118:	d9 c0       	rjmp	.+434    	; 0x12cc <USB_Device_ProcessControlRequest+0x274>
			  USB_Device_RemoteWakeupEnabled = (USB_ControlRequest.bRequest == REQ_SetFeature);
    111a:	93 30       	cpi	r25, 0x03	; 3
    111c:	09 f0       	breq	.+2      	; 0x1120 <USB_Device_ProcessControlRequest+0xc8>
    111e:	80 e0       	ldi	r24, 0x00	; 0
    1120:	80 93 2d 02 	sts	0x022D, r24
    1124:	2b c0       	rjmp	.+86     	; 0x117c <USB_Device_ProcessControlRequest+0x124>

			break;
		#endif
		#if !defined(CONTROL_ONLY_DEVICE)
		case REQREC_ENDPOINT:
			if ((uint8_t)USB_ControlRequest.wValue == FEATURE_SEL_EndpointHalt)
    1126:	80 91 32 02 	lds	r24, 0x0232
    112a:	81 11       	cpse	r24, r1
    112c:	27 c0       	rjmp	.+78     	; 0x117c <USB_Device_ProcessControlRequest+0x124>
			{
				uint8_t EndpointIndex = ((uint8_t)USB_ControlRequest.wIndex & ENDPOINT_EPNUM_MASK);
    112e:	80 91 34 02 	lds	r24, 0x0234
    1132:	8f 70       	andi	r24, 0x0F	; 15

				if (EndpointIndex == ENDPOINT_CONTROLEP)
    1134:	09 f4       	brne	.+2      	; 0x1138 <USB_Device_ProcessControlRequest+0xe0>
    1136:	ca c0       	rjmp	.+404    	; 0x12cc <USB_Device_ProcessControlRequest+0x274>
			 */
			static inline void Endpoint_SelectEndpoint(const uint8_t Address) ATTR_ALWAYS_INLINE;
			static inline void Endpoint_SelectEndpoint(const uint8_t Address)
			{
				#if !defined(CONTROL_ONLY_DEVICE)
					UENUM = (Address & ENDPOINT_EPNUM_MASK);
    1138:	80 93 e9 00 	sts	0x00E9, r24
			 * \return Boolean \c true if the currently selected endpoint is enabled, \c false otherwise.
			 */
			static inline bool Endpoint_IsEnabled(void) ATTR_WARN_UNUSED_RESULT ATTR_ALWAYS_INLINE;
			static inline bool Endpoint_IsEnabled(void)
			{
				return ((UECONX & (1 << EPEN)) ? true : false);
    113c:	20 91 eb 00 	lds	r18, 0x00EB
				  return;

				Endpoint_SelectEndpoint(EndpointIndex);

				if (Endpoint_IsEnabled())
    1140:	20 ff       	sbrs	r18, 0
    1142:	1c c0       	rjmp	.+56     	; 0x117c <USB_Device_ProcessControlRequest+0x124>
				{
					if (USB_ControlRequest.bRequest == REQ_SetFeature)
    1144:	93 30       	cpi	r25, 0x03	; 3
    1146:	21 f4       	brne	.+8      	; 0x1150 <USB_Device_ProcessControlRequest+0xf8>
			 *  \ingroup Group_EndpointPacketManagement_AVR8
			 */
			static inline void Endpoint_StallTransaction(void) ATTR_ALWAYS_INLINE;
			static inline void Endpoint_StallTransaction(void)
			{
				UECONX |= (1 << STALLRQ);
    1148:	80 91 eb 00 	lds	r24, 0x00EB
    114c:	80 62       	ori	r24, 0x20	; 32
    114e:	14 c0       	rjmp	.+40     	; 0x1178 <USB_Device_ProcessControlRequest+0x120>
			 *  \ingroup Group_EndpointPacketManagement_AVR8
			 */
			static inline void Endpoint_ClearStall(void) ATTR_ALWAYS_INLINE;
			static inline void Endpoint_ClearStall(void)
			{
				UECONX |= (1 << STALLRQC);
    1150:	90 91 eb 00 	lds	r25, 0x00EB
    1154:	90 61       	ori	r25, 0x10	; 16
    1156:	90 93 eb 00 	sts	0x00EB, r25
			 *  \param[in] Address  Endpoint address whose FIFO buffers are to be reset.
			 */
			static inline void Endpoint_ResetEndpoint(const uint8_t Address) ATTR_ALWAYS_INLINE;
			static inline void Endpoint_ResetEndpoint(const uint8_t Address)
			{
				UERST = (1 << (Address & ENDPOINT_EPNUM_MASK));
    115a:	21 e0       	ldi	r18, 0x01	; 1
    115c:	30 e0       	ldi	r19, 0x00	; 0
    115e:	a9 01       	movw	r20, r18
    1160:	02 c0       	rjmp	.+4      	; 0x1166 <USB_Device_ProcessControlRequest+0x10e>
    1162:	44 0f       	add	r20, r20
    1164:	55 1f       	adc	r21, r21
    1166:	8a 95       	dec	r24
    1168:	e2 f7       	brpl	.-8      	; 0x1162 <USB_Device_ProcessControlRequest+0x10a>
    116a:	40 93 ea 00 	sts	0x00EA, r20
				UERST = 0;
    116e:	10 92 ea 00 	sts	0x00EA, r1

			/** Resets the data toggle of the currently selected endpoint. */
			static inline void Endpoint_ResetDataToggle(void) ATTR_ALWAYS_INLINE;
			static inline void Endpoint_ResetDataToggle(void)
			{
				UECONX |= (1 << RSTDT);
    1172:	80 91 eb 00 	lds	r24, 0x00EB
    1176:	88 60       	ori	r24, 0x08	; 8
    1178:	80 93 eb 00 	sts	0x00EB, r24
			 */
			static inline void Endpoint_SelectEndpoint(const uint8_t Address) ATTR_ALWAYS_INLINE;
			static inline void Endpoint_SelectEndpoint(const uint8_t Address)
			{
				#if !defined(CONTROL_ONLY_DEVICE)
					UENUM = (Address & ENDPOINT_EPNUM_MASK);
    117c:	10 92 e9 00 	sts	0x00E9, r1
			 *  \note This is not applicable for non CONTROL type endpoints.
			 */
			static inline void Endpoint_ClearSETUP(void) ATTR_ALWAYS_INLINE;
			static inline void Endpoint_ClearSETUP(void)
			{
				UEINTX &= ~(1 << RXSTPI);
    1180:	80 91 e8 00 	lds	r24, 0x00E8
    1184:	87 7f       	andi	r24, 0xF7	; 247
    1186:	82 c0       	rjmp	.+260    	; 0x128c <USB_Device_ProcessControlRequest+0x234>
					USB_Device_ClearSetFeature();
				}

				break;
			case REQ_SetAddress:
				if (bmRequestType == (REQDIR_HOSTTODEVICE | REQTYPE_STANDARD | REQREC_DEVICE))
    1188:	81 11       	cpse	r24, r1
    118a:	a0 c0       	rjmp	.+320    	; 0x12cc <USB_Device_ProcessControlRequest+0x274>
	}
}

static void USB_Device_SetAddress(void)
{
	uint8_t DeviceAddress = (USB_ControlRequest.wValue & 0x7F);
    118c:	10 91 32 02 	lds	r17, 0x0232
    1190:	1f 77       	andi	r17, 0x7F	; 127
			#endif

			static inline void USB_Device_SetDeviceAddress(const uint8_t Address) ATTR_ALWAYS_INLINE;
			static inline void USB_Device_SetDeviceAddress(const uint8_t Address)
			{
				UDADDR = (UDADDR & (1 << ADDEN)) | (Address & 0x7F);
    1192:	80 91 e3 00 	lds	r24, 0x00E3
    1196:	80 78       	andi	r24, 0x80	; 128
    1198:	81 2b       	or	r24, r17
    119a:	80 93 e3 00 	sts	0x00E3, r24
    119e:	80 91 e8 00 	lds	r24, 0x00E8
    11a2:	87 7f       	andi	r24, 0xF7	; 247
    11a4:	80 93 e8 00 	sts	0x00E8, r24

	USB_Device_SetDeviceAddress(DeviceAddress);

	Endpoint_ClearSETUP();

	Endpoint_ClearStatusStage();
    11a8:	99 dd       	rcall	.-1230   	; 0xcdc <Endpoint_ClearStatusStage>
			 *  \return Boolean \c true if the current endpoint is ready for an IN packet, \c false otherwise.
			 */
			static inline bool Endpoint_IsINReady(void) ATTR_WARN_UNUSED_RESULT ATTR_ALWAYS_INLINE;
			static inline bool Endpoint_IsINReady(void)
			{
				return ((UEINTX & (1 << TXINI)) ? true : false);
    11aa:	80 91 e8 00 	lds	r24, 0x00E8

	while (!(Endpoint_IsINReady()));
    11ae:	80 ff       	sbrs	r24, 0
    11b0:	fc cf       	rjmp	.-8      	; 0x11aa <USB_Device_ProcessControlRequest+0x152>
			static inline void USB_Device_EnableDeviceAddress(const uint8_t Address) ATTR_ALWAYS_INLINE;
			static inline void USB_Device_EnableDeviceAddress(const uint8_t Address)
			{
				(void)Address;

				UDADDR |= (1 << ADDEN);
    11b2:	80 91 e3 00 	lds	r24, 0x00E3
    11b6:	80 68       	ori	r24, 0x80	; 128
    11b8:	80 93 e3 00 	sts	0x00E3, r24

	USB_Device_EnableDeviceAddress(DeviceAddress);

	USB_DeviceState = (DeviceAddress) ? DEVICE_STATE_Addressed : DEVICE_STATE_Default;
    11bc:	11 11       	cpse	r17, r1
    11be:	02 c0       	rjmp	.+4      	; 0x11c4 <USB_Device_ProcessControlRequest+0x16c>
    11c0:	82 e0       	ldi	r24, 0x02	; 2
    11c2:	01 c0       	rjmp	.+2      	; 0x11c6 <USB_Device_ProcessControlRequest+0x16e>
    11c4:	83 e0       	ldi	r24, 0x03	; 3
    11c6:	80 93 2f 02 	sts	0x022F, r24
    11ca:	80 c0       	rjmp	.+256    	; 0x12cc <USB_Device_ProcessControlRequest+0x274>
				if (bmRequestType == (REQDIR_HOSTTODEVICE | REQTYPE_STANDARD | REQREC_DEVICE))
				  USB_Device_SetAddress();

				break;
			case REQ_GetDescriptor:
				if ((bmRequestType == (REQDIR_DEVICETOHOST | REQTYPE_STANDARD | REQREC_DEVICE)) ||
    11cc:	80 58       	subi	r24, 0x80	; 128
    11ce:	82 30       	cpi	r24, 0x02	; 2
    11d0:	08 f0       	brcs	.+2      	; 0x11d4 <USB_Device_ProcessControlRequest+0x17c>
    11d2:	7c c0       	rjmp	.+248    	; 0x12cc <USB_Device_ProcessControlRequest+0x274>
	    !(defined(USE_FLASH_DESCRIPTORS) || defined(USE_EEPROM_DESCRIPTORS) || defined(USE_RAM_DESCRIPTORS))
	uint8_t DescriptorAddressSpace;
	#endif

	#if !defined(NO_INTERNAL_SERIAL) && (USE_INTERNAL_SERIAL != NO_DESCRIPTOR)
	if (USB_ControlRequest.wValue == ((DTYPE_String << 8) | USE_INTERNAL_SERIAL))
    11d4:	80 91 32 02 	lds	r24, 0x0232
    11d8:	90 91 33 02 	lds	r25, 0x0233
    11dc:	8c 3d       	cpi	r24, 0xDC	; 220
    11de:	53 e0       	ldi	r21, 0x03	; 3
    11e0:	95 07       	cpc	r25, r21
    11e2:	71 f5       	brne	.+92     	; 0x1240 <USB_Device_ProcessControlRequest+0x1e8>
	{
		USB_Descriptor_Header_t Header;
		uint16_t                UnicodeString[INTERNAL_SERIAL_LENGTH_BITS / 4];
	} SignatureDescriptor;

	SignatureDescriptor.Header.Type = DTYPE_String;
    11e4:	83 e0       	ldi	r24, 0x03	; 3
    11e6:	8a 83       	std	Y+2, r24	; 0x02
	SignatureDescriptor.Header.Size = USB_STRING_LEN(INTERNAL_SERIAL_LENGTH_BITS / 4);
    11e8:	8a e2       	ldi	r24, 0x2A	; 42
    11ea:	89 83       	std	Y+1, r24	; 0x01
			static inline uint_reg_t GetGlobalInterruptMask(void)
			{
				GCC_MEMORY_BARRIER();

				#if (ARCH == ARCH_AVR8)
				return SREG;
    11ec:	4f b7       	in	r20, 0x3f	; 63
			static inline void GlobalInterruptDisable(void)
			{
				GCC_MEMORY_BARRIER();

				#if (ARCH == ARCH_AVR8)
				cli();
    11ee:	f8 94       	cli
				__builtin_ssrf(AVR32_SR_GM_OFFSET);
				#elif (ARCH == ARCH_XMEGA)
				cli();
				#endif

				GCC_MEMORY_BARRIER();
    11f0:	de 01       	movw	r26, r28
    11f2:	13 96       	adiw	r26, 0x03	; 3
				uint_reg_t CurrentGlobalInt = GetGlobalInterruptMask();
				GlobalInterruptDisable();

				uint8_t SigReadAddress = INTERNAL_SERIAL_START_ADDRESS;

				for (uint8_t SerialCharNum = 0; SerialCharNum < (INTERNAL_SERIAL_LENGTH_BITS / 4); SerialCharNum++)
    11f4:	20 e0       	ldi	r18, 0x00	; 0
			static inline void USB_Device_GetSerialString(uint16_t* const UnicodeString)
			{
				uint_reg_t CurrentGlobalInt = GetGlobalInterruptMask();
				GlobalInterruptDisable();

				uint8_t SigReadAddress = INTERNAL_SERIAL_START_ADDRESS;
    11f6:	3e e0       	ldi	r19, 0x0E	; 14

				for (uint8_t SerialCharNum = 0; SerialCharNum < (INTERNAL_SERIAL_LENGTH_BITS / 4); SerialCharNum++)
				{
					uint8_t SerialByte = boot_signature_byte_get(SigReadAddress);
    11f8:	51 e2       	ldi	r21, 0x21	; 33
    11fa:	e3 2f       	mov	r30, r19
    11fc:	f0 e0       	ldi	r31, 0x00	; 0
    11fe:	50 93 57 00 	sts	0x0057, r21
    1202:	e4 91       	lpm	r30, Z

					if (SerialCharNum & 0x01)
    1204:	20 ff       	sbrs	r18, 0
    1206:	03 c0       	rjmp	.+6      	; 0x120e <USB_Device_ProcessControlRequest+0x1b6>
					{
						SerialByte >>= 4;
    1208:	e2 95       	swap	r30
    120a:	ef 70       	andi	r30, 0x0F	; 15
						SigReadAddress++;
    120c:	3f 5f       	subi	r19, 0xFF	; 255
					}

					SerialByte &= 0x0F;
    120e:	ef 70       	andi	r30, 0x0F	; 15
    1210:	8e 2f       	mov	r24, r30
    1212:	90 e0       	ldi	r25, 0x00	; 0

					UnicodeString[SerialCharNum] = cpu_to_le16((SerialByte >= 10) ?
    1214:	ea 30       	cpi	r30, 0x0A	; 10
    1216:	10 f0       	brcs	.+4      	; 0x121c <USB_Device_ProcessControlRequest+0x1c4>
    1218:	c7 96       	adiw	r24, 0x37	; 55
    121a:	01 c0       	rjmp	.+2      	; 0x121e <USB_Device_ProcessControlRequest+0x1c6>
    121c:	c0 96       	adiw	r24, 0x30	; 48
    121e:	8d 93       	st	X+, r24
    1220:	9d 93       	st	X+, r25
				uint_reg_t CurrentGlobalInt = GetGlobalInterruptMask();
				GlobalInterruptDisable();

				uint8_t SigReadAddress = INTERNAL_SERIAL_START_ADDRESS;

				for (uint8_t SerialCharNum = 0; SerialCharNum < (INTERNAL_SERIAL_LENGTH_BITS / 4); SerialCharNum++)
    1222:	2f 5f       	subi	r18, 0xFF	; 255
    1224:	24 31       	cpi	r18, 0x14	; 20
    1226:	49 f7       	brne	.-46     	; 0x11fa <USB_Device_ProcessControlRequest+0x1a2>
			static inline void SetGlobalInterruptMask(const uint_reg_t GlobalIntState)
			{
				GCC_MEMORY_BARRIER();

				#if (ARCH == ARCH_AVR8)
				SREG = GlobalIntState;
    1228:	4f bf       	out	0x3f, r20	; 63
			 *  \note This is not applicable for non CONTROL type endpoints.
			 */
			static inline void Endpoint_ClearSETUP(void) ATTR_ALWAYS_INLINE;
			static inline void Endpoint_ClearSETUP(void)
			{
				UEINTX &= ~(1 << RXSTPI);
    122a:	80 91 e8 00 	lds	r24, 0x00E8
    122e:	87 7f       	andi	r24, 0xF7	; 247
    1230:	80 93 e8 00 	sts	0x00E8, r24

	USB_Device_GetSerialString(SignatureDescriptor.UnicodeString);

	Endpoint_ClearSETUP();

	Endpoint_Write_Control_Stream_LE(&SignatureDescriptor, sizeof(SignatureDescriptor));
    1234:	6a e2       	ldi	r22, 0x2A	; 42
    1236:	70 e0       	ldi	r23, 0x00	; 0
    1238:	ce 01       	movw	r24, r28
    123a:	01 96       	adiw	r24, 0x01	; 1
    123c:	0e dc       	rcall	.-2020   	; 0xa5a <Endpoint_Write_Control_Stream_LE>
    123e:	12 c0       	rjmp	.+36     	; 0x1264 <USB_Device_ProcessControlRequest+0x20c>
		USB_Device_GetInternalSerialDescriptor();
		return;
	}
	#endif

	if ((DescriptorSize = CALLBACK_USB_GetDescriptor(USB_ControlRequest.wValue, USB_ControlRequest.wIndex,
    1240:	ae 01       	movw	r20, r28
    1242:	4f 5f       	subi	r20, 0xFF	; 255
    1244:	5f 4f       	sbci	r21, 0xFF	; 255
    1246:	60 91 34 02 	lds	r22, 0x0234
    124a:	21 d8       	rcall	.-4030   	; 0x28e <CALLBACK_USB_GetDescriptor>
    124c:	bc 01       	movw	r22, r24
    124e:	89 2b       	or	r24, r25
    1250:	09 f4       	brne	.+2      	; 0x1254 <USB_Device_ProcessControlRequest+0x1fc>
    1252:	3c c0       	rjmp	.+120    	; 0x12cc <USB_Device_ProcessControlRequest+0x274>
    1254:	90 91 e8 00 	lds	r25, 0x00E8
    1258:	97 7f       	andi	r25, 0xF7	; 247
    125a:	90 93 e8 00 	sts	0x00E8, r25
	#if defined(USE_RAM_DESCRIPTORS) || !defined(ARCH_HAS_MULTI_ADDRESS_SPACE)
	Endpoint_Write_Control_Stream_LE(DescriptorPointer, DescriptorSize);
	#elif defined(USE_EEPROM_DESCRIPTORS)
	Endpoint_Write_Control_EStream_LE(DescriptorPointer, DescriptorSize);
	#elif defined(USE_FLASH_DESCRIPTORS)
	Endpoint_Write_Control_PStream_LE(DescriptorPointer, DescriptorSize);
    125e:	89 81       	ldd	r24, Y+1	; 0x01
    1260:	9a 81       	ldd	r25, Y+2	; 0x02
    1262:	5e dc       	rcall	.-1860   	; 0xb20 <Endpoint_Write_Control_PStream_LE>
			 */
			static inline void Endpoint_ClearOUT(void) ATTR_ALWAYS_INLINE;
			static inline void Endpoint_ClearOUT(void)
			{
				#if !defined(CONTROL_ONLY_DEVICE)
					UEINTX &= ~((1 << RXOUTI) | (1 << FIFOCON));
    1264:	80 91 e8 00 	lds	r24, 0x00E8
    1268:	8b 77       	andi	r24, 0x7B	; 123
    126a:	80 93 e8 00 	sts	0x00E8, r24
    126e:	2e c0       	rjmp	.+92     	; 0x12cc <USB_Device_ProcessControlRequest+0x274>
					USB_Device_GetDescriptor();
				}

				break;
			case REQ_GetConfiguration:
				if (bmRequestType == (REQDIR_DEVICETOHOST | REQTYPE_STANDARD | REQREC_DEVICE))
    1270:	80 38       	cpi	r24, 0x80	; 128
    1272:	61 f5       	brne	.+88     	; 0x12cc <USB_Device_ProcessControlRequest+0x274>
			 *  \note This is not applicable for non CONTROL type endpoints.
			 */
			static inline void Endpoint_ClearSETUP(void) ATTR_ALWAYS_INLINE;
			static inline void Endpoint_ClearSETUP(void)
			{
				UEINTX &= ~(1 << RXSTPI);
    1274:	80 91 e8 00 	lds	r24, 0x00E8
    1278:	87 7f       	andi	r24, 0xF7	; 247
    127a:	80 93 e8 00 	sts	0x00E8, r24

static void USB_Device_GetConfiguration(void)
{
	Endpoint_ClearSETUP();

	Endpoint_Write_8(USB_Device_ConfigurationNumber);
    127e:	80 91 2b 02 	lds	r24, 0x022B
			 *  \param[in] Data  Data to write into the the currently selected endpoint's FIFO buffer.
			 */
			static inline void Endpoint_Write_8(const uint8_t Data) ATTR_ALWAYS_INLINE;
			static inline void Endpoint_Write_8(const uint8_t Data)
			{
				UEDATX = Data;
    1282:	80 93 f1 00 	sts	0x00F1, r24
			 */
			static inline void Endpoint_ClearIN(void) ATTR_ALWAYS_INLINE;
			static inline void Endpoint_ClearIN(void)
			{
				#if !defined(CONTROL_ONLY_DEVICE)
					UEINTX &= ~((1 << TXINI) | (1 << FIFOCON));
    1286:	80 91 e8 00 	lds	r24, 0x00E8
    128a:	8e 77       	andi	r24, 0x7E	; 126
    128c:	80 93 e8 00 	sts	0x00E8, r24
	Endpoint_ClearIN();

	Endpoint_ClearStatusStage();
    1290:	25 dd       	rcall	.-1462   	; 0xcdc <Endpoint_ClearStatusStage>
    1292:	1c c0       	rjmp	.+56     	; 0x12cc <USB_Device_ProcessControlRequest+0x274>
				if (bmRequestType == (REQDIR_DEVICETOHOST | REQTYPE_STANDARD | REQREC_DEVICE))
				  USB_Device_GetConfiguration();

				break;
			case REQ_SetConfiguration:
				if (bmRequestType == (REQDIR_HOSTTODEVICE | REQTYPE_STANDARD | REQREC_DEVICE))
    1294:	81 11       	cpse	r24, r1
    1296:	1a c0       	rjmp	.+52     	; 0x12cc <USB_Device_ProcessControlRequest+0x274>
}

static void USB_Device_SetConfiguration(void)
{
	#if defined(FIXED_NUM_CONFIGURATIONS)
	if ((uint8_t)USB_ControlRequest.wValue > FIXED_NUM_CONFIGURATIONS)
    1298:	90 91 32 02 	lds	r25, 0x0232
    129c:	92 30       	cpi	r25, 0x02	; 2
    129e:	b0 f4       	brcc	.+44     	; 0x12cc <USB_Device_ProcessControlRequest+0x274>
			 *  \note This is not applicable for non CONTROL type endpoints.
			 */
			static inline void Endpoint_ClearSETUP(void) ATTR_ALWAYS_INLINE;
			static inline void Endpoint_ClearSETUP(void)
			{
				UEINTX &= ~(1 << RXSTPI);
    12a0:	80 91 e8 00 	lds	r24, 0x00E8
    12a4:	87 7f       	andi	r24, 0xF7	; 247
    12a6:	80 93 e8 00 	sts	0x00E8, r24
	#endif
	#endif

	Endpoint_ClearSETUP();

	USB_Device_ConfigurationNumber = (uint8_t)USB_ControlRequest.wValue;
    12aa:	90 93 2b 02 	sts	0x022B, r25

	Endpoint_ClearStatusStage();
    12ae:	16 dd       	rcall	.-1492   	; 0xcdc <Endpoint_ClearStatusStage>

	if (USB_Device_ConfigurationNumber)
    12b0:	80 91 2b 02 	lds	r24, 0x022B
    12b4:	81 11       	cpse	r24, r1
    12b6:	06 c0       	rjmp	.+12     	; 0x12c4 <USB_Device_ProcessControlRequest+0x26c>
			}

			static inline bool USB_Device_IsAddressSet(void) ATTR_ALWAYS_INLINE ATTR_WARN_UNUSED_RESULT;
			static inline bool USB_Device_IsAddressSet(void)
			{
				return (UDADDR & (1 << ADDEN));
    12b8:	80 91 e3 00 	lds	r24, 0x00E3
	  USB_DeviceState = DEVICE_STATE_Configured;
	else
	  USB_DeviceState = (USB_Device_IsAddressSet()) ? DEVICE_STATE_Configured : DEVICE_STATE_Powered;
    12bc:	87 fd       	sbrc	r24, 7
    12be:	02 c0       	rjmp	.+4      	; 0x12c4 <USB_Device_ProcessControlRequest+0x26c>
    12c0:	81 e0       	ldi	r24, 0x01	; 1
    12c2:	01 c0       	rjmp	.+2      	; 0x12c6 <USB_Device_ProcessControlRequest+0x26e>
    12c4:	84 e0       	ldi	r24, 0x04	; 4
    12c6:	80 93 2f 02 	sts	0x022F, r24

	EVENT_USB_Device_ConfigurationChanged();
    12ca:	b5 d6       	rcall	.+3434   	; 0x2036 <EVENT_USB_Device_ConfigurationChanged>
			 *  \return Boolean \c true if the selected endpoint has received a SETUP packet, \c false otherwise.
			 */
			static inline bool Endpoint_IsSETUPReceived(void) ATTR_WARN_UNUSED_RESULT ATTR_ALWAYS_INLINE;
			static inline bool Endpoint_IsSETUPReceived(void)
			{
				return ((UEINTX & (1 << RXSTPI)) ? true : false);
    12cc:	80 91 e8 00 	lds	r24, 0x00E8
			default:
				break;
		}
	}

	if (Endpoint_IsSETUPReceived())
    12d0:	83 ff       	sbrs	r24, 3
    12d2:	0a c0       	rjmp	.+20     	; 0x12e8 <USB_Device_ProcessControlRequest+0x290>
			 *  \note This is not applicable for non CONTROL type endpoints.
			 */
			static inline void Endpoint_ClearSETUP(void) ATTR_ALWAYS_INLINE;
			static inline void Endpoint_ClearSETUP(void)
			{
				UEINTX &= ~(1 << RXSTPI);
    12d4:	80 91 e8 00 	lds	r24, 0x00E8
    12d8:	87 7f       	andi	r24, 0xF7	; 247
    12da:	80 93 e8 00 	sts	0x00E8, r24
			 *  \ingroup Group_EndpointPacketManagement_AVR8
			 */
			static inline void Endpoint_StallTransaction(void) ATTR_ALWAYS_INLINE;
			static inline void Endpoint_StallTransaction(void)
			{
				UECONX |= (1 << STALLRQ);
    12de:	80 91 eb 00 	lds	r24, 0x00EB
    12e2:	80 62       	ori	r24, 0x20	; 32
    12e4:	80 93 eb 00 	sts	0x00EB, r24
	{
		Endpoint_ClearSETUP();
		Endpoint_StallTransaction();
	}
}
    12e8:	aa 96       	adiw	r28, 0x2a	; 42
    12ea:	0f b6       	in	r0, 0x3f	; 63
    12ec:	f8 94       	cli
    12ee:	de bf       	out	0x3e, r29	; 62
    12f0:	0f be       	out	0x3f, r0	; 63
    12f2:	cd bf       	out	0x3d, r28	; 61
    12f4:	df 91       	pop	r29
    12f6:	cf 91       	pop	r28
    12f8:	1f 91       	pop	r17
    12fa:	08 95       	ret

000012fc <USB_Event_Stub>:
#define  __INCLUDE_FROM_EVENTS_C
#define  __INCLUDE_FROM_USB_DRIVER
#include "Events.h"

void USB_Event_Stub(void)
{
    12fc:	08 95       	ret

000012fe <USB_USBTask>:
#if defined(USB_CAN_BE_DEVICE) && !defined(DEVICE_STATE_AS_GPIOR)
volatile uint8_t     USB_DeviceState;
#endif

void USB_USBTask(void)
{
    12fe:	cf 93       	push	r28
}

#if defined(USB_CAN_BE_DEVICE)
static void USB_DeviceTask(void)
{
	if (USB_DeviceState == DEVICE_STATE_Unattached)
    1300:	80 91 2f 02 	lds	r24, 0x022F
    1304:	88 23       	and	r24, r24
    1306:	99 f0       	breq	.+38     	; 0x132e <USB_USBTask+0x30>
			 */
			static inline uint8_t Endpoint_GetCurrentEndpoint(void) ATTR_WARN_UNUSED_RESULT ATTR_ALWAYS_INLINE;
			static inline uint8_t Endpoint_GetCurrentEndpoint(void)
			{
				#if !defined(CONTROL_ONLY_DEVICE)
					return ((UENUM & ENDPOINT_EPNUM_MASK) | Endpoint_GetEndpointDirection());
    1308:	c0 91 e9 00 	lds	r28, 0x00E9
    130c:	cf 70       	andi	r28, 0x0F	; 15
			 *  \return The currently selected endpoint's direction, as a \c ENDPOINT_DIR_* mask.
			 */
			static inline uint8_t Endpoint_GetEndpointDirection(void) ATTR_WARN_UNUSED_RESULT ATTR_ALWAYS_INLINE;
			static inline uint8_t Endpoint_GetEndpointDirection(void)
			{
				return (UECFG0X & (1 << EPDIR)) ? ENDPOINT_DIR_IN : ENDPOINT_DIR_OUT;
    130e:	90 91 ec 00 	lds	r25, 0x00EC
    1312:	89 2f       	mov	r24, r25
    1314:	81 70       	andi	r24, 0x01	; 1
    1316:	90 fd       	sbrc	r25, 0
    1318:	80 e8       	ldi	r24, 0x80	; 128
			 */
			static inline uint8_t Endpoint_GetCurrentEndpoint(void) ATTR_WARN_UNUSED_RESULT ATTR_ALWAYS_INLINE;
			static inline uint8_t Endpoint_GetCurrentEndpoint(void)
			{
				#if !defined(CONTROL_ONLY_DEVICE)
					return ((UENUM & ENDPOINT_EPNUM_MASK) | Endpoint_GetEndpointDirection());
    131a:	c8 2b       	or	r28, r24
			 */
			static inline void Endpoint_SelectEndpoint(const uint8_t Address) ATTR_ALWAYS_INLINE;
			static inline void Endpoint_SelectEndpoint(const uint8_t Address)
			{
				#if !defined(CONTROL_ONLY_DEVICE)
					UENUM = (Address & ENDPOINT_EPNUM_MASK);
    131c:	10 92 e9 00 	sts	0x00E9, r1
			 *  \return Boolean \c true if the selected endpoint has received a SETUP packet, \c false otherwise.
			 */
			static inline bool Endpoint_IsSETUPReceived(void) ATTR_WARN_UNUSED_RESULT ATTR_ALWAYS_INLINE;
			static inline bool Endpoint_IsSETUPReceived(void)
			{
				return ((UEINTX & (1 << RXSTPI)) ? true : false);
    1320:	80 91 e8 00 	lds	r24, 0x00E8

	uint8_t PrevEndpoint = Endpoint_GetCurrentEndpoint();

	Endpoint_SelectEndpoint(ENDPOINT_CONTROLEP);

	if (Endpoint_IsSETUPReceived())
    1324:	83 fd       	sbrc	r24, 3
	  USB_Device_ProcessControlRequest();
    1326:	98 de       	rcall	.-720    	; 0x1058 <USB_Device_ProcessControlRequest>
			 */
			static inline void Endpoint_SelectEndpoint(const uint8_t Address) ATTR_ALWAYS_INLINE;
			static inline void Endpoint_SelectEndpoint(const uint8_t Address)
			{
				#if !defined(CONTROL_ONLY_DEVICE)
					UENUM = (Address & ENDPOINT_EPNUM_MASK);
    1328:	cf 70       	andi	r28, 0x0F	; 15
    132a:	c0 93 e9 00 	sts	0x00E9, r28
	#elif defined(USB_CAN_BE_HOST)
		USB_HostTask();
	#elif defined(USB_CAN_BE_DEVICE)
		USB_DeviceTask();
	#endif
}
    132e:	cf 91       	pop	r28
    1330:	08 95       	ret

00001332 <set_const>:
	menu oldmode = test;
	menu Show = normal;
	menu oldShow = normal;
	
void set_const()
{
    1332:	2f 92       	push	r2
    1334:	3f 92       	push	r3
    1336:	4f 92       	push	r4
    1338:	5f 92       	push	r5
    133a:	6f 92       	push	r6
    133c:	7f 92       	push	r7
    133e:	8f 92       	push	r8
    1340:	9f 92       	push	r9
    1342:	af 92       	push	r10
    1344:	bf 92       	push	r11
    1346:	cf 92       	push	r12
    1348:	df 92       	push	r13
    134a:	ef 92       	push	r14
    134c:	ff 92       	push	r15
    134e:	0f 93       	push	r16
    1350:	1f 93       	push	r17
    1352:	cf 93       	push	r28
    1354:	df 93       	push	r29
    1356:	cd b7       	in	r28, 0x3d	; 61
    1358:	de b7       	in	r29, 0x3e	; 62
    135a:	a6 97       	sbiw	r28, 0x26	; 38
    135c:	0f b6       	in	r0, 0x3f	; 63
    135e:	f8 94       	cli
    1360:	de bf       	out	0x3e, r29	; 62
    1362:	0f be       	out	0x3f, r0	; 63
    1364:	cd bf       	out	0x3d, r28	; 61
	uint8_t stat = 1;
	uint8_t P_max_ok = 0;
	uint8_t P_min_ok = 0;
	uint8_t P_ok = 0;
	uint8_t T_reg_ok = 0;
	pressure_max = eeprom_read_word(&pressure_max_eep);
    1366:	82 e0       	ldi	r24, 0x02	; 2
    1368:	90 e0       	ldi	r25, 0x00	; 0
    136a:	0e 94 f4 16 	call	0x2de8	; 0x2de8 <eeprom_read_word>
    136e:	90 93 1a 02 	sts	0x021A, r25
    1372:	80 93 19 02 	sts	0x0219, r24
	pressure_min = eeprom_read_word(&pressure_min_eep);
    1376:	84 e0       	ldi	r24, 0x04	; 4
    1378:	90 e0       	ldi	r25, 0x00	; 0
    137a:	0e 94 f4 16 	call	0x2de8	; 0x2de8 <eeprom_read_word>
    137e:	90 93 18 02 	sts	0x0218, r25
    1382:	80 93 17 02 	sts	0x0217, r24
	time_of_regulator = eeprom_read_word(&time_of_regulator_eep);
    1386:	80 e0       	ldi	r24, 0x00	; 0
    1388:	90 e0       	ldi	r25, 0x00	; 0
    138a:	0e 94 f4 16 	call	0x2de8	; 0x2de8 <eeprom_read_word>
    138e:	90 93 16 02 	sts	0x0216, r25
    1392:	80 93 15 02 	sts	0x0215, r24
void set_const()
{
	uint8_t stat = 1;
	uint8_t P_max_ok = 0;
	uint8_t P_min_ok = 0;
	uint8_t P_ok = 0;
    1396:	51 2c       	mov	r5, r1
	
void set_const()
{
	uint8_t stat = 1;
	uint8_t P_max_ok = 0;
	uint8_t P_min_ok = 0;
    1398:	41 2c       	mov	r4, r1
	menu oldShow = normal;
	
void set_const()
{
	uint8_t stat = 1;
	uint8_t P_max_ok = 0;
    139a:	31 2c       	mov	r3, r1
			while(!P_min_ok)
			{
				
				float pressure_atm = ConvToAtm(pressure_mid);
				char temp[30];
				sprintf(temp, "P min: %.2f aїј", pressure_atm);
    139c:	29 e2       	ldi	r18, 0x29	; 41
    139e:	62 2e       	mov	r6, r18
    13a0:	21 e0       	ldi	r18, 0x01	; 1
    13a2:	72 2e       	mov	r7, r18
    13a4:	8e 01       	movw	r16, r28
    13a6:	0f 5f       	subi	r16, 0xFF	; 255
    13a8:	1f 4f       	sbci	r17, 0xFF	; 255
			while(!P_max_ok)
			{
				
				float pressure_atm = ConvToAtm(pressure_mid);
				char temp[30];
				sprintf(temp, "P max: %.2f aїј", pressure_atm);
    13aa:	39 e3       	ldi	r19, 0x39	; 57
    13ac:	c3 2e       	mov	r12, r19
    13ae:	31 e0       	ldi	r19, 0x01	; 1
    13b0:	d3 2e       	mov	r13, r19
						eeprom_update_word(&pressure_min_eep,pressure_mid);
						pressure_min = eeprom_read_word(&pressure_min_eep);
						P_min_ok = 1;
						if (pressure_max == 0)
						{
							pressure_mid = 41;
    13b2:	49 e2       	ldi	r20, 0x29	; 41
    13b4:	e4 2e       	mov	r14, r20
    13b6:	f1 2c       	mov	r15, r1
			}
		}
		while (!T_reg_ok)
		{
			char temp[30];
			sprintf(temp, "T Reg: %3.0d c", time_of_regulator);
    13b8:	5d e5       	ldi	r21, 0x5D	; 93
    13ba:	a5 2e       	mov	r10, r21
    13bc:	51 e0       	ldi	r21, 0x01	; 1
    13be:	b5 2e       	mov	r11, r21
	menu oldShow = normal;
	
void set_const()
{
	uint8_t stat = 1;
	uint8_t P_max_ok = 0;
    13c0:	95 2c       	mov	r9, r5
						pressure_max = pressure_mid;
						if (pressure_min > pressure_max)
						{
							
							LCD_Clear();
							char Error[] = {0x4F,0xC1,0xB8,0xB2,0xBA,0x61,0x21,0x00};
    13c2:	98 e0       	ldi	r25, 0x08	; 8
    13c4:	89 2e       	mov	r8, r25
	pressure_min = eeprom_read_word(&pressure_min_eep);
	time_of_regulator = eeprom_read_word(&time_of_regulator_eep);
	
	while(stat)
	{
		while(!P_ok)
    13c6:	91 10       	cpse	r9, r1
    13c8:	a1 c1       	rjmp	.+834    	; 0x170c <set_const+0x3da>
		{
			if (pressure_min == 0)
    13ca:	80 91 17 02 	lds	r24, 0x0217
    13ce:	90 91 18 02 	lds	r25, 0x0218
    13d2:	89 2b       	or	r24, r25
    13d4:	29 f4       	brne	.+10     	; 0x13e0 <set_const+0xae>
			{
				pressure_mid = 41;
    13d6:	f0 92 05 01 	sts	0x0105, r15
    13da:	e0 92 04 01 	sts	0x0104, r14
    13de:	3e c0       	rjmp	.+124    	; 0x145c <set_const+0x12a>
			}
			else pressure_mid = pressure_min;
    13e0:	80 91 17 02 	lds	r24, 0x0217
    13e4:	90 91 18 02 	lds	r25, 0x0218
    13e8:	90 93 05 01 	sts	0x0105, r25
    13ec:	80 93 04 01 	sts	0x0104, r24
    13f0:	35 c0       	rjmp	.+106    	; 0x145c <set_const+0x12a>
			while(!P_min_ok)
			{
				
				float pressure_atm = ConvToAtm(pressure_mid);
    13f2:	60 91 04 01 	lds	r22, 0x0104
    13f6:	70 91 05 01 	lds	r23, 0x0105
    13fa:	80 e0       	ldi	r24, 0x00	; 0
    13fc:	90 e0       	ldi	r25, 0x00	; 0
    13fe:	88 d6       	rcall	.+3344   	; 0x2110 <__floatunsisf>
    1400:	27 e2       	ldi	r18, 0x27	; 39
    1402:	3e e9       	ldi	r19, 0x9E	; 158
    1404:	45 ef       	ldi	r20, 0xF5	; 245
    1406:	5b e3       	ldi	r21, 0x3B	; 59
    1408:	11 d7       	rcall	.+3618   	; 0x222c <__mulsf3>
    140a:	28 e0       	ldi	r18, 0x08	; 8
    140c:	32 e3       	ldi	r19, 0x32	; 50
    140e:	4d e9       	ldi	r20, 0x9D	; 157
    1410:	5e e3       	ldi	r21, 0x3E	; 62
    1412:	19 d6       	rcall	.+3122   	; 0x2046 <__subsf3>
				char temp[30];
				sprintf(temp, "P min: %.2f aїј", pressure_atm);
    1414:	9f 93       	push	r25
    1416:	8f 93       	push	r24
    1418:	7f 93       	push	r23
    141a:	6f 93       	push	r22
    141c:	7f 92       	push	r7
    141e:	6f 92       	push	r6
    1420:	1f 93       	push	r17
    1422:	0f 93       	push	r16
    1424:	0e 94 6e 16 	call	0x2cdc	; 0x2cdc <sprintf>
				LCD_Goto(0,0);
    1428:	80 e8       	ldi	r24, 0x80	; 128
    142a:	0e 94 d5 01 	call	0x3aa	; 0x3aa <LCD_WriteCom>
				LCD_SendStr(temp);
    142e:	c8 01       	movw	r24, r16
    1430:	0e 94 12 02 	call	0x424	; 0x424 <LCD_SendStr>
				if (but_ok_IsSet())
    1434:	0f b6       	in	r0, 0x3f	; 63
    1436:	f8 94       	cli
    1438:	de bf       	out	0x3e, r29	; 62
    143a:	0f be       	out	0x3f, r0	; 63
    143c:	cd bf       	out	0x3d, r28	; 61
    143e:	37 9b       	sbis	0x06, 7	; 6
    1440:	10 c0       	rjmp	.+32     	; 0x1462 <set_const+0x130>
						}
						else pressure_mid = pressure_max;
					}
					
				}
				if (but_plus_IsSet())
    1442:	36 9b       	sbis	0x06, 6	; 6
    1444:	3f c0       	rjmp	.+126    	; 0x14c4 <set_const+0x192>
					if (but_plus_IsSet())
					{
						pressure_mid++;
					}
				}
				if (but_minus_IsSet())
    1446:	1e 9b       	sbis	0x03, 6	; 3
    1448:	52 c0       	rjmp	.+164    	; 0x14ee <set_const+0x1bc>
    144a:	9f ef       	ldi	r25, 0xFF	; 255
    144c:	27 ee       	ldi	r18, 0xE7	; 231
    144e:	83 e0       	ldi	r24, 0x03	; 3
    1450:	91 50       	subi	r25, 0x01	; 1
    1452:	20 40       	sbci	r18, 0x00	; 0
    1454:	80 40       	sbci	r24, 0x00	; 0
    1456:	e1 f7       	brne	.-8      	; 0x1450 <set_const+0x11e>
    1458:	00 c0       	rjmp	.+0      	; 0x145a <set_const+0x128>
    145a:	00 00       	nop
			if (pressure_min == 0)
			{
				pressure_mid = 41;
			}
			else pressure_mid = pressure_min;
			while(!P_min_ok)
    145c:	44 20       	and	r4, r4
    145e:	49 f2       	breq	.-110    	; 0x13f2 <set_const+0xc0>
    1460:	92 c0       	rjmp	.+292    	; 0x1586 <set_const+0x254>
    1462:	9f ef       	ldi	r25, 0xFF	; 255
    1464:	2a e6       	ldi	r18, 0x6A	; 106
    1466:	83 e0       	ldi	r24, 0x03	; 3
    1468:	91 50       	subi	r25, 0x01	; 1
    146a:	20 40       	sbci	r18, 0x00	; 0
    146c:	80 40       	sbci	r24, 0x00	; 0
    146e:	e1 f7       	brne	.-8      	; 0x1468 <set_const+0x136>
    1470:	00 c0       	rjmp	.+0      	; 0x1472 <set_const+0x140>
    1472:	00 00       	nop
				LCD_Goto(0,0);
				LCD_SendStr(temp);
				if (but_ok_IsSet())
				{
					_delay_ms(70);
					if (but_ok_IsSet())
    1474:	37 99       	sbic	0x06, 7	; 6
    1476:	e5 cf       	rjmp	.-54     	; 0x1442 <set_const+0x110>
					{
						eeprom_update_word(&pressure_min_eep,pressure_mid);
    1478:	60 91 04 01 	lds	r22, 0x0104
    147c:	70 91 05 01 	lds	r23, 0x0105
    1480:	84 e0       	ldi	r24, 0x04	; 4
    1482:	90 e0       	ldi	r25, 0x00	; 0
    1484:	0e 94 0b 17 	call	0x2e16	; 0x2e16 <eeprom_update_word>
						pressure_min = eeprom_read_word(&pressure_min_eep);
    1488:	84 e0       	ldi	r24, 0x04	; 4
    148a:	90 e0       	ldi	r25, 0x00	; 0
    148c:	0e 94 f4 16 	call	0x2de8	; 0x2de8 <eeprom_read_word>
    1490:	90 93 18 02 	sts	0x0218, r25
    1494:	80 93 17 02 	sts	0x0217, r24
						P_min_ok = 1;
						if (pressure_max == 0)
    1498:	80 91 19 02 	lds	r24, 0x0219
    149c:	90 91 1a 02 	lds	r25, 0x021A
    14a0:	89 2b       	or	r24, r25
    14a2:	29 f4       	brne	.+10     	; 0x14ae <set_const+0x17c>
						{
							pressure_mid = 41;
    14a4:	f0 92 05 01 	sts	0x0105, r15
    14a8:	e0 92 04 01 	sts	0x0104, r14
    14ac:	08 c0       	rjmp	.+16     	; 0x14be <set_const+0x18c>
						}
						else pressure_mid = pressure_max;
    14ae:	80 91 19 02 	lds	r24, 0x0219
    14b2:	90 91 1a 02 	lds	r25, 0x021A
    14b6:	90 93 05 01 	sts	0x0105, r25
    14ba:	80 93 04 01 	sts	0x0104, r24
					_delay_ms(70);
					if (but_ok_IsSet())
					{
						eeprom_update_word(&pressure_min_eep,pressure_mid);
						pressure_min = eeprom_read_word(&pressure_min_eep);
						P_min_ok = 1;
    14be:	44 24       	eor	r4, r4
    14c0:	43 94       	inc	r4
    14c2:	bf cf       	rjmp	.-130    	; 0x1442 <set_const+0x110>
    14c4:	9f ef       	ldi	r25, 0xFF	; 255
    14c6:	2a e6       	ldi	r18, 0x6A	; 106
    14c8:	83 e0       	ldi	r24, 0x03	; 3
    14ca:	91 50       	subi	r25, 0x01	; 1
    14cc:	20 40       	sbci	r18, 0x00	; 0
    14ce:	80 40       	sbci	r24, 0x00	; 0
    14d0:	e1 f7       	brne	.-8      	; 0x14ca <set_const+0x198>
    14d2:	00 c0       	rjmp	.+0      	; 0x14d4 <set_const+0x1a2>
    14d4:	00 00       	nop
					
				}
				if (but_plus_IsSet())
				{
					_delay_ms(70);
					if (but_plus_IsSet())
    14d6:	36 99       	sbic	0x06, 6	; 6
    14d8:	b6 cf       	rjmp	.-148    	; 0x1446 <set_const+0x114>
					{
						pressure_mid++;
    14da:	80 91 04 01 	lds	r24, 0x0104
    14de:	90 91 05 01 	lds	r25, 0x0105
    14e2:	01 96       	adiw	r24, 0x01	; 1
    14e4:	90 93 05 01 	sts	0x0105, r25
    14e8:	80 93 04 01 	sts	0x0104, r24
    14ec:	ac cf       	rjmp	.-168    	; 0x1446 <set_const+0x114>
    14ee:	9f ef       	ldi	r25, 0xFF	; 255
    14f0:	2a e6       	ldi	r18, 0x6A	; 106
    14f2:	83 e0       	ldi	r24, 0x03	; 3
    14f4:	91 50       	subi	r25, 0x01	; 1
    14f6:	20 40       	sbci	r18, 0x00	; 0
    14f8:	80 40       	sbci	r24, 0x00	; 0
    14fa:	e1 f7       	brne	.-8      	; 0x14f4 <set_const+0x1c2>
    14fc:	00 c0       	rjmp	.+0      	; 0x14fe <set_const+0x1cc>
    14fe:	00 00       	nop
					}
				}
				if (but_minus_IsSet())
				{
					_delay_ms(70);
					if (but_minus_IsSet())
    1500:	1e 99       	sbic	0x03, 6	; 3
    1502:	a3 cf       	rjmp	.-186    	; 0x144a <set_const+0x118>
					{
						if (pressure_mid>41)
    1504:	80 91 04 01 	lds	r24, 0x0104
    1508:	90 91 05 01 	lds	r25, 0x0105
    150c:	8a 97       	sbiw	r24, 0x2a	; 42
    150e:	50 f0       	brcs	.+20     	; 0x1524 <set_const+0x1f2>
						pressure_mid--;
    1510:	80 91 04 01 	lds	r24, 0x0104
    1514:	90 91 05 01 	lds	r25, 0x0105
    1518:	01 97       	sbiw	r24, 0x01	; 1
    151a:	90 93 05 01 	sts	0x0105, r25
    151e:	80 93 04 01 	sts	0x0104, r24
    1522:	93 cf       	rjmp	.-218    	; 0x144a <set_const+0x118>
						else pressure_mid = 41;
    1524:	f0 92 05 01 	sts	0x0105, r15
    1528:	e0 92 04 01 	sts	0x0104, r14
    152c:	8e cf       	rjmp	.-228    	; 0x144a <set_const+0x118>
				_delay_ms(80);
			}
			while(!P_max_ok)
			{
				
				float pressure_atm = ConvToAtm(pressure_mid);
    152e:	60 91 04 01 	lds	r22, 0x0104
    1532:	70 91 05 01 	lds	r23, 0x0105
    1536:	80 e0       	ldi	r24, 0x00	; 0
    1538:	90 e0       	ldi	r25, 0x00	; 0
    153a:	ea d5       	rcall	.+3028   	; 0x2110 <__floatunsisf>
    153c:	27 e2       	ldi	r18, 0x27	; 39
    153e:	3e e9       	ldi	r19, 0x9E	; 158
    1540:	45 ef       	ldi	r20, 0xF5	; 245
    1542:	5b e3       	ldi	r21, 0x3B	; 59
    1544:	73 d6       	rcall	.+3302   	; 0x222c <__mulsf3>
    1546:	28 e0       	ldi	r18, 0x08	; 8
    1548:	32 e3       	ldi	r19, 0x32	; 50
    154a:	4d e9       	ldi	r20, 0x9D	; 157
    154c:	5e e3       	ldi	r21, 0x3E	; 62
    154e:	7b d5       	rcall	.+2806   	; 0x2046 <__subsf3>
				char temp[30];
				sprintf(temp, "P max: %.2f aїј", pressure_atm);
    1550:	9f 93       	push	r25
    1552:	8f 93       	push	r24
    1554:	7f 93       	push	r23
    1556:	6f 93       	push	r22
    1558:	df 92       	push	r13
    155a:	cf 92       	push	r12
    155c:	1f 93       	push	r17
    155e:	0f 93       	push	r16
    1560:	0e 94 6e 16 	call	0x2cdc	; 0x2cdc <sprintf>
				LCD_Goto(0,0);
    1564:	80 e8       	ldi	r24, 0x80	; 128
    1566:	0e 94 d5 01 	call	0x3aa	; 0x3aa <LCD_WriteCom>
				LCD_SendStr(temp);
    156a:	c8 01       	movw	r24, r16
    156c:	0e 94 12 02 	call	0x424	; 0x424 <LCD_SendStr>
				
				if (but_ok_IsSet())
    1570:	0f b6       	in	r0, 0x3f	; 63
    1572:	f8 94       	cli
    1574:	de bf       	out	0x3e, r29	; 62
    1576:	0f be       	out	0x3f, r0	; 63
    1578:	cd bf       	out	0x3d, r28	; 61
    157a:	37 9b       	sbis	0x06, 7	; 6
    157c:	07 c0       	rjmp	.+14     	; 0x158c <set_const+0x25a>
							P_ok = 1;
						}
						
					}
				}
				if (but_plus_IsSet())
    157e:	36 9b       	sbis	0x06, 6	; 6
    1580:	8b c0       	rjmp	.+278    	; 0x1698 <set_const+0x366>
					if (but_plus_IsSet())
					{
						pressure_mid++;
					}
				}
				if (but_minus_IsSet())
    1582:	1e 9b       	sbis	0x03, 6	; 3
    1584:	9e c0       	rjmp	.+316    	; 0x16c2 <set_const+0x390>
					}
				}
				
				_delay_ms(80);
			}
			while(!P_max_ok)
    1586:	33 20       	and	r3, r3
    1588:	91 f2       	breq	.-92     	; 0x152e <set_const+0x1fc>
    158a:	bb c0       	rjmp	.+374    	; 0x1702 <set_const+0x3d0>
    158c:	9f ef       	ldi	r25, 0xFF	; 255
    158e:	2a e6       	ldi	r18, 0x6A	; 106
    1590:	83 e0       	ldi	r24, 0x03	; 3
    1592:	91 50       	subi	r25, 0x01	; 1
    1594:	20 40       	sbci	r18, 0x00	; 0
    1596:	80 40       	sbci	r24, 0x00	; 0
    1598:	e1 f7       	brne	.-8      	; 0x1592 <set_const+0x260>
    159a:	00 c0       	rjmp	.+0      	; 0x159c <set_const+0x26a>
    159c:	00 00       	nop
				LCD_SendStr(temp);
				
				if (but_ok_IsSet())
				{
					_delay_ms(70);
					if (but_ok_IsSet())
    159e:	37 99       	sbic	0x06, 7	; 6
    15a0:	ee cf       	rjmp	.-36     	; 0x157e <set_const+0x24c>
					{ 
						pressure_max = pressure_mid;
    15a2:	80 91 04 01 	lds	r24, 0x0104
    15a6:	90 91 05 01 	lds	r25, 0x0105
    15aa:	90 93 1a 02 	sts	0x021A, r25
    15ae:	80 93 19 02 	sts	0x0219, r24
						if (pressure_min > pressure_max)
    15b2:	20 91 17 02 	lds	r18, 0x0217
    15b6:	30 91 18 02 	lds	r19, 0x0218
    15ba:	80 91 19 02 	lds	r24, 0x0219
    15be:	90 91 1a 02 	lds	r25, 0x021A
    15c2:	82 17       	cp	r24, r18
    15c4:	93 07       	cpc	r25, r19
    15c6:	c8 f5       	brcc	.+114    	; 0x163a <set_const+0x308>
						{
							
							LCD_Clear();
    15c8:	81 e0       	ldi	r24, 0x01	; 1
    15ca:	0e 94 d5 01 	call	0x3aa	; 0x3aa <LCD_WriteCom>
    15ce:	8f e3       	ldi	r24, 0x3F	; 63
    15d0:	9f e1       	ldi	r25, 0x1F	; 31
    15d2:	01 97       	sbiw	r24, 0x01	; 1
    15d4:	f1 f7       	brne	.-4      	; 0x15d2 <set_const+0x2a0>
    15d6:	00 c0       	rjmp	.+0      	; 0x15d8 <set_const+0x2a6>
    15d8:	00 00       	nop
							char Error[] = {0x4F,0xC1,0xB8,0xB2,0xBA,0x61,0x21,0x00};
    15da:	e1 e2       	ldi	r30, 0x21	; 33
    15dc:	f1 e0       	ldi	r31, 0x01	; 1
    15de:	de 01       	movw	r26, r28
    15e0:	5f 96       	adiw	r26, 0x1f	; 31
    15e2:	88 2d       	mov	r24, r8
    15e4:	01 90       	ld	r0, Z+
    15e6:	0d 92       	st	X+, r0
    15e8:	8a 95       	dec	r24
    15ea:	e1 f7       	brne	.-8      	; 0x15e4 <set_const+0x2b2>
							LCD_SendStr(Error);
    15ec:	ce 01       	movw	r24, r28
    15ee:	4f 96       	adiw	r24, 0x1f	; 31
    15f0:	0e 94 12 02 	call	0x424	; 0x424 <LCD_SendStr>
    15f4:	9f ef       	ldi	r25, 0xFF	; 255
    15f6:	2d e3       	ldi	r18, 0x3D	; 61
    15f8:	89 e4       	ldi	r24, 0x49	; 73
    15fa:	91 50       	subi	r25, 0x01	; 1
    15fc:	20 40       	sbci	r18, 0x00	; 0
    15fe:	80 40       	sbci	r24, 0x00	; 0
    1600:	e1 f7       	brne	.-8      	; 0x15fa <set_const+0x2c8>
    1602:	00 c0       	rjmp	.+0      	; 0x1604 <set_const+0x2d2>
    1604:	00 00       	nop
							_delay_ms(1500);
							LCD_ReturnHome();
    1606:	82 e0       	ldi	r24, 0x02	; 2
    1608:	0e 94 d5 01 	call	0x3aa	; 0x3aa <LCD_WriteCom>
							LCD_SendStr((char*)"P max < P min");
    160c:	89 e4       	ldi	r24, 0x49	; 73
    160e:	91 e0       	ldi	r25, 0x01	; 1
    1610:	0e 94 12 02 	call	0x424	; 0x424 <LCD_SendStr>
    1614:	9f ef       	ldi	r25, 0xFF	; 255
    1616:	2d e3       	ldi	r18, 0x3D	; 61
    1618:	89 e4       	ldi	r24, 0x49	; 73
    161a:	91 50       	subi	r25, 0x01	; 1
    161c:	20 40       	sbci	r18, 0x00	; 0
    161e:	80 40       	sbci	r24, 0x00	; 0
    1620:	e1 f7       	brne	.-8      	; 0x161a <set_const+0x2e8>
    1622:	00 c0       	rjmp	.+0      	; 0x1624 <set_const+0x2f2>
    1624:	00 00       	nop
// // 							eeprom_update_word(&pressure_max_eep,0);
// // 							eeprom_update_word(&pressure_min_eep,0);
// 							first_run = eeprom_read_byte(&first_run_eep);
// 							pressure_max = eeprom_read_word(&pressure_max_eep);
// 							pressure_min = eeprom_read_word(&pressure_min_eep);
							LCD_Clear();
    1626:	81 e0       	ldi	r24, 0x01	; 1
    1628:	0e 94 d5 01 	call	0x3aa	; 0x3aa <LCD_WriteCom>
    162c:	8f e3       	ldi	r24, 0x3F	; 63
    162e:	9f e1       	ldi	r25, 0x1F	; 31
    1630:	01 97       	sbiw	r24, 0x01	; 1
    1632:	f1 f7       	brne	.-4      	; 0x1630 <set_const+0x2fe>
    1634:	00 c0       	rjmp	.+0      	; 0x1636 <set_const+0x304>
    1636:	00 00       	nop
    1638:	a2 cf       	rjmp	.-188    	; 0x157e <set_const+0x24c>
						}
						else
						{
							eeprom_update_word(&pressure_max_eep,pressure_mid);
    163a:	60 91 04 01 	lds	r22, 0x0104
    163e:	70 91 05 01 	lds	r23, 0x0105
    1642:	82 e0       	ldi	r24, 0x02	; 2
    1644:	90 e0       	ldi	r25, 0x00	; 0
    1646:	0e 94 0b 17 	call	0x2e16	; 0x2e16 <eeprom_update_word>
							pressure_max = eeprom_read_word(&pressure_max_eep);
    164a:	82 e0       	ldi	r24, 0x02	; 2
    164c:	90 e0       	ldi	r25, 0x00	; 0
    164e:	0e 94 f4 16 	call	0x2de8	; 0x2de8 <eeprom_read_word>
    1652:	90 93 1a 02 	sts	0x021A, r25
    1656:	80 93 19 02 	sts	0x0219, r24
							pressure_mid = 0;
    165a:	10 92 05 01 	sts	0x0105, r1
    165e:	10 92 04 01 	sts	0x0104, r1
							P_max_ok = 1;
							LCD_Clear();
    1662:	81 e0       	ldi	r24, 0x01	; 1
    1664:	0e 94 d5 01 	call	0x3aa	; 0x3aa <LCD_WriteCom>
    1668:	8f e3       	ldi	r24, 0x3F	; 63
    166a:	9f e1       	ldi	r25, 0x1F	; 31
    166c:	01 97       	sbiw	r24, 0x01	; 1
    166e:	f1 f7       	brne	.-4      	; 0x166c <set_const+0x33a>
    1670:	00 c0       	rjmp	.+0      	; 0x1672 <set_const+0x340>
    1672:	00 00       	nop
							LCD_SendStr((char*)"P ok!");
    1674:	87 e5       	ldi	r24, 0x57	; 87
    1676:	91 e0       	ldi	r25, 0x01	; 1
    1678:	0e 94 12 02 	call	0x424	; 0x424 <LCD_SendStr>
    167c:	9f ef       	ldi	r25, 0xFF	; 255
    167e:	23 ed       	ldi	r18, 0xD3	; 211
    1680:	80 e3       	ldi	r24, 0x30	; 48
    1682:	91 50       	subi	r25, 0x01	; 1
    1684:	20 40       	sbci	r18, 0x00	; 0
    1686:	80 40       	sbci	r24, 0x00	; 0
    1688:	e1 f7       	brne	.-8      	; 0x1682 <set_const+0x350>
    168a:	00 c0       	rjmp	.+0      	; 0x168c <set_const+0x35a>
    168c:	00 00       	nop
							_delay_ms(1000);
							P_ok = 1;
    168e:	99 24       	eor	r9, r9
    1690:	93 94       	inc	r9
						else
						{
							eeprom_update_word(&pressure_max_eep,pressure_mid);
							pressure_max = eeprom_read_word(&pressure_max_eep);
							pressure_mid = 0;
							P_max_ok = 1;
    1692:	33 24       	eor	r3, r3
    1694:	33 94       	inc	r3
    1696:	73 cf       	rjmp	.-282    	; 0x157e <set_const+0x24c>
    1698:	9f ef       	ldi	r25, 0xFF	; 255
    169a:	2a e6       	ldi	r18, 0x6A	; 106
    169c:	83 e0       	ldi	r24, 0x03	; 3
    169e:	91 50       	subi	r25, 0x01	; 1
    16a0:	20 40       	sbci	r18, 0x00	; 0
    16a2:	80 40       	sbci	r24, 0x00	; 0
    16a4:	e1 f7       	brne	.-8      	; 0x169e <set_const+0x36c>
    16a6:	00 c0       	rjmp	.+0      	; 0x16a8 <set_const+0x376>
    16a8:	00 00       	nop
					}
				}
				if (but_plus_IsSet())
				{
					_delay_ms(70);
					if (but_plus_IsSet())
    16aa:	36 99       	sbic	0x06, 6	; 6
    16ac:	6a cf       	rjmp	.-300    	; 0x1582 <set_const+0x250>
					{
						pressure_mid++;
    16ae:	80 91 04 01 	lds	r24, 0x0104
    16b2:	90 91 05 01 	lds	r25, 0x0105
    16b6:	01 96       	adiw	r24, 0x01	; 1
    16b8:	90 93 05 01 	sts	0x0105, r25
    16bc:	80 93 04 01 	sts	0x0104, r24
    16c0:	60 cf       	rjmp	.-320    	; 0x1582 <set_const+0x250>
    16c2:	9f ef       	ldi	r25, 0xFF	; 255
    16c4:	2a e6       	ldi	r18, 0x6A	; 106
    16c6:	83 e0       	ldi	r24, 0x03	; 3
    16c8:	91 50       	subi	r25, 0x01	; 1
    16ca:	20 40       	sbci	r18, 0x00	; 0
    16cc:	80 40       	sbci	r24, 0x00	; 0
    16ce:	e1 f7       	brne	.-8      	; 0x16c8 <set_const+0x396>
    16d0:	00 c0       	rjmp	.+0      	; 0x16d2 <set_const+0x3a0>
    16d2:	00 00       	nop
					}
				}
				if (but_minus_IsSet())
				{
					_delay_ms(70);
					if (but_minus_IsSet())
    16d4:	1e 99       	sbic	0x03, 6	; 3
    16d6:	57 cf       	rjmp	.-338    	; 0x1586 <set_const+0x254>
					{
						if (pressure_mid>41)
    16d8:	80 91 04 01 	lds	r24, 0x0104
    16dc:	90 91 05 01 	lds	r25, 0x0105
    16e0:	8a 97       	sbiw	r24, 0x2a	; 42
    16e2:	50 f0       	brcs	.+20     	; 0x16f8 <set_const+0x3c6>
						pressure_mid--;
    16e4:	80 91 04 01 	lds	r24, 0x0104
    16e8:	90 91 05 01 	lds	r25, 0x0105
    16ec:	01 97       	sbiw	r24, 0x01	; 1
    16ee:	90 93 05 01 	sts	0x0105, r25
    16f2:	80 93 04 01 	sts	0x0104, r24
    16f6:	47 cf       	rjmp	.-370    	; 0x1586 <set_const+0x254>
						else pressure_mid = 41;
    16f8:	f0 92 05 01 	sts	0x0105, r15
    16fc:	e0 92 04 01 	sts	0x0104, r14
    1700:	42 cf       	rjmp	.-380    	; 0x1586 <set_const+0x254>
    1702:	33 24       	eor	r3, r3
    1704:	33 94       	inc	r3
    1706:	44 24       	eor	r4, r4
    1708:	43 94       	inc	r4
    170a:	5d ce       	rjmp	.-838    	; 0x13c6 <set_const+0x94>
	pressure_min = eeprom_read_word(&pressure_min_eep);
	time_of_regulator = eeprom_read_word(&time_of_regulator_eep);
	
	while(stat)
	{
		while(!P_ok)
    170c:	22 24       	eor	r2, r2
    170e:	23 94       	inc	r2
				_delay_ms(70);
				if (but_minus_IsSet())
				{
					if (time_of_regulator>1)
					time_of_regulator--;
					else time_of_regulator = 1;
    1710:	88 24       	eor	r8, r8
    1712:	83 94       	inc	r8
    1714:	91 2c       	mov	r9, r1
						else pressure_mid = 41;
					}
				}
			}
		}
		while (!T_reg_ok)
    1716:	51 10       	cpse	r5, r1
    1718:	84 c0       	rjmp	.+264    	; 0x1822 <set_const+0x4f0>
		{
			char temp[30];
			sprintf(temp, "T Reg: %3.0d c", time_of_regulator);
    171a:	80 91 15 02 	lds	r24, 0x0215
    171e:	90 91 16 02 	lds	r25, 0x0216
    1722:	9f 93       	push	r25
    1724:	8f 93       	push	r24
    1726:	bf 92       	push	r11
    1728:	af 92       	push	r10
    172a:	1f 93       	push	r17
    172c:	0f 93       	push	r16
    172e:	0e 94 6e 16 	call	0x2cdc	; 0x2cdc <sprintf>
			LCD_Goto(0,0);
    1732:	80 e8       	ldi	r24, 0x80	; 128
    1734:	0e 94 d5 01 	call	0x3aa	; 0x3aa <LCD_WriteCom>
			LCD_SendStr(temp);
    1738:	c8 01       	movw	r24, r16
    173a:	0e 94 12 02 	call	0x424	; 0x424 <LCD_SendStr>
			if (but_ok_IsSet())
    173e:	0f 90       	pop	r0
    1740:	0f 90       	pop	r0
    1742:	0f 90       	pop	r0
    1744:	0f 90       	pop	r0
    1746:	0f 90       	pop	r0
    1748:	0f 90       	pop	r0
    174a:	37 99       	sbic	0x06, 7	; 6
    174c:	32 c0       	rjmp	.+100    	; 0x17b2 <set_const+0x480>
    174e:	9f ef       	ldi	r25, 0xFF	; 255
    1750:	2a e6       	ldi	r18, 0x6A	; 106
    1752:	83 e0       	ldi	r24, 0x03	; 3
    1754:	91 50       	subi	r25, 0x01	; 1
    1756:	20 40       	sbci	r18, 0x00	; 0
    1758:	80 40       	sbci	r24, 0x00	; 0
    175a:	e1 f7       	brne	.-8      	; 0x1754 <set_const+0x422>
    175c:	00 c0       	rjmp	.+0      	; 0x175e <set_const+0x42c>
    175e:	00 00       	nop
			{
				_delay_ms(70);
				if (but_ok_IsSet())
    1760:	37 99       	sbic	0x06, 7	; 6
    1762:	27 c0       	rjmp	.+78     	; 0x17b2 <set_const+0x480>
				{
					eeprom_update_word(&time_of_regulator_eep,time_of_regulator);
    1764:	60 91 15 02 	lds	r22, 0x0215
    1768:	70 91 16 02 	lds	r23, 0x0216
    176c:	80 e0       	ldi	r24, 0x00	; 0
    176e:	90 e0       	ldi	r25, 0x00	; 0
    1770:	0e 94 0b 17 	call	0x2e16	; 0x2e16 <eeprom_update_word>
					time_of_regulator = eeprom_read_word(&time_of_regulator_eep);
    1774:	80 e0       	ldi	r24, 0x00	; 0
    1776:	90 e0       	ldi	r25, 0x00	; 0
    1778:	0e 94 f4 16 	call	0x2de8	; 0x2de8 <eeprom_read_word>
    177c:	90 93 16 02 	sts	0x0216, r25
    1780:	80 93 15 02 	sts	0x0215, r24
					T_reg_ok = 1;
					eeprom_write_byte(&first_run_eep,1);
    1784:	61 e0       	ldi	r22, 0x01	; 1
    1786:	86 e0       	ldi	r24, 0x06	; 6
    1788:	90 e0       	ldi	r25, 0x00	; 0
    178a:	0e 94 0f 17 	call	0x2e1e	; 0x2e1e <eeprom_write_byte>
					first_run = eeprom_read_byte(&first_run_eep);
    178e:	86 e0       	ldi	r24, 0x06	; 6
    1790:	90 e0       	ldi	r25, 0x00	; 0
    1792:	0e 94 ec 16 	call	0x2dd8	; 0x2dd8 <eeprom_read_byte>
    1796:	80 93 1c 02 	sts	0x021C, r24
					stat = 0;
					LCD_Clear();
    179a:	81 e0       	ldi	r24, 0x01	; 1
    179c:	0e 94 d5 01 	call	0x3aa	; 0x3aa <LCD_WriteCom>
    17a0:	8f e3       	ldi	r24, 0x3F	; 63
    17a2:	9f e1       	ldi	r25, 0x1F	; 31
    17a4:	01 97       	sbiw	r24, 0x01	; 1
    17a6:	f1 f7       	brne	.-4      	; 0x17a4 <set_const+0x472>
    17a8:	00 c0       	rjmp	.+0      	; 0x17aa <set_const+0x478>
    17aa:	00 00       	nop
				_delay_ms(70);
				if (but_ok_IsSet())
				{
					eeprom_update_word(&time_of_regulator_eep,time_of_regulator);
					time_of_regulator = eeprom_read_word(&time_of_regulator_eep);
					T_reg_ok = 1;
    17ac:	55 24       	eor	r5, r5
    17ae:	53 94       	inc	r5
					eeprom_write_byte(&first_run_eep,1);
					first_run = eeprom_read_byte(&first_run_eep);
					stat = 0;
    17b0:	21 2c       	mov	r2, r1
					LCD_Clear();
				}
				
			}
			if (but_plus_IsSet())
    17b2:	36 99       	sbic	0x06, 6	; 6
    17b4:	14 c0       	rjmp	.+40     	; 0x17de <set_const+0x4ac>
    17b6:	9f ef       	ldi	r25, 0xFF	; 255
    17b8:	2a e6       	ldi	r18, 0x6A	; 106
    17ba:	83 e0       	ldi	r24, 0x03	; 3
    17bc:	91 50       	subi	r25, 0x01	; 1
    17be:	20 40       	sbci	r18, 0x00	; 0
    17c0:	80 40       	sbci	r24, 0x00	; 0
    17c2:	e1 f7       	brne	.-8      	; 0x17bc <set_const+0x48a>
    17c4:	00 c0       	rjmp	.+0      	; 0x17c6 <set_const+0x494>
    17c6:	00 00       	nop
			{
				_delay_ms(70);
				if (but_plus_IsSet())
    17c8:	36 99       	sbic	0x06, 6	; 6
    17ca:	09 c0       	rjmp	.+18     	; 0x17de <set_const+0x4ac>
				{
					time_of_regulator++;
    17cc:	80 91 15 02 	lds	r24, 0x0215
    17d0:	90 91 16 02 	lds	r25, 0x0216
    17d4:	01 96       	adiw	r24, 0x01	; 1
    17d6:	90 93 16 02 	sts	0x0216, r25
    17da:	80 93 15 02 	sts	0x0215, r24
				}
			}
			if (but_minus_IsSet())
    17de:	1e 99       	sbic	0x03, 6	; 3
    17e0:	9a cf       	rjmp	.-204    	; 0x1716 <set_const+0x3e4>
    17e2:	9f ef       	ldi	r25, 0xFF	; 255
    17e4:	2a e6       	ldi	r18, 0x6A	; 106
    17e6:	83 e0       	ldi	r24, 0x03	; 3
    17e8:	91 50       	subi	r25, 0x01	; 1
    17ea:	20 40       	sbci	r18, 0x00	; 0
    17ec:	80 40       	sbci	r24, 0x00	; 0
    17ee:	e1 f7       	brne	.-8      	; 0x17e8 <set_const+0x4b6>
    17f0:	00 c0       	rjmp	.+0      	; 0x17f2 <set_const+0x4c0>
    17f2:	00 00       	nop
			{
				_delay_ms(70);
				if (but_minus_IsSet())
    17f4:	1e 99       	sbic	0x03, 6	; 3
    17f6:	8f cf       	rjmp	.-226    	; 0x1716 <set_const+0x3e4>
				{
					if (time_of_regulator>1)
    17f8:	80 91 15 02 	lds	r24, 0x0215
    17fc:	90 91 16 02 	lds	r25, 0x0216
    1800:	02 97       	sbiw	r24, 0x02	; 2
    1802:	50 f0       	brcs	.+20     	; 0x1818 <set_const+0x4e6>
					time_of_regulator--;
    1804:	80 91 15 02 	lds	r24, 0x0215
    1808:	90 91 16 02 	lds	r25, 0x0216
    180c:	01 97       	sbiw	r24, 0x01	; 1
    180e:	90 93 16 02 	sts	0x0216, r25
    1812:	80 93 15 02 	sts	0x0215, r24
    1816:	7f cf       	rjmp	.-258    	; 0x1716 <set_const+0x3e4>
					else time_of_regulator = 1;
    1818:	90 92 16 02 	sts	0x0216, r9
    181c:	80 92 15 02 	sts	0x0215, r8
    1820:	7a cf       	rjmp	.-268    	; 0x1716 <set_const+0x3e4>
    1822:	55 24       	eor	r5, r5
    1824:	53 94       	inc	r5
	uint8_t T_reg_ok = 0;
	pressure_max = eeprom_read_word(&pressure_max_eep);
	pressure_min = eeprom_read_word(&pressure_min_eep);
	time_of_regulator = eeprom_read_word(&time_of_regulator_eep);
	
	while(stat)
    1826:	21 10       	cpse	r2, r1
    1828:	cb cd       	rjmp	.-1130   	; 0x13c0 <set_const+0x8e>
				}
			}
		}
		
	}
}
    182a:	a6 96       	adiw	r28, 0x26	; 38
    182c:	0f b6       	in	r0, 0x3f	; 63
    182e:	f8 94       	cli
    1830:	de bf       	out	0x3e, r29	; 62
    1832:	0f be       	out	0x3f, r0	; 63
    1834:	cd bf       	out	0x3d, r28	; 61
    1836:	df 91       	pop	r29
    1838:	cf 91       	pop	r28
    183a:	1f 91       	pop	r17
    183c:	0f 91       	pop	r16
    183e:	ff 90       	pop	r15
    1840:	ef 90       	pop	r14
    1842:	df 90       	pop	r13
    1844:	cf 90       	pop	r12
    1846:	bf 90       	pop	r11
    1848:	af 90       	pop	r10
    184a:	9f 90       	pop	r9
    184c:	8f 90       	pop	r8
    184e:	7f 90       	pop	r7
    1850:	6f 90       	pop	r6
    1852:	5f 90       	pop	r5
    1854:	4f 90       	pop	r4
    1856:	3f 90       	pop	r3
    1858:	2f 90       	pop	r2
    185a:	08 95       	ret

0000185c <settingsHandle>:
	regulation();
	
}
void settingsHandle()
{
	set_const();
    185c:	6a dd       	rcall	.-1324   	; 0x1332 <set_const>
	mode = normal;
    185e:	10 92 14 02 	sts	0x0214, r1
    1862:	08 95       	ret

00001864 <Send_Data_USB>:
	}
	_delay_ms(250);
}

void Send_Data_USB(void)
{
    1864:	ef 92       	push	r14
    1866:	ff 92       	push	r15
    1868:	0f 93       	push	r16
    186a:	1f 93       	push	r17
    186c:	cf 93       	push	r28
    186e:	df 93       	push	r29
    1870:	cd b7       	in	r28, 0x3d	; 61
    1872:	de b7       	in	r29, 0x3e	; 62
    1874:	6e 97       	sbiw	r28, 0x1e	; 30
    1876:	0f b6       	in	r0, 0x3f	; 63
    1878:	f8 94       	cli
    187a:	de bf       	out	0x3e, r29	; 62
    187c:	0f be       	out	0x3f, r0	; 63
    187e:	cd bf       	out	0x3d, r28	; 61
	char temp[30];
	sprintf(temp, "%d\t", pressure_max);
    1880:	80 91 19 02 	lds	r24, 0x0219
    1884:	90 91 1a 02 	lds	r25, 0x021A
    1888:	9f 93       	push	r25
    188a:	8f 93       	push	r24
    188c:	8c e6       	ldi	r24, 0x6C	; 108
    188e:	e8 2e       	mov	r14, r24
    1890:	81 e0       	ldi	r24, 0x01	; 1
    1892:	f8 2e       	mov	r15, r24
    1894:	ff 92       	push	r15
    1896:	ef 92       	push	r14
    1898:	8e 01       	movw	r16, r28
    189a:	0f 5f       	subi	r16, 0xFF	; 255
    189c:	1f 4f       	sbci	r17, 0xFF	; 255
    189e:	1f 93       	push	r17
    18a0:	0f 93       	push	r16
    18a2:	0e 94 6e 16 	call	0x2cdc	; 0x2cdc <sprintf>
	CDC_Device_SendString(&VirtualSerial_CDC_Interface, temp);
    18a6:	b8 01       	movw	r22, r16
    18a8:	86 e0       	ldi	r24, 0x06	; 6
    18aa:	91 e0       	ldi	r25, 0x01	; 1
    18ac:	0e 94 43 03 	call	0x686	; 0x686 <CDC_Device_SendString>
	sprintf(temp, "%d\t", pressure_min);
    18b0:	80 91 17 02 	lds	r24, 0x0217
    18b4:	90 91 18 02 	lds	r25, 0x0218
    18b8:	9f 93       	push	r25
    18ba:	8f 93       	push	r24
    18bc:	ff 92       	push	r15
    18be:	ef 92       	push	r14
    18c0:	1f 93       	push	r17
    18c2:	0f 93       	push	r16
    18c4:	0e 94 6e 16 	call	0x2cdc	; 0x2cdc <sprintf>
	CDC_Device_SendString(&VirtualSerial_CDC_Interface, temp);
    18c8:	b8 01       	movw	r22, r16
    18ca:	86 e0       	ldi	r24, 0x06	; 6
    18cc:	91 e0       	ldi	r25, 0x01	; 1
    18ce:	0e 94 43 03 	call	0x686	; 0x686 <CDC_Device_SendString>
	sprintf(temp, "%d\t", time_of_regulator);
    18d2:	80 91 15 02 	lds	r24, 0x0215
    18d6:	90 91 16 02 	lds	r25, 0x0216
    18da:	9f 93       	push	r25
    18dc:	8f 93       	push	r24
    18de:	ff 92       	push	r15
    18e0:	ef 92       	push	r14
    18e2:	1f 93       	push	r17
    18e4:	0f 93       	push	r16
    18e6:	0e 94 6e 16 	call	0x2cdc	; 0x2cdc <sprintf>
	CDC_Device_SendString(&VirtualSerial_CDC_Interface, temp);
    18ea:	b8 01       	movw	r22, r16
    18ec:	86 e0       	ldi	r24, 0x06	; 6
    18ee:	91 e0       	ldi	r25, 0x01	; 1
    18f0:	0e 94 43 03 	call	0x686	; 0x686 <CDC_Device_SendString>
	sprintf(temp, "%d\t", relay1_IsOn());
    18f4:	8b b1       	in	r24, 0x0b	; 11
    18f6:	88 70       	andi	r24, 0x08	; 8
    18f8:	1f 92       	push	r1
    18fa:	8f 93       	push	r24
    18fc:	ff 92       	push	r15
    18fe:	ef 92       	push	r14
    1900:	1f 93       	push	r17
    1902:	0f 93       	push	r16
    1904:	0e 94 6e 16 	call	0x2cdc	; 0x2cdc <sprintf>
	CDC_Device_SendString(&VirtualSerial_CDC_Interface, temp);
    1908:	b8 01       	movw	r22, r16
    190a:	86 e0       	ldi	r24, 0x06	; 6
    190c:	91 e0       	ldi	r25, 0x01	; 1
    190e:	0e 94 43 03 	call	0x686	; 0x686 <CDC_Device_SendString>
	sprintf(temp, "%d\t", pressure_midle());
    1912:	0e 94 46 02 	call	0x48c	; 0x48c <pressure_midle>
    1916:	9f 93       	push	r25
    1918:	8f 93       	push	r24
    191a:	ff 92       	push	r15
    191c:	ef 92       	push	r14
    191e:	1f 93       	push	r17
    1920:	0f 93       	push	r16
    1922:	0e 94 6e 16 	call	0x2cdc	; 0x2cdc <sprintf>
	CDC_Device_SendString(&VirtualSerial_CDC_Interface, temp);
    1926:	b8 01       	movw	r22, r16
    1928:	86 e0       	ldi	r24, 0x06	; 6
    192a:	91 e0       	ldi	r25, 0x01	; 1
    192c:	0e 94 43 03 	call	0x686	; 0x686 <CDC_Device_SendString>
	pressure_mid = cur_pressure_SMA(pressure_midle());
    1930:	0e 94 46 02 	call	0x48c	; 0x48c <pressure_midle>
    1934:	0e 94 ac 02 	call	0x558	; 0x558 <cur_pressure_SMA>
    1938:	90 93 05 01 	sts	0x0105, r25
    193c:	80 93 04 01 	sts	0x0104, r24
	sprintf(temp, "%d\r\n", pressure_mid);
    1940:	80 91 04 01 	lds	r24, 0x0104
    1944:	90 91 05 01 	lds	r25, 0x0105
    1948:	9f 93       	push	r25
    194a:	8f 93       	push	r24
    194c:	80 e7       	ldi	r24, 0x70	; 112
    194e:	91 e0       	ldi	r25, 0x01	; 1
    1950:	9f 93       	push	r25
    1952:	8f 93       	push	r24
    1954:	1f 93       	push	r17
    1956:	0f 93       	push	r16
    1958:	0e 94 6e 16 	call	0x2cdc	; 0x2cdc <sprintf>
	CDC_Device_SendString(&VirtualSerial_CDC_Interface, temp);
    195c:	0f b6       	in	r0, 0x3f	; 63
    195e:	f8 94       	cli
    1960:	de bf       	out	0x3e, r29	; 62
    1962:	0f be       	out	0x3f, r0	; 63
    1964:	cd bf       	out	0x3d, r28	; 61
    1966:	b8 01       	movw	r22, r16
    1968:	86 e0       	ldi	r24, 0x06	; 6
    196a:	91 e0       	ldi	r25, 0x01	; 1
    196c:	0e 94 43 03 	call	0x686	; 0x686 <CDC_Device_SendString>
	CDC_Device_USBTask(&VirtualSerial_CDC_Interface);
    1970:	86 e0       	ldi	r24, 0x06	; 6
    1972:	91 e0       	ldi	r25, 0x01	; 1
    1974:	0e 94 cc 03 	call	0x798	; 0x798 <CDC_Device_USBTask>
	USB_USBTask();
    1978:	c2 dc       	rcall	.-1660   	; 0x12fe <USB_USBTask>
}
    197a:	6e 96       	adiw	r28, 0x1e	; 30
    197c:	0f b6       	in	r0, 0x3f	; 63
    197e:	f8 94       	cli
    1980:	de bf       	out	0x3e, r29	; 62
    1982:	0f be       	out	0x3f, r0	; 63
    1984:	cd bf       	out	0x3d, r28	; 61
    1986:	df 91       	pop	r29
    1988:	cf 91       	pop	r28
    198a:	1f 91       	pop	r17
    198c:	0f 91       	pop	r16
    198e:	ff 90       	pop	r15
    1990:	ef 90       	pop	r14
    1992:	08 95       	ret

00001994 <testHandle>:
{
	set_const();
	mode = normal;
}
void testHandle()
{
    1994:	0f 93       	push	r16
    1996:	1f 93       	push	r17
    1998:	cf 93       	push	r28
    199a:	df 93       	push	r29
    199c:	cd b7       	in	r28, 0x3d	; 61
    199e:	de b7       	in	r29, 0x3e	; 62
    19a0:	6e 97       	sbiw	r28, 0x1e	; 30
    19a2:	0f b6       	in	r0, 0x3f	; 63
    19a4:	f8 94       	cli
    19a6:	de bf       	out	0x3e, r29	; 62
    19a8:	0f be       	out	0x3f, r0	; 63
    19aa:	cd bf       	out	0x3d, r28	; 61
	if (testHandle_FirstStart)
    19ac:	80 91 01 01 	lds	r24, 0x0101
    19b0:	88 23       	and	r24, r24
    19b2:	31 f1       	breq	.+76     	; 0x1a00 <testHandle+0x6c>
	{
		LCD_Goto(0,0);
    19b4:	80 e8       	ldi	r24, 0x80	; 128
    19b6:	0e 94 d5 01 	call	0x3aa	; 0x3aa <LCD_WriteCom>
		LCD_SendStr((char*)"Test running!");
    19ba:	85 e7       	ldi	r24, 0x75	; 117
    19bc:	91 e0       	ldi	r25, 0x01	; 1
    19be:	0e 94 12 02 	call	0x424	; 0x424 <LCD_SendStr>
		CDC_Device_SendString(&VirtualSerial_CDC_Interface, (char*)"Max\tMin\tT Reg\tRelay\tOriginal\tSMA\r\n");
    19c2:	63 e8       	ldi	r22, 0x83	; 131
    19c4:	71 e0       	ldi	r23, 0x01	; 1
    19c6:	86 e0       	ldi	r24, 0x06	; 6
    19c8:	91 e0       	ldi	r25, 0x01	; 1
    19ca:	0e 94 43 03 	call	0x686	; 0x686 <CDC_Device_SendString>
		CDC_Device_USBTask(&VirtualSerial_CDC_Interface);
    19ce:	86 e0       	ldi	r24, 0x06	; 6
    19d0:	91 e0       	ldi	r25, 0x01	; 1
    19d2:	0e 94 cc 03 	call	0x798	; 0x798 <CDC_Device_USBTask>
		USB_USBTask();
    19d6:	93 dc       	rcall	.-1754   	; 0x12fe <USB_USBTask>
		testHandle_FirstStart = false;
    19d8:	10 92 01 01 	sts	0x0101, r1
    19dc:	2f ef       	ldi	r18, 0xFF	; 255
    19de:	8e e9       	ldi	r24, 0x9E	; 158
    19e0:	94 e2       	ldi	r25, 0x24	; 36
    19e2:	21 50       	subi	r18, 0x01	; 1
    19e4:	80 40       	sbci	r24, 0x00	; 0
    19e6:	90 40       	sbci	r25, 0x00	; 0
    19e8:	e1 f7       	brne	.-8      	; 0x19e2 <testHandle+0x4e>
    19ea:	00 c0       	rjmp	.+0      	; 0x19ec <testHandle+0x58>
    19ec:	00 00       	nop
		_delay_ms(750);
		LCD_Clear();
    19ee:	81 e0       	ldi	r24, 0x01	; 1
    19f0:	0e 94 d5 01 	call	0x3aa	; 0x3aa <LCD_WriteCom>
    19f4:	8f e3       	ldi	r24, 0x3F	; 63
    19f6:	9f e1       	ldi	r25, 0x1F	; 31
    19f8:	01 97       	sbiw	r24, 0x01	; 1
    19fa:	f1 f7       	brne	.-4      	; 0x19f8 <testHandle+0x64>
    19fc:	00 c0       	rjmp	.+0      	; 0x19fe <testHandle+0x6a>
    19fe:	00 00       	nop
	}
	Send_Data_USB();
    1a00:	31 df       	rcall	.-414    	; 0x1864 <Send_Data_USB>
	if (pressure_mid <= pressure_min)
    1a02:	20 91 04 01 	lds	r18, 0x0104
    1a06:	30 91 05 01 	lds	r19, 0x0105
    1a0a:	80 91 17 02 	lds	r24, 0x0217
    1a0e:	90 91 18 02 	lds	r25, 0x0218
    1a12:	82 17       	cp	r24, r18
    1a14:	93 07       	cpc	r25, r19
    1a16:	70 f1       	brcs	.+92     	; 0x1a74 <testHandle+0xe0>
	{
		relay1_On();
    1a18:	5b 9a       	sbi	0x0b, 3	; 11
		relay_Off_first = true;
    1a1a:	81 e0       	ldi	r24, 0x01	; 1
    1a1c:	80 93 02 01 	sts	0x0102, r24
		if (relay_On_first)
    1a20:	80 91 03 01 	lds	r24, 0x0103
    1a24:	88 23       	and	r24, r24
    1a26:	31 f1       	breq	.+76     	; 0x1a74 <testHandle+0xe0>
    1a28:	00 e0       	ldi	r16, 0x00	; 0
    1a2a:	10 e0       	ldi	r17, 0x00	; 0
		{
			for (uint16_t i = 0; i<(time_of_regulator*4UL); i++)
    1a2c:	80 91 15 02 	lds	r24, 0x0215
    1a30:	90 91 16 02 	lds	r25, 0x0216
    1a34:	a8 01       	movw	r20, r16
    1a36:	60 e0       	ldi	r22, 0x00	; 0
    1a38:	70 e0       	ldi	r23, 0x00	; 0
    1a3a:	a0 e0       	ldi	r26, 0x00	; 0
    1a3c:	b0 e0       	ldi	r27, 0x00	; 0
    1a3e:	32 e0       	ldi	r19, 0x02	; 2
    1a40:	88 0f       	add	r24, r24
    1a42:	99 1f       	adc	r25, r25
    1a44:	aa 1f       	adc	r26, r26
    1a46:	bb 1f       	adc	r27, r27
    1a48:	3a 95       	dec	r19
    1a4a:	d1 f7       	brne	.-12     	; 0x1a40 <testHandle+0xac>
    1a4c:	48 17       	cp	r20, r24
    1a4e:	59 07       	cpc	r21, r25
    1a50:	6a 07       	cpc	r22, r26
    1a52:	7b 07       	cpc	r23, r27
    1a54:	68 f4       	brcc	.+26     	; 0x1a70 <testHandle+0xdc>
			{
				Send_Data_USB();
    1a56:	06 df       	rcall	.-500    	; 0x1864 <Send_Data_USB>
    1a58:	9f ef       	ldi	r25, 0xFF	; 255
    1a5a:	24 e3       	ldi	r18, 0x34	; 52
    1a5c:	8c e0       	ldi	r24, 0x0C	; 12
    1a5e:	91 50       	subi	r25, 0x01	; 1
    1a60:	20 40       	sbci	r18, 0x00	; 0
    1a62:	80 40       	sbci	r24, 0x00	; 0
    1a64:	e1 f7       	brne	.-8      	; 0x1a5e <testHandle+0xca>
    1a66:	00 c0       	rjmp	.+0      	; 0x1a68 <testHandle+0xd4>
    1a68:	00 00       	nop
	{
		relay1_On();
		relay_Off_first = true;
		if (relay_On_first)
		{
			for (uint16_t i = 0; i<(time_of_regulator*4UL); i++)
    1a6a:	0f 5f       	subi	r16, 0xFF	; 255
    1a6c:	1f 4f       	sbci	r17, 0xFF	; 255
    1a6e:	de cf       	rjmp	.-68     	; 0x1a2c <testHandle+0x98>
			{
				Send_Data_USB();
				_delay_ms(250);
			}
			relay_On_first = false;
    1a70:	10 92 03 01 	sts	0x0103, r1
		}
		
	};
	if (pressure_mid >= pressure_max)
    1a74:	20 91 04 01 	lds	r18, 0x0104
    1a78:	30 91 05 01 	lds	r19, 0x0105
    1a7c:	80 91 19 02 	lds	r24, 0x0219
    1a80:	90 91 1a 02 	lds	r25, 0x021A
    1a84:	28 17       	cp	r18, r24
    1a86:	39 07       	cpc	r19, r25
    1a88:	70 f1       	brcs	.+92     	; 0x1ae6 <testHandle+0x152>
	{
		relay1_Off();
    1a8a:	5b 98       	cbi	0x0b, 3	; 11
		relay_On_first = true;
    1a8c:	81 e0       	ldi	r24, 0x01	; 1
    1a8e:	80 93 03 01 	sts	0x0103, r24
		if (relay_Off_first)
    1a92:	80 91 02 01 	lds	r24, 0x0102
    1a96:	88 23       	and	r24, r24
    1a98:	31 f1       	breq	.+76     	; 0x1ae6 <testHandle+0x152>
    1a9a:	00 e0       	ldi	r16, 0x00	; 0
    1a9c:	10 e0       	ldi	r17, 0x00	; 0
		{
			for (uint16_t i = 0; i<(time_of_regulator*4UL); i++)
    1a9e:	80 91 15 02 	lds	r24, 0x0215
    1aa2:	90 91 16 02 	lds	r25, 0x0216
    1aa6:	a8 01       	movw	r20, r16
    1aa8:	60 e0       	ldi	r22, 0x00	; 0
    1aaa:	70 e0       	ldi	r23, 0x00	; 0
    1aac:	a0 e0       	ldi	r26, 0x00	; 0
    1aae:	b0 e0       	ldi	r27, 0x00	; 0
    1ab0:	22 e0       	ldi	r18, 0x02	; 2
    1ab2:	88 0f       	add	r24, r24
    1ab4:	99 1f       	adc	r25, r25
    1ab6:	aa 1f       	adc	r26, r26
    1ab8:	bb 1f       	adc	r27, r27
    1aba:	2a 95       	dec	r18
    1abc:	d1 f7       	brne	.-12     	; 0x1ab2 <testHandle+0x11e>
    1abe:	48 17       	cp	r20, r24
    1ac0:	59 07       	cpc	r21, r25
    1ac2:	6a 07       	cpc	r22, r26
    1ac4:	7b 07       	cpc	r23, r27
    1ac6:	68 f4       	brcc	.+26     	; 0x1ae2 <testHandle+0x14e>
			{
				Send_Data_USB();
    1ac8:	cd de       	rcall	.-614    	; 0x1864 <Send_Data_USB>
    1aca:	9f ef       	ldi	r25, 0xFF	; 255
    1acc:	24 e3       	ldi	r18, 0x34	; 52
    1ace:	8c e0       	ldi	r24, 0x0C	; 12
    1ad0:	91 50       	subi	r25, 0x01	; 1
    1ad2:	20 40       	sbci	r18, 0x00	; 0
    1ad4:	80 40       	sbci	r24, 0x00	; 0
    1ad6:	e1 f7       	brne	.-8      	; 0x1ad0 <testHandle+0x13c>
    1ad8:	00 c0       	rjmp	.+0      	; 0x1ada <testHandle+0x146>
    1ada:	00 00       	nop
	{
		relay1_Off();
		relay_On_first = true;
		if (relay_Off_first)
		{
			for (uint16_t i = 0; i<(time_of_regulator*4UL); i++)
    1adc:	0f 5f       	subi	r16, 0xFF	; 255
    1ade:	1f 4f       	sbci	r17, 0xFF	; 255
    1ae0:	de cf       	rjmp	.-68     	; 0x1a9e <testHandle+0x10a>
			{
				Send_Data_USB();
				_delay_ms(250);
			}
			relay_Off_first = false;
    1ae2:	10 92 02 01 	sts	0x0102, r1
		}
	};
	
	float pressure_atm = ConvToAtm(pressure_mid);
    1ae6:	60 91 04 01 	lds	r22, 0x0104
    1aea:	70 91 05 01 	lds	r23, 0x0105
    1aee:	80 e0       	ldi	r24, 0x00	; 0
    1af0:	90 e0       	ldi	r25, 0x00	; 0
    1af2:	0e d3       	rcall	.+1564   	; 0x2110 <__floatunsisf>
    1af4:	27 e2       	ldi	r18, 0x27	; 39
    1af6:	3e e9       	ldi	r19, 0x9E	; 158
    1af8:	45 ef       	ldi	r20, 0xF5	; 245
    1afa:	5b e3       	ldi	r21, 0x3B	; 59
    1afc:	97 d3       	rcall	.+1838   	; 0x222c <__mulsf3>
    1afe:	28 e0       	ldi	r18, 0x08	; 8
    1b00:	32 e3       	ldi	r19, 0x32	; 50
    1b02:	4d e9       	ldi	r20, 0x9D	; 157
    1b04:	5e e3       	ldi	r21, 0x3E	; 62
    1b06:	9f d2       	rcall	.+1342   	; 0x2046 <__subsf3>
	char temp[30];
	sprintf(temp, "P test: %.2f aїј", pressure_atm);
    1b08:	9f 93       	push	r25
    1b0a:	8f 93       	push	r24
    1b0c:	7f 93       	push	r23
    1b0e:	6f 93       	push	r22
    1b10:	86 ea       	ldi	r24, 0xA6	; 166
    1b12:	91 e0       	ldi	r25, 0x01	; 1
    1b14:	9f 93       	push	r25
    1b16:	8f 93       	push	r24
    1b18:	8e 01       	movw	r16, r28
    1b1a:	0f 5f       	subi	r16, 0xFF	; 255
    1b1c:	1f 4f       	sbci	r17, 0xFF	; 255
    1b1e:	1f 93       	push	r17
    1b20:	0f 93       	push	r16
    1b22:	0e 94 6e 16 	call	0x2cdc	; 0x2cdc <sprintf>
	LCD_Goto(0,0);
    1b26:	80 e8       	ldi	r24, 0x80	; 128
    1b28:	0e 94 d5 01 	call	0x3aa	; 0x3aa <LCD_WriteCom>
	LCD_SendStr(temp);
    1b2c:	c8 01       	movw	r24, r16
    1b2e:	0e 94 12 02 	call	0x424	; 0x424 <LCD_SendStr>
	if (but_minus_IsSet())
    1b32:	0f b6       	in	r0, 0x3f	; 63
    1b34:	f8 94       	cli
    1b36:	de bf       	out	0x3e, r29	; 62
    1b38:	0f be       	out	0x3f, r0	; 63
    1b3a:	cd bf       	out	0x3d, r28	; 61
    1b3c:	1e 99       	sbic	0x03, 6	; 3
    1b3e:	16 c0       	rjmp	.+44     	; 0x1b6c <testHandle+0x1d8>
    1b40:	9f ef       	ldi	r25, 0xFF	; 255
    1b42:	2a e6       	ldi	r18, 0x6A	; 106
    1b44:	83 e0       	ldi	r24, 0x03	; 3
    1b46:	91 50       	subi	r25, 0x01	; 1
    1b48:	20 40       	sbci	r18, 0x00	; 0
    1b4a:	80 40       	sbci	r24, 0x00	; 0
    1b4c:	e1 f7       	brne	.-8      	; 0x1b46 <testHandle+0x1b2>
    1b4e:	00 c0       	rjmp	.+0      	; 0x1b50 <testHandle+0x1bc>
    1b50:	00 00       	nop
	{
		_delay_ms(70);
		if (but_minus_IsSet())
    1b52:	1e 99       	sbic	0x03, 6	; 3
    1b54:	0b c0       	rjmp	.+22     	; 0x1b6c <testHandle+0x1d8>
		{
			mode = normal;
    1b56:	10 92 14 02 	sts	0x0214, r1
			LCD_Clear();
    1b5a:	81 e0       	ldi	r24, 0x01	; 1
    1b5c:	0e 94 d5 01 	call	0x3aa	; 0x3aa <LCD_WriteCom>
    1b60:	8f e3       	ldi	r24, 0x3F	; 63
    1b62:	9f e1       	ldi	r25, 0x1F	; 31
    1b64:	01 97       	sbiw	r24, 0x01	; 1
    1b66:	f1 f7       	brne	.-4      	; 0x1b64 <testHandle+0x1d0>
    1b68:	00 c0       	rjmp	.+0      	; 0x1b6a <testHandle+0x1d6>
    1b6a:	00 00       	nop
    1b6c:	9f ef       	ldi	r25, 0xFF	; 255
    1b6e:	24 e3       	ldi	r18, 0x34	; 52
    1b70:	8c e0       	ldi	r24, 0x0C	; 12
    1b72:	91 50       	subi	r25, 0x01	; 1
    1b74:	20 40       	sbci	r18, 0x00	; 0
    1b76:	80 40       	sbci	r24, 0x00	; 0
    1b78:	e1 f7       	brne	.-8      	; 0x1b72 <testHandle+0x1de>
    1b7a:	00 c0       	rjmp	.+0      	; 0x1b7c <testHandle+0x1e8>
    1b7c:	00 00       	nop
		}
	}
	_delay_ms(250);
}
    1b7e:	6e 96       	adiw	r28, 0x1e	; 30
    1b80:	0f b6       	in	r0, 0x3f	; 63
    1b82:	f8 94       	cli
    1b84:	de bf       	out	0x3e, r29	; 62
    1b86:	0f be       	out	0x3f, r0	; 63
    1b88:	cd bf       	out	0x3d, r28	; 61
    1b8a:	df 91       	pop	r29
    1b8c:	cf 91       	pop	r28
    1b8e:	1f 91       	pop	r17
    1b90:	0f 91       	pop	r16
    1b92:	08 95       	ret

00001b94 <regulation>:
	USB_USBTask();
}

void regulation(void)
{
	if (pressure_mid <= pressure_min)
    1b94:	20 91 04 01 	lds	r18, 0x0104
    1b98:	30 91 05 01 	lds	r19, 0x0105
    1b9c:	80 91 17 02 	lds	r24, 0x0217
    1ba0:	90 91 18 02 	lds	r25, 0x0218
    1ba4:	82 17       	cp	r24, r18
    1ba6:	93 07       	cpc	r25, r19
    1ba8:	f0 f0       	brcs	.+60     	; 0x1be6 <regulation+0x52>
	{
		relay1_On();
    1baa:	5b 9a       	sbi	0x0b, 3	; 11
		relay_Off_first = true;
    1bac:	81 e0       	ldi	r24, 0x01	; 1
    1bae:	80 93 02 01 	sts	0x0102, r24
		if (relay_On_first)
    1bb2:	80 91 03 01 	lds	r24, 0x0103
    1bb6:	88 23       	and	r24, r24
    1bb8:	b1 f0       	breq	.+44     	; 0x1be6 <regulation+0x52>
    1bba:	80 e0       	ldi	r24, 0x00	; 0
    1bbc:	90 e0       	ldi	r25, 0x00	; 0
		{
			for (uint16_t i = 0; i<time_of_regulator; i++)
    1bbe:	20 91 15 02 	lds	r18, 0x0215
    1bc2:	30 91 16 02 	lds	r19, 0x0216
    1bc6:	82 17       	cp	r24, r18
    1bc8:	93 07       	cpc	r25, r19
    1bca:	58 f4       	brcc	.+22     	; 0x1be2 <regulation+0x4e>
    1bcc:	2f ef       	ldi	r18, 0xFF	; 255
    1bce:	33 ed       	ldi	r19, 0xD3	; 211
    1bd0:	40 e3       	ldi	r20, 0x30	; 48
    1bd2:	21 50       	subi	r18, 0x01	; 1
    1bd4:	30 40       	sbci	r19, 0x00	; 0
    1bd6:	40 40       	sbci	r20, 0x00	; 0
    1bd8:	e1 f7       	brne	.-8      	; 0x1bd2 <regulation+0x3e>
    1bda:	00 c0       	rjmp	.+0      	; 0x1bdc <regulation+0x48>
    1bdc:	00 00       	nop
    1bde:	01 96       	adiw	r24, 0x01	; 1
    1be0:	ee cf       	rjmp	.-36     	; 0x1bbe <regulation+0x2a>
			{
				_delay_ms(1000);
			}
			relay_On_first = false;
    1be2:	10 92 03 01 	sts	0x0103, r1
		}
		
	};
	if (pressure_mid >= pressure_max)
    1be6:	20 91 04 01 	lds	r18, 0x0104
    1bea:	30 91 05 01 	lds	r19, 0x0105
    1bee:	80 91 19 02 	lds	r24, 0x0219
    1bf2:	90 91 1a 02 	lds	r25, 0x021A
    1bf6:	28 17       	cp	r18, r24
    1bf8:	39 07       	cpc	r19, r25
    1bfa:	f8 f0       	brcs	.+62     	; 0x1c3a <regulation+0xa6>
	{
		relay1_Off();
    1bfc:	5b 98       	cbi	0x0b, 3	; 11
		relay_On_first = true;
    1bfe:	81 e0       	ldi	r24, 0x01	; 1
    1c00:	80 93 03 01 	sts	0x0103, r24
		if (relay_Off_first)
    1c04:	80 91 02 01 	lds	r24, 0x0102
    1c08:	81 11       	cpse	r24, r1
    1c0a:	01 c0       	rjmp	.+2      	; 0x1c0e <regulation+0x7a>
    1c0c:	08 95       	ret
    1c0e:	80 e0       	ldi	r24, 0x00	; 0
    1c10:	90 e0       	ldi	r25, 0x00	; 0
		{
			for (uint16_t i = 0; i<time_of_regulator; i++)
    1c12:	20 91 15 02 	lds	r18, 0x0215
    1c16:	30 91 16 02 	lds	r19, 0x0216
    1c1a:	82 17       	cp	r24, r18
    1c1c:	93 07       	cpc	r25, r19
    1c1e:	58 f4       	brcc	.+22     	; 0x1c36 <regulation+0xa2>
    1c20:	2f ef       	ldi	r18, 0xFF	; 255
    1c22:	33 ed       	ldi	r19, 0xD3	; 211
    1c24:	40 e3       	ldi	r20, 0x30	; 48
    1c26:	21 50       	subi	r18, 0x01	; 1
    1c28:	30 40       	sbci	r19, 0x00	; 0
    1c2a:	40 40       	sbci	r20, 0x00	; 0
    1c2c:	e1 f7       	brne	.-8      	; 0x1c26 <regulation+0x92>
    1c2e:	00 c0       	rjmp	.+0      	; 0x1c30 <regulation+0x9c>
    1c30:	00 00       	nop
    1c32:	01 96       	adiw	r24, 0x01	; 1
    1c34:	ee cf       	rjmp	.-36     	; 0x1c12 <regulation+0x7e>
			{
				_delay_ms(1000);
			}
			relay_Off_first = false;
    1c36:	10 92 02 01 	sts	0x0102, r1
    1c3a:	08 95       	ret

00001c3c <normalHandle>:
		break;
	}
}

void normalHandle()
{
    1c3c:	0f 93       	push	r16
    1c3e:	1f 93       	push	r17
    1c40:	cf 93       	push	r28
    1c42:	df 93       	push	r29
    1c44:	cd b7       	in	r28, 0x3d	; 61
    1c46:	de b7       	in	r29, 0x3e	; 62
    1c48:	6e 97       	sbiw	r28, 0x1e	; 30
    1c4a:	0f b6       	in	r0, 0x3f	; 63
    1c4c:	f8 94       	cli
    1c4e:	de bf       	out	0x3e, r29	; 62
    1c50:	0f be       	out	0x3f, r0	; 63
    1c52:	cd bf       	out	0x3d, r28	; 61
	
	if(oldmode != mode){
    1c54:	80 91 14 02 	lds	r24, 0x0214
    1c58:	90 91 00 01 	lds	r25, 0x0100
    1c5c:	98 17       	cp	r25, r24
    1c5e:	21 f0       	breq	.+8      	; 0x1c68 <normalHandle+0x2c>
		oldmode = mode;
    1c60:	80 93 00 01 	sts	0x0100, r24
		Show = mode;
    1c64:	80 93 13 02 	sts	0x0213, r24
	}

	if (but_plus_IsSet())
    1c68:	36 99       	sbic	0x06, 6	; 6
    1c6a:	15 c0       	rjmp	.+42     	; 0x1c96 <normalHandle+0x5a>
    1c6c:	2f ef       	ldi	r18, 0xFF	; 255
    1c6e:	8a e6       	ldi	r24, 0x6A	; 106
    1c70:	93 e0       	ldi	r25, 0x03	; 3
    1c72:	21 50       	subi	r18, 0x01	; 1
    1c74:	80 40       	sbci	r24, 0x00	; 0
    1c76:	90 40       	sbci	r25, 0x00	; 0
    1c78:	e1 f7       	brne	.-8      	; 0x1c72 <normalHandle+0x36>
    1c7a:	00 c0       	rjmp	.+0      	; 0x1c7c <normalHandle+0x40>
    1c7c:	00 00       	nop
	{
		_delay_ms(70);
		if (but_plus_IsSet())
    1c7e:	36 99       	sbic	0x06, 6	; 6
    1c80:	0a c0       	rjmp	.+20     	; 0x1c96 <normalHandle+0x5a>
		{
			if (Show < 2)
    1c82:	80 91 13 02 	lds	r24, 0x0213
    1c86:	82 30       	cpi	r24, 0x02	; 2
    1c88:	20 f4       	brcc	.+8      	; 0x1c92 <normalHandle+0x56>
				 Show++;
    1c8a:	8f 5f       	subi	r24, 0xFF	; 255
    1c8c:	80 93 13 02 	sts	0x0213, r24
    1c90:	02 c0       	rjmp	.+4      	; 0x1c96 <normalHandle+0x5a>
			else Show = 0;
    1c92:	10 92 13 02 	sts	0x0213, r1
		}
	}
	if (but_ok_IsSet())
    1c96:	37 99       	sbic	0x06, 7	; 6
    1c98:	19 c0       	rjmp	.+50     	; 0x1ccc <normalHandle+0x90>
    1c9a:	2f ef       	ldi	r18, 0xFF	; 255
    1c9c:	8a e6       	ldi	r24, 0x6A	; 106
    1c9e:	93 e0       	ldi	r25, 0x03	; 3
    1ca0:	21 50       	subi	r18, 0x01	; 1
    1ca2:	80 40       	sbci	r24, 0x00	; 0
    1ca4:	90 40       	sbci	r25, 0x00	; 0
    1ca6:	e1 f7       	brne	.-8      	; 0x1ca0 <normalHandle+0x64>
    1ca8:	00 c0       	rjmp	.+0      	; 0x1caa <normalHandle+0x6e>
    1caa:	00 00       	nop
	{
		_delay_ms(70);
		if (but_ok_IsSet())
    1cac:	37 99       	sbic	0x06, 7	; 6
    1cae:	0e c0       	rjmp	.+28     	; 0x1ccc <normalHandle+0x90>
		{
			switch (Show)
    1cb0:	80 91 13 02 	lds	r24, 0x0213
    1cb4:	81 30       	cpi	r24, 0x01	; 1
    1cb6:	41 f0       	breq	.+16     	; 0x1cc8 <normalHandle+0x8c>
    1cb8:	82 30       	cpi	r24, 0x02	; 2
    1cba:	41 f4       	brne	.+16     	; 0x1ccc <normalHandle+0x90>
			{
				case settings:	mode = settings; break;
				case test:{ mode = test; testHandle_FirstStart=true; break;}
    1cbc:	80 93 14 02 	sts	0x0214, r24
    1cc0:	81 e0       	ldi	r24, 0x01	; 1
    1cc2:	80 93 01 01 	sts	0x0101, r24
    1cc6:	02 c0       	rjmp	.+4      	; 0x1ccc <normalHandle+0x90>
		_delay_ms(70);
		if (but_ok_IsSet())
		{
			switch (Show)
			{
				case settings:	mode = settings; break;
    1cc8:	80 93 14 02 	sts	0x0214, r24
				case test:{ mode = test; testHandle_FirstStart=true; break;}
				default: break;
			}
		}
	}
		if (oldShow != Show)
    1ccc:	80 91 13 02 	lds	r24, 0x0213
    1cd0:	90 91 12 02 	lds	r25, 0x0212
    1cd4:	98 17       	cp	r25, r24
    1cd6:	59 f0       	breq	.+22     	; 0x1cee <normalHandle+0xb2>
		{
			oldShow = Show;
    1cd8:	80 93 12 02 	sts	0x0212, r24
			LCD_Clear();
    1cdc:	81 e0       	ldi	r24, 0x01	; 1
    1cde:	0e 94 d5 01 	call	0x3aa	; 0x3aa <LCD_WriteCom>
    1ce2:	8f e3       	ldi	r24, 0x3F	; 63
    1ce4:	9f e1       	ldi	r25, 0x1F	; 31
    1ce6:	01 97       	sbiw	r24, 0x01	; 1
    1ce8:	f1 f7       	brne	.-4      	; 0x1ce6 <normalHandle+0xaa>
    1cea:	00 c0       	rjmp	.+0      	; 0x1cec <normalHandle+0xb0>
    1cec:	00 00       	nop
			
		}
	switch (Show)
    1cee:	80 91 13 02 	lds	r24, 0x0213
    1cf2:	81 30       	cpi	r24, 0x01	; 1
    1cf4:	09 f4       	brne	.+2      	; 0x1cf8 <normalHandle+0xbc>
    1cf6:	3d c0       	rjmp	.+122    	; 0x1d72 <normalHandle+0x136>
    1cf8:	48 f0       	brcs	.+18     	; 0x1d0c <normalHandle+0xd0>
    1cfa:	82 30       	cpi	r24, 0x02	; 2
    1cfc:	09 f0       	breq	.+2      	; 0x1d00 <normalHandle+0xc4>
    1cfe:	40 c0       	rjmp	.+128    	; 0x1d80 <normalHandle+0x144>
			LCD_SendStr((char*)"Hacїpo№єё");//Настройки
			break;
		}
		case test:
		{
			LCD_Goto(0,0);
    1d00:	80 e8       	ldi	r24, 0x80	; 128
    1d02:	0e 94 d5 01 	call	0x3aa	; 0x3aa <LCD_WriteCom>
			LCD_SendStr((char*)"Tecї");//Тест
    1d06:	8d ec       	ldi	r24, 0xCD	; 205
    1d08:	91 e0       	ldi	r25, 0x01	; 1
    1d0a:	38 c0       	rjmp	.+112    	; 0x1d7c <normalHandle+0x140>
		}
	switch (Show)
	{
		case normal:
		{
			pressure_mid = cur_pressure_SMA(pressure_midle());
    1d0c:	0e 94 46 02 	call	0x48c	; 0x48c <pressure_midle>
    1d10:	0e 94 ac 02 	call	0x558	; 0x558 <cur_pressure_SMA>
    1d14:	90 93 05 01 	sts	0x0105, r25
    1d18:	80 93 04 01 	sts	0x0104, r24
			float pressure_atm = ConvToAtm(pressure_mid);
    1d1c:	60 91 04 01 	lds	r22, 0x0104
    1d20:	70 91 05 01 	lds	r23, 0x0105
    1d24:	80 e0       	ldi	r24, 0x00	; 0
    1d26:	90 e0       	ldi	r25, 0x00	; 0
    1d28:	f3 d1       	rcall	.+998    	; 0x2110 <__floatunsisf>
    1d2a:	27 e2       	ldi	r18, 0x27	; 39
    1d2c:	3e e9       	ldi	r19, 0x9E	; 158
    1d2e:	45 ef       	ldi	r20, 0xF5	; 245
    1d30:	5b e3       	ldi	r21, 0x3B	; 59
    1d32:	7c d2       	rcall	.+1272   	; 0x222c <__mulsf3>
    1d34:	28 e0       	ldi	r18, 0x08	; 8
    1d36:	32 e3       	ldi	r19, 0x32	; 50
    1d38:	4d e9       	ldi	r20, 0x9D	; 157
    1d3a:	5e e3       	ldi	r21, 0x3E	; 62
    1d3c:	84 d1       	rcall	.+776    	; 0x2046 <__subsf3>
			char temp[30];
			sprintf(temp, "P: %.2f aїј", pressure_atm);
    1d3e:	9f 93       	push	r25
    1d40:	8f 93       	push	r24
    1d42:	7f 93       	push	r23
    1d44:	6f 93       	push	r22
    1d46:	87 eb       	ldi	r24, 0xB7	; 183
    1d48:	91 e0       	ldi	r25, 0x01	; 1
    1d4a:	9f 93       	push	r25
    1d4c:	8f 93       	push	r24
    1d4e:	8e 01       	movw	r16, r28
    1d50:	0f 5f       	subi	r16, 0xFF	; 255
    1d52:	1f 4f       	sbci	r17, 0xFF	; 255
    1d54:	1f 93       	push	r17
    1d56:	0f 93       	push	r16
    1d58:	c1 d7       	rcall	.+3970   	; 0x2cdc <sprintf>
			LCD_Goto(0,0);
    1d5a:	80 e8       	ldi	r24, 0x80	; 128
    1d5c:	0e 94 d5 01 	call	0x3aa	; 0x3aa <LCD_WriteCom>
			LCD_SendStr(temp);
    1d60:	c8 01       	movw	r24, r16
    1d62:	0e 94 12 02 	call	0x424	; 0x424 <LCD_SendStr>
    1d66:	0f b6       	in	r0, 0x3f	; 63
    1d68:	f8 94       	cli
    1d6a:	de bf       	out	0x3e, r29	; 62
    1d6c:	0f be       	out	0x3f, r0	; 63
    1d6e:	cd bf       	out	0x3d, r28	; 61
    1d70:	07 c0       	rjmp	.+14     	; 0x1d80 <normalHandle+0x144>
			break;
			
		}
		case settings:
		{
			LCD_Goto(0,0);
    1d72:	80 e8       	ldi	r24, 0x80	; 128
    1d74:	0e 94 d5 01 	call	0x3aa	; 0x3aa <LCD_WriteCom>
			LCD_SendStr((char*)"Hacїpo№єё");//Настройки
    1d78:	83 ec       	ldi	r24, 0xC3	; 195
    1d7a:	91 e0       	ldi	r25, 0x01	; 1
			break;
		}
		case test:
		{
			LCD_Goto(0,0);
			LCD_SendStr((char*)"Tecї");//Тест
    1d7c:	0e 94 12 02 	call	0x424	; 0x424 <LCD_SendStr>
			break;
		}
	}
	regulation();
    1d80:	09 df       	rcall	.-494    	; 0x1b94 <regulation>
	
}
    1d82:	6e 96       	adiw	r28, 0x1e	; 30
    1d84:	0f b6       	in	r0, 0x3f	; 63
    1d86:	f8 94       	cli
    1d88:	de bf       	out	0x3e, r29	; 62
    1d8a:	0f be       	out	0x3f, r0	; 63
    1d8c:	cd bf       	out	0x3d, r28	; 61
    1d8e:	df 91       	pop	r29
    1d90:	cf 91       	pop	r28
    1d92:	1f 91       	pop	r17
    1d94:	0f 91       	pop	r16
    1d96:	08 95       	ret

00001d98 <loop>:
	}
}

void loop ()
{
	switch (mode)
    1d98:	80 91 14 02 	lds	r24, 0x0214
    1d9c:	81 30       	cpi	r24, 0x01	; 1
    1d9e:	29 f0       	breq	.+10     	; 0x1daa <loop+0x12>
    1da0:	18 f0       	brcs	.+6      	; 0x1da8 <loop+0x10>
    1da2:	82 30       	cpi	r24, 0x02	; 2
    1da4:	19 f0       	breq	.+6      	; 0x1dac <loop+0x14>
    1da6:	08 95       	ret
	{
		case normal:
		normalHandle();
    1da8:	49 cf       	rjmp	.-366    	; 0x1c3c <normalHandle>
		break;
		case settings:
		settingsHandle();
    1daa:	58 cd       	rjmp	.-1360   	; 0x185c <settingsHandle>
		break;
		case test:
		testHandle();
    1dac:	f3 cd       	rjmp	.-1050   	; 0x1994 <testHandle>

00001dae <SetupHardware>:
/** Configures the board hardware and chip peripherals for the demo's functionality. */
void SetupHardware(void)
{
#if (ARCH == ARCH_AVR8)
	/* Disable watchdog if enabled by bootloader/fuses */
	MCUSR &= ~(1 << WDRF);
    1dae:	84 b7       	in	r24, 0x34	; 52
    1db0:	87 7f       	andi	r24, 0xF7	; 247
    1db2:	84 bf       	out	0x34, r24	; 52
		);
	}
	else
	{
        uint8_t register temp_reg;
		__asm__ __volatile__ (
    1db4:	0f b6       	in	r0, 0x3f	; 63
    1db6:	f8 94       	cli
    1db8:	a8 95       	wdr
    1dba:	80 91 60 00 	lds	r24, 0x0060
    1dbe:	88 61       	ori	r24, 0x18	; 24
    1dc0:	80 93 60 00 	sts	0x0060, r24
    1dc4:	10 92 60 00 	sts	0x0060, r1
    1dc8:	0f be       	out	0x3f, r0	; 63
from 1 to 129. Thus, one does not need to use \c clock_div_t type as argument.
*/
void clock_prescale_set(clock_div_t __x)
{
    uint8_t __tmp = _BV(CLKPCE);
    __asm__ __volatile__ (
    1dca:	90 e0       	ldi	r25, 0x00	; 0
    1dcc:	80 e8       	ldi	r24, 0x80	; 128
    1dce:	0f b6       	in	r0, 0x3f	; 63
    1dd0:	f8 94       	cli
    1dd2:	80 93 61 00 	sts	0x0061, r24
    1dd6:	90 93 61 00 	sts	0x0061, r25
    1dda:	0f be       	out	0x3f, r0	; 63

	PMIC.CTRL = PMIC_LOLVLEN_bm | PMIC_MEDLVLEN_bm | PMIC_HILVLEN_bm;
#endif

	/* Hardware Initialization */
	LCD_Init();
    1ddc:	0e 94 e1 01 	call	0x3c2	; 0x3c2 <LCD_Init>
	relay1_Init();
    1de0:	53 9a       	sbi	0x0a, 3	; 10
	but_Init();
    1de2:	3e 98       	cbi	0x07, 6	; 7
    1de4:	46 9a       	sbi	0x08, 6	; 8
    1de6:	3f 98       	cbi	0x07, 7	; 7
    1de8:	47 9a       	sbi	0x08, 7	; 8
    1dea:	26 98       	cbi	0x04, 6	; 4
    1dec:	2e 9a       	sbi	0x05, 6	; 5
	ADC_Init();
    1dee:	0e 94 3b 01 	call	0x276	; 0x276 <ADC_Init>
	pressure_Init();
    1df2:	0e 94 99 02 	call	0x532	; 0x532 <pressure_Init>
	USB_Init();
    1df6:	03 c8       	rjmp	.-4090   	; 0xdfe <USB_Init>

00001df8 <main>:
		
	}
}

int main(void)
{
    1df8:	cf 93       	push	r28
    1dfa:	df 93       	push	r29
    1dfc:	cd b7       	in	r28, 0x3d	; 61
    1dfe:	de b7       	in	r29, 0x3e	; 62
    1e00:	6e 97       	sbiw	r28, 0x1e	; 30
    1e02:	0f b6       	in	r0, 0x3f	; 63
    1e04:	f8 94       	cli
    1e06:	de bf       	out	0x3e, r29	; 62
    1e08:	0f be       	out	0x3f, r0	; 63
    1e0a:	cd bf       	out	0x3d, r28	; 61
	SetupHardware();
    1e0c:	d0 df       	rcall	.-96     	; 0x1dae <SetupHardware>

	/* Create a regular character stream for the interface so that it can be used with the stdio.h functions */
	CDC_Device_CreateStream(&VirtualSerial_CDC_Interface, &USBSerialStream);
    1e0e:	6d e1       	ldi	r22, 0x1D	; 29
    1e10:	72 e0       	ldi	r23, 0x02	; 2
    1e12:	86 e0       	ldi	r24, 0x06	; 6
    1e14:	91 e0       	ldi	r25, 0x01	; 1
    1e16:	0e 94 20 04 	call	0x840	; 0x840 <CDC_Device_CreateStream>
			static inline void GlobalInterruptEnable(void)
			{
				GCC_MEMORY_BARRIER();

				#if (ARCH == ARCH_AVR8)
				sei();
    1e1a:	78 94       	sei

	GlobalInterruptEnable();

	first_run = eeprom_read_byte(&first_run_eep);
    1e1c:	86 e0       	ldi	r24, 0x06	; 6
    1e1e:	90 e0       	ldi	r25, 0x00	; 0
    1e20:	db d7       	rcall	.+4022   	; 0x2dd8 <eeprom_read_byte>
    1e22:	80 93 1c 02 	sts	0x021C, r24
				pressure_max = eeprom_read_word(&pressure_max_eep);
				pressure_min = eeprom_read_word(&pressure_min_eep);
				time_of_regulator = eeprom_read_word(&time_of_regulator_eep);
				float pressure_atm = ConvToAtm(pressure_min);
				char temp[30];
				sprintf(temp, "P min: %.2f aїј", pressure_atm);
    1e26:	89 e2       	ldi	r24, 0x29	; 41
    1e28:	e8 2e       	mov	r14, r24
    1e2a:	81 e0       	ldi	r24, 0x01	; 1
    1e2c:	f8 2e       	mov	r15, r24
    1e2e:	8e 01       	movw	r16, r28
    1e30:	0f 5f       	subi	r16, 0xFF	; 255
    1e32:	1f 4f       	sbci	r17, 0xFF	; 255
				LCD_Goto(0,0);
				LCD_SendStr(temp);
				_delay_ms(1000);
				pressure_atm = ConvToAtm(pressure_max);
				sprintf(temp, "P max: %.2f aїј", pressure_atm);
    1e34:	99 e3       	ldi	r25, 0x39	; 57
    1e36:	c9 2e       	mov	r12, r25
    1e38:	91 e0       	ldi	r25, 0x01	; 1
    1e3a:	d9 2e       	mov	r13, r25
				LCD_Goto(0,0);
				LCD_SendStr(temp);
				_delay_ms(1000);
				LCD_Clear();
				sprintf(temp, "T Reg: %3.0d c", time_of_regulator);
    1e3c:	2d e5       	ldi	r18, 0x5D	; 93
    1e3e:	a2 2e       	mov	r10, r18
    1e40:	21 e0       	ldi	r18, 0x01	; 1
    1e42:	b2 2e       	mov	r11, r18

	first_run = eeprom_read_byte(&first_run_eep);

	for (;;)
	{
		if (!first_run_local)
    1e44:	80 91 1b 02 	lds	r24, 0x021B
    1e48:	81 11       	cpse	r24, r1
    1e4a:	aa c0       	rjmp	.+340    	; 0x1fa0 <main+0x1a8>
		{
			if (!first_run)
    1e4c:	80 91 1c 02 	lds	r24, 0x021C
    1e50:	81 11       	cpse	r24, r1
    1e52:	0e c0       	rjmp	.+28     	; 0x1e70 <main+0x78>
			{
				set_const();
    1e54:	6e da       	rcall	.-2852   	; 0x1332 <set_const>
				LCD_Clear();
    1e56:	81 e0       	ldi	r24, 0x01	; 1
    1e58:	0e 94 d5 01 	call	0x3aa	; 0x3aa <LCD_WriteCom>
    1e5c:	8f e3       	ldi	r24, 0x3F	; 63
    1e5e:	9f e1       	ldi	r25, 0x1F	; 31
    1e60:	01 97       	sbiw	r24, 0x01	; 1
    1e62:	f1 f7       	brne	.-4      	; 0x1e60 <main+0x68>
    1e64:	00 c0       	rjmp	.+0      	; 0x1e66 <main+0x6e>
    1e66:	00 00       	nop
				first_run_local = 1;
    1e68:	81 e0       	ldi	r24, 0x01	; 1
    1e6a:	80 93 1b 02 	sts	0x021B, r24
    1e6e:	98 c0       	rjmp	.+304    	; 0x1fa0 <main+0x1a8>
			}
			else
			{
				pressure_max = eeprom_read_word(&pressure_max_eep);
    1e70:	82 e0       	ldi	r24, 0x02	; 2
    1e72:	90 e0       	ldi	r25, 0x00	; 0
    1e74:	b9 d7       	rcall	.+3954   	; 0x2de8 <eeprom_read_word>
    1e76:	90 93 1a 02 	sts	0x021A, r25
    1e7a:	80 93 19 02 	sts	0x0219, r24
				pressure_min = eeprom_read_word(&pressure_min_eep);
    1e7e:	84 e0       	ldi	r24, 0x04	; 4
    1e80:	90 e0       	ldi	r25, 0x00	; 0
    1e82:	b2 d7       	rcall	.+3940   	; 0x2de8 <eeprom_read_word>
    1e84:	90 93 18 02 	sts	0x0218, r25
    1e88:	80 93 17 02 	sts	0x0217, r24
				time_of_regulator = eeprom_read_word(&time_of_regulator_eep);
    1e8c:	80 e0       	ldi	r24, 0x00	; 0
    1e8e:	90 e0       	ldi	r25, 0x00	; 0
    1e90:	ab d7       	rcall	.+3926   	; 0x2de8 <eeprom_read_word>
    1e92:	90 93 16 02 	sts	0x0216, r25
    1e96:	80 93 15 02 	sts	0x0215, r24
				float pressure_atm = ConvToAtm(pressure_min);
    1e9a:	60 91 17 02 	lds	r22, 0x0217
    1e9e:	70 91 18 02 	lds	r23, 0x0218
    1ea2:	80 e0       	ldi	r24, 0x00	; 0
    1ea4:	90 e0       	ldi	r25, 0x00	; 0
    1ea6:	34 d1       	rcall	.+616    	; 0x2110 <__floatunsisf>
    1ea8:	27 e2       	ldi	r18, 0x27	; 39
    1eaa:	3e e9       	ldi	r19, 0x9E	; 158
    1eac:	45 ef       	ldi	r20, 0xF5	; 245
    1eae:	5b e3       	ldi	r21, 0x3B	; 59
    1eb0:	bd d1       	rcall	.+890    	; 0x222c <__mulsf3>
    1eb2:	28 e0       	ldi	r18, 0x08	; 8
    1eb4:	32 e3       	ldi	r19, 0x32	; 50
    1eb6:	4d e9       	ldi	r20, 0x9D	; 157
    1eb8:	5e e3       	ldi	r21, 0x3E	; 62
    1eba:	c5 d0       	rcall	.+394    	; 0x2046 <__subsf3>
				char temp[30];
				sprintf(temp, "P min: %.2f aїј", pressure_atm);
    1ebc:	9f 93       	push	r25
    1ebe:	8f 93       	push	r24
    1ec0:	7f 93       	push	r23
    1ec2:	6f 93       	push	r22
    1ec4:	ff 92       	push	r15
    1ec6:	ef 92       	push	r14
    1ec8:	1f 93       	push	r17
    1eca:	0f 93       	push	r16
    1ecc:	07 d7       	rcall	.+3598   	; 0x2cdc <sprintf>
				LCD_Goto(0,0);
    1ece:	80 e8       	ldi	r24, 0x80	; 128
    1ed0:	0e 94 d5 01 	call	0x3aa	; 0x3aa <LCD_WriteCom>
				LCD_SendStr(temp);
    1ed4:	c8 01       	movw	r24, r16
    1ed6:	0e 94 12 02 	call	0x424	; 0x424 <LCD_SendStr>
    1eda:	9f ef       	ldi	r25, 0xFF	; 255
    1edc:	23 ed       	ldi	r18, 0xD3	; 211
    1ede:	80 e3       	ldi	r24, 0x30	; 48
    1ee0:	91 50       	subi	r25, 0x01	; 1
    1ee2:	20 40       	sbci	r18, 0x00	; 0
    1ee4:	80 40       	sbci	r24, 0x00	; 0
    1ee6:	e1 f7       	brne	.-8      	; 0x1ee0 <main+0xe8>
    1ee8:	00 c0       	rjmp	.+0      	; 0x1eea <main+0xf2>
    1eea:	00 00       	nop
				_delay_ms(1000);
				pressure_atm = ConvToAtm(pressure_max);
    1eec:	60 91 19 02 	lds	r22, 0x0219
    1ef0:	70 91 1a 02 	lds	r23, 0x021A
    1ef4:	80 e0       	ldi	r24, 0x00	; 0
    1ef6:	90 e0       	ldi	r25, 0x00	; 0
    1ef8:	0b d1       	rcall	.+534    	; 0x2110 <__floatunsisf>
    1efa:	27 e2       	ldi	r18, 0x27	; 39
    1efc:	3e e9       	ldi	r19, 0x9E	; 158
    1efe:	45 ef       	ldi	r20, 0xF5	; 245
    1f00:	5b e3       	ldi	r21, 0x3B	; 59
    1f02:	94 d1       	rcall	.+808    	; 0x222c <__mulsf3>
    1f04:	28 e0       	ldi	r18, 0x08	; 8
    1f06:	32 e3       	ldi	r19, 0x32	; 50
    1f08:	4d e9       	ldi	r20, 0x9D	; 157
    1f0a:	5e e3       	ldi	r21, 0x3E	; 62
    1f0c:	9c d0       	rcall	.+312    	; 0x2046 <__subsf3>
				sprintf(temp, "P max: %.2f aїј", pressure_atm);
    1f0e:	9f 93       	push	r25
    1f10:	8f 93       	push	r24
    1f12:	7f 93       	push	r23
    1f14:	6f 93       	push	r22
    1f16:	df 92       	push	r13
    1f18:	cf 92       	push	r12
    1f1a:	1f 93       	push	r17
    1f1c:	0f 93       	push	r16
    1f1e:	de d6       	rcall	.+3516   	; 0x2cdc <sprintf>
				LCD_Goto(0,0);
    1f20:	80 e8       	ldi	r24, 0x80	; 128
    1f22:	0e 94 d5 01 	call	0x3aa	; 0x3aa <LCD_WriteCom>
				LCD_SendStr(temp);
    1f26:	c8 01       	movw	r24, r16
    1f28:	0e 94 12 02 	call	0x424	; 0x424 <LCD_SendStr>
    1f2c:	9f ef       	ldi	r25, 0xFF	; 255
    1f2e:	23 ed       	ldi	r18, 0xD3	; 211
    1f30:	80 e3       	ldi	r24, 0x30	; 48
    1f32:	91 50       	subi	r25, 0x01	; 1
    1f34:	20 40       	sbci	r18, 0x00	; 0
    1f36:	80 40       	sbci	r24, 0x00	; 0
    1f38:	e1 f7       	brne	.-8      	; 0x1f32 <main+0x13a>
    1f3a:	00 c0       	rjmp	.+0      	; 0x1f3c <main+0x144>
    1f3c:	00 00       	nop
				_delay_ms(1000);
				LCD_Clear();
    1f3e:	81 e0       	ldi	r24, 0x01	; 1
    1f40:	0e 94 d5 01 	call	0x3aa	; 0x3aa <LCD_WriteCom>
    1f44:	8f e3       	ldi	r24, 0x3F	; 63
    1f46:	9f e1       	ldi	r25, 0x1F	; 31
    1f48:	01 97       	sbiw	r24, 0x01	; 1
    1f4a:	f1 f7       	brne	.-4      	; 0x1f48 <main+0x150>
    1f4c:	00 c0       	rjmp	.+0      	; 0x1f4e <main+0x156>
    1f4e:	00 00       	nop
				sprintf(temp, "T Reg: %3.0d c", time_of_regulator);
    1f50:	80 91 15 02 	lds	r24, 0x0215
    1f54:	90 91 16 02 	lds	r25, 0x0216
    1f58:	9f 93       	push	r25
    1f5a:	8f 93       	push	r24
    1f5c:	bf 92       	push	r11
    1f5e:	af 92       	push	r10
    1f60:	1f 93       	push	r17
    1f62:	0f 93       	push	r16
    1f64:	bb d6       	rcall	.+3446   	; 0x2cdc <sprintf>
				LCD_SendStr(temp);
    1f66:	c8 01       	movw	r24, r16
    1f68:	0e 94 12 02 	call	0x424	; 0x424 <LCD_SendStr>
    1f6c:	9f ef       	ldi	r25, 0xFF	; 255
    1f6e:	23 ed       	ldi	r18, 0xD3	; 211
    1f70:	80 e3       	ldi	r24, 0x30	; 48
    1f72:	91 50       	subi	r25, 0x01	; 1
    1f74:	20 40       	sbci	r18, 0x00	; 0
    1f76:	80 40       	sbci	r24, 0x00	; 0
    1f78:	e1 f7       	brne	.-8      	; 0x1f72 <main+0x17a>
    1f7a:	00 c0       	rjmp	.+0      	; 0x1f7c <main+0x184>
    1f7c:	00 00       	nop
				_delay_ms(1000);
				LCD_Clear();
    1f7e:	81 e0       	ldi	r24, 0x01	; 1
    1f80:	0e 94 d5 01 	call	0x3aa	; 0x3aa <LCD_WriteCom>
    1f84:	8f e3       	ldi	r24, 0x3F	; 63
    1f86:	9f e1       	ldi	r25, 0x1F	; 31
    1f88:	01 97       	sbiw	r24, 0x01	; 1
    1f8a:	f1 f7       	brne	.-4      	; 0x1f88 <main+0x190>
    1f8c:	00 c0       	rjmp	.+0      	; 0x1f8e <main+0x196>
    1f8e:	00 00       	nop
				first_run_local = 1;
    1f90:	81 e0       	ldi	r24, 0x01	; 1
    1f92:	80 93 1b 02 	sts	0x021B, r24
    1f96:	0f b6       	in	r0, 0x3f	; 63
    1f98:	f8 94       	cli
    1f9a:	de bf       	out	0x3e, r29	; 62
    1f9c:	0f be       	out	0x3f, r0	; 63
    1f9e:	cd bf       	out	0x3d, r28	; 61
			}		
		}
		
		loop();
    1fa0:	fb de       	rcall	.-522    	; 0x1d98 <loop>
    1fa2:	9f ef       	ldi	r25, 0xFF	; 255
    1fa4:	24 e3       	ldi	r18, 0x34	; 52
    1fa6:	8c e0       	ldi	r24, 0x0C	; 12
    1fa8:	91 50       	subi	r25, 0x01	; 1
    1faa:	20 40       	sbci	r18, 0x00	; 0
    1fac:	80 40       	sbci	r24, 0x00	; 0
    1fae:	e1 f7       	brne	.-8      	; 0x1fa8 <main+0x1b0>
    1fb0:	00 c0       	rjmp	.+0      	; 0x1fb2 <main+0x1ba>
    1fb2:	00 00       	nop
    1fb4:	47 cf       	rjmp	.-370    	; 0x1e44 <main+0x4c>

00001fb6 <EVENT_USB_Device_Connect>:
		// CDC_Device_SendString(&VirtualSerial_CDC_Interface, ReportString);

/** Event handler for the library USB Connection event. */
void EVENT_USB_Device_Connect(void)
{
		LCD_Clear();
    1fb6:	81 e0       	ldi	r24, 0x01	; 1
    1fb8:	0e 94 d5 01 	call	0x3aa	; 0x3aa <LCD_WriteCom>
    1fbc:	8f e3       	ldi	r24, 0x3F	; 63
    1fbe:	9f e1       	ldi	r25, 0x1F	; 31
    1fc0:	01 97       	sbiw	r24, 0x01	; 1
    1fc2:	f1 f7       	brne	.-4      	; 0x1fc0 <EVENT_USB_Device_Connect+0xa>
    1fc4:	00 c0       	rjmp	.+0      	; 0x1fc6 <EVENT_USB_Device_Connect+0x10>
    1fc6:	00 00       	nop
		LCD_SendStr((char*)"USB connect");
    1fc8:	82 ed       	ldi	r24, 0xD2	; 210
    1fca:	91 e0       	ldi	r25, 0x01	; 1
    1fcc:	0e 94 12 02 	call	0x424	; 0x424 <LCD_SendStr>
    1fd0:	9f ef       	ldi	r25, 0xFF	; 255
    1fd2:	29 e6       	ldi	r18, 0x69	; 105
    1fd4:	88 e1       	ldi	r24, 0x18	; 24
    1fd6:	91 50       	subi	r25, 0x01	; 1
    1fd8:	20 40       	sbci	r18, 0x00	; 0
    1fda:	80 40       	sbci	r24, 0x00	; 0
    1fdc:	e1 f7       	brne	.-8      	; 0x1fd6 <EVENT_USB_Device_Connect+0x20>
    1fde:	00 c0       	rjmp	.+0      	; 0x1fe0 <EVENT_USB_Device_Connect+0x2a>
    1fe0:	00 00       	nop
		_delay_ms(500);
		LCD_Clear();
    1fe2:	81 e0       	ldi	r24, 0x01	; 1
    1fe4:	0e 94 d5 01 	call	0x3aa	; 0x3aa <LCD_WriteCom>
    1fe8:	8f e3       	ldi	r24, 0x3F	; 63
    1fea:	9f e1       	ldi	r25, 0x1F	; 31
    1fec:	01 97       	sbiw	r24, 0x01	; 1
    1fee:	f1 f7       	brne	.-4      	; 0x1fec <EVENT_USB_Device_Connect+0x36>
    1ff0:	00 c0       	rjmp	.+0      	; 0x1ff2 <EVENT_USB_Device_Connect+0x3c>
    1ff2:	00 00       	nop
    1ff4:	08 95       	ret

00001ff6 <EVENT_USB_Device_Disconnect>:
}

/** Event handler for the library USB Disconnection event. */
void EVENT_USB_Device_Disconnect(void)
{
	LCD_Clear();
    1ff6:	81 e0       	ldi	r24, 0x01	; 1
    1ff8:	0e 94 d5 01 	call	0x3aa	; 0x3aa <LCD_WriteCom>
    1ffc:	8f e3       	ldi	r24, 0x3F	; 63
    1ffe:	9f e1       	ldi	r25, 0x1F	; 31
    2000:	01 97       	sbiw	r24, 0x01	; 1
    2002:	f1 f7       	brne	.-4      	; 0x2000 <EVENT_USB_Device_Disconnect+0xa>
    2004:	00 c0       	rjmp	.+0      	; 0x2006 <EVENT_USB_Device_Disconnect+0x10>
    2006:	00 00       	nop
	LCD_SendStr((char*)"USB disconnect");
    2008:	8e ed       	ldi	r24, 0xDE	; 222
    200a:	91 e0       	ldi	r25, 0x01	; 1
    200c:	0e 94 12 02 	call	0x424	; 0x424 <LCD_SendStr>
    2010:	9f ef       	ldi	r25, 0xFF	; 255
    2012:	29 e6       	ldi	r18, 0x69	; 105
    2014:	88 e1       	ldi	r24, 0x18	; 24
    2016:	91 50       	subi	r25, 0x01	; 1
    2018:	20 40       	sbci	r18, 0x00	; 0
    201a:	80 40       	sbci	r24, 0x00	; 0
    201c:	e1 f7       	brne	.-8      	; 0x2016 <EVENT_USB_Device_Disconnect+0x20>
    201e:	00 c0       	rjmp	.+0      	; 0x2020 <EVENT_USB_Device_Disconnect+0x2a>
    2020:	00 00       	nop
	_delay_ms(500);
	LCD_Clear();
    2022:	81 e0       	ldi	r24, 0x01	; 1
    2024:	0e 94 d5 01 	call	0x3aa	; 0x3aa <LCD_WriteCom>
    2028:	8f e3       	ldi	r24, 0x3F	; 63
    202a:	9f e1       	ldi	r25, 0x1F	; 31
    202c:	01 97       	sbiw	r24, 0x01	; 1
    202e:	f1 f7       	brne	.-4      	; 0x202c <EVENT_USB_Device_Disconnect+0x36>
    2030:	00 c0       	rjmp	.+0      	; 0x2032 <EVENT_USB_Device_Disconnect+0x3c>
    2032:	00 00       	nop
    2034:	08 95       	ret

00002036 <EVENT_USB_Device_ConfigurationChanged>:
/** Event handler for the library USB Configuration Changed event. */
void EVENT_USB_Device_ConfigurationChanged(void)
{
	bool ConfigSuccess = true;

	ConfigSuccess &= CDC_Device_ConfigureEndpoints(&VirtualSerial_CDC_Interface);
    2036:	86 e0       	ldi	r24, 0x06	; 6
    2038:	91 e0       	ldi	r25, 0x01	; 1
    203a:	0c 94 1e 03 	jmp	0x63c	; 0x63c <CDC_Device_ConfigureEndpoints>

0000203e <EVENT_USB_Device_ControlRequest>:
}

/** Event handler for the library USB Control Request reception event. */
void EVENT_USB_Device_ControlRequest(void)
{
	CDC_Device_ProcessControlRequest(&VirtualSerial_CDC_Interface);
    203e:	86 e0       	ldi	r24, 0x06	; 6
    2040:	91 e0       	ldi	r25, 0x01	; 1
    2042:	0c 94 34 04 	jmp	0x868	; 0x868 <CDC_Device_ProcessControlRequest>

00002046 <__subsf3>:
    2046:	50 58       	subi	r21, 0x80	; 128

00002048 <__addsf3>:
    2048:	bb 27       	eor	r27, r27
    204a:	aa 27       	eor	r26, r26
    204c:	0e d0       	rcall	.+28     	; 0x206a <__addsf3x>
    204e:	b4 c0       	rjmp	.+360    	; 0x21b8 <__fp_round>
    2050:	a5 d0       	rcall	.+330    	; 0x219c <__fp_pscA>
    2052:	30 f0       	brcs	.+12     	; 0x2060 <__addsf3+0x18>
    2054:	aa d0       	rcall	.+340    	; 0x21aa <__fp_pscB>
    2056:	20 f0       	brcs	.+8      	; 0x2060 <__addsf3+0x18>
    2058:	31 f4       	brne	.+12     	; 0x2066 <__addsf3+0x1e>
    205a:	9f 3f       	cpi	r25, 0xFF	; 255
    205c:	11 f4       	brne	.+4      	; 0x2062 <__addsf3+0x1a>
    205e:	1e f4       	brtc	.+6      	; 0x2066 <__addsf3+0x1e>
    2060:	9a c0       	rjmp	.+308    	; 0x2196 <__fp_nan>
    2062:	0e f4       	brtc	.+2      	; 0x2066 <__addsf3+0x1e>
    2064:	e0 95       	com	r30
    2066:	e7 fb       	bst	r30, 7
    2068:	90 c0       	rjmp	.+288    	; 0x218a <__fp_inf>

0000206a <__addsf3x>:
    206a:	e9 2f       	mov	r30, r25
    206c:	b6 d0       	rcall	.+364    	; 0x21da <__fp_split3>
    206e:	80 f3       	brcs	.-32     	; 0x2050 <__addsf3+0x8>
    2070:	ba 17       	cp	r27, r26
    2072:	62 07       	cpc	r22, r18
    2074:	73 07       	cpc	r23, r19
    2076:	84 07       	cpc	r24, r20
    2078:	95 07       	cpc	r25, r21
    207a:	18 f0       	brcs	.+6      	; 0x2082 <__addsf3x+0x18>
    207c:	71 f4       	brne	.+28     	; 0x209a <__addsf3x+0x30>
    207e:	9e f5       	brtc	.+102    	; 0x20e6 <__addsf3x+0x7c>
    2080:	ce c0       	rjmp	.+412    	; 0x221e <__fp_zero>
    2082:	0e f4       	brtc	.+2      	; 0x2086 <__addsf3x+0x1c>
    2084:	e0 95       	com	r30
    2086:	0b 2e       	mov	r0, r27
    2088:	ba 2f       	mov	r27, r26
    208a:	a0 2d       	mov	r26, r0
    208c:	0b 01       	movw	r0, r22
    208e:	b9 01       	movw	r22, r18
    2090:	90 01       	movw	r18, r0
    2092:	0c 01       	movw	r0, r24
    2094:	ca 01       	movw	r24, r20
    2096:	a0 01       	movw	r20, r0
    2098:	11 24       	eor	r1, r1
    209a:	ff 27       	eor	r31, r31
    209c:	59 1b       	sub	r21, r25
    209e:	99 f0       	breq	.+38     	; 0x20c6 <__addsf3x+0x5c>
    20a0:	59 3f       	cpi	r21, 0xF9	; 249
    20a2:	50 f4       	brcc	.+20     	; 0x20b8 <__addsf3x+0x4e>
    20a4:	50 3e       	cpi	r21, 0xE0	; 224
    20a6:	68 f1       	brcs	.+90     	; 0x2102 <__addsf3x+0x98>
    20a8:	1a 16       	cp	r1, r26
    20aa:	f0 40       	sbci	r31, 0x00	; 0
    20ac:	a2 2f       	mov	r26, r18
    20ae:	23 2f       	mov	r18, r19
    20b0:	34 2f       	mov	r19, r20
    20b2:	44 27       	eor	r20, r20
    20b4:	58 5f       	subi	r21, 0xF8	; 248
    20b6:	f3 cf       	rjmp	.-26     	; 0x209e <__addsf3x+0x34>
    20b8:	46 95       	lsr	r20
    20ba:	37 95       	ror	r19
    20bc:	27 95       	ror	r18
    20be:	a7 95       	ror	r26
    20c0:	f0 40       	sbci	r31, 0x00	; 0
    20c2:	53 95       	inc	r21
    20c4:	c9 f7       	brne	.-14     	; 0x20b8 <__addsf3x+0x4e>
    20c6:	7e f4       	brtc	.+30     	; 0x20e6 <__addsf3x+0x7c>
    20c8:	1f 16       	cp	r1, r31
    20ca:	ba 0b       	sbc	r27, r26
    20cc:	62 0b       	sbc	r22, r18
    20ce:	73 0b       	sbc	r23, r19
    20d0:	84 0b       	sbc	r24, r20
    20d2:	ba f0       	brmi	.+46     	; 0x2102 <__addsf3x+0x98>
    20d4:	91 50       	subi	r25, 0x01	; 1
    20d6:	a1 f0       	breq	.+40     	; 0x2100 <__addsf3x+0x96>
    20d8:	ff 0f       	add	r31, r31
    20da:	bb 1f       	adc	r27, r27
    20dc:	66 1f       	adc	r22, r22
    20de:	77 1f       	adc	r23, r23
    20e0:	88 1f       	adc	r24, r24
    20e2:	c2 f7       	brpl	.-16     	; 0x20d4 <__addsf3x+0x6a>
    20e4:	0e c0       	rjmp	.+28     	; 0x2102 <__addsf3x+0x98>
    20e6:	ba 0f       	add	r27, r26
    20e8:	62 1f       	adc	r22, r18
    20ea:	73 1f       	adc	r23, r19
    20ec:	84 1f       	adc	r24, r20
    20ee:	48 f4       	brcc	.+18     	; 0x2102 <__addsf3x+0x98>
    20f0:	87 95       	ror	r24
    20f2:	77 95       	ror	r23
    20f4:	67 95       	ror	r22
    20f6:	b7 95       	ror	r27
    20f8:	f7 95       	ror	r31
    20fa:	9e 3f       	cpi	r25, 0xFE	; 254
    20fc:	08 f0       	brcs	.+2      	; 0x2100 <__addsf3x+0x96>
    20fe:	b3 cf       	rjmp	.-154    	; 0x2066 <__addsf3+0x1e>
    2100:	93 95       	inc	r25
    2102:	88 0f       	add	r24, r24
    2104:	08 f0       	brcs	.+2      	; 0x2108 <__addsf3x+0x9e>
    2106:	99 27       	eor	r25, r25
    2108:	ee 0f       	add	r30, r30
    210a:	97 95       	ror	r25
    210c:	87 95       	ror	r24
    210e:	08 95       	ret

00002110 <__floatunsisf>:
    2110:	e8 94       	clt
    2112:	09 c0       	rjmp	.+18     	; 0x2126 <__floatsisf+0x12>

00002114 <__floatsisf>:
    2114:	97 fb       	bst	r25, 7
    2116:	3e f4       	brtc	.+14     	; 0x2126 <__floatsisf+0x12>
    2118:	90 95       	com	r25
    211a:	80 95       	com	r24
    211c:	70 95       	com	r23
    211e:	61 95       	neg	r22
    2120:	7f 4f       	sbci	r23, 0xFF	; 255
    2122:	8f 4f       	sbci	r24, 0xFF	; 255
    2124:	9f 4f       	sbci	r25, 0xFF	; 255
    2126:	99 23       	and	r25, r25
    2128:	a9 f0       	breq	.+42     	; 0x2154 <__floatsisf+0x40>
    212a:	f9 2f       	mov	r31, r25
    212c:	96 e9       	ldi	r25, 0x96	; 150
    212e:	bb 27       	eor	r27, r27
    2130:	93 95       	inc	r25
    2132:	f6 95       	lsr	r31
    2134:	87 95       	ror	r24
    2136:	77 95       	ror	r23
    2138:	67 95       	ror	r22
    213a:	b7 95       	ror	r27
    213c:	f1 11       	cpse	r31, r1
    213e:	f8 cf       	rjmp	.-16     	; 0x2130 <__floatsisf+0x1c>
    2140:	fa f4       	brpl	.+62     	; 0x2180 <__floatsisf+0x6c>
    2142:	bb 0f       	add	r27, r27
    2144:	11 f4       	brne	.+4      	; 0x214a <__floatsisf+0x36>
    2146:	60 ff       	sbrs	r22, 0
    2148:	1b c0       	rjmp	.+54     	; 0x2180 <__floatsisf+0x6c>
    214a:	6f 5f       	subi	r22, 0xFF	; 255
    214c:	7f 4f       	sbci	r23, 0xFF	; 255
    214e:	8f 4f       	sbci	r24, 0xFF	; 255
    2150:	9f 4f       	sbci	r25, 0xFF	; 255
    2152:	16 c0       	rjmp	.+44     	; 0x2180 <__floatsisf+0x6c>
    2154:	88 23       	and	r24, r24
    2156:	11 f0       	breq	.+4      	; 0x215c <__floatsisf+0x48>
    2158:	96 e9       	ldi	r25, 0x96	; 150
    215a:	11 c0       	rjmp	.+34     	; 0x217e <__floatsisf+0x6a>
    215c:	77 23       	and	r23, r23
    215e:	21 f0       	breq	.+8      	; 0x2168 <__floatsisf+0x54>
    2160:	9e e8       	ldi	r25, 0x8E	; 142
    2162:	87 2f       	mov	r24, r23
    2164:	76 2f       	mov	r23, r22
    2166:	05 c0       	rjmp	.+10     	; 0x2172 <__floatsisf+0x5e>
    2168:	66 23       	and	r22, r22
    216a:	71 f0       	breq	.+28     	; 0x2188 <__floatsisf+0x74>
    216c:	96 e8       	ldi	r25, 0x86	; 134
    216e:	86 2f       	mov	r24, r22
    2170:	70 e0       	ldi	r23, 0x00	; 0
    2172:	60 e0       	ldi	r22, 0x00	; 0
    2174:	2a f0       	brmi	.+10     	; 0x2180 <__floatsisf+0x6c>
    2176:	9a 95       	dec	r25
    2178:	66 0f       	add	r22, r22
    217a:	77 1f       	adc	r23, r23
    217c:	88 1f       	adc	r24, r24
    217e:	da f7       	brpl	.-10     	; 0x2176 <__floatsisf+0x62>
    2180:	88 0f       	add	r24, r24
    2182:	96 95       	lsr	r25
    2184:	87 95       	ror	r24
    2186:	97 f9       	bld	r25, 7
    2188:	08 95       	ret

0000218a <__fp_inf>:
    218a:	97 f9       	bld	r25, 7
    218c:	9f 67       	ori	r25, 0x7F	; 127
    218e:	80 e8       	ldi	r24, 0x80	; 128
    2190:	70 e0       	ldi	r23, 0x00	; 0
    2192:	60 e0       	ldi	r22, 0x00	; 0
    2194:	08 95       	ret

00002196 <__fp_nan>:
    2196:	9f ef       	ldi	r25, 0xFF	; 255
    2198:	80 ec       	ldi	r24, 0xC0	; 192
    219a:	08 95       	ret

0000219c <__fp_pscA>:
    219c:	00 24       	eor	r0, r0
    219e:	0a 94       	dec	r0
    21a0:	16 16       	cp	r1, r22
    21a2:	17 06       	cpc	r1, r23
    21a4:	18 06       	cpc	r1, r24
    21a6:	09 06       	cpc	r0, r25
    21a8:	08 95       	ret

000021aa <__fp_pscB>:
    21aa:	00 24       	eor	r0, r0
    21ac:	0a 94       	dec	r0
    21ae:	12 16       	cp	r1, r18
    21b0:	13 06       	cpc	r1, r19
    21b2:	14 06       	cpc	r1, r20
    21b4:	05 06       	cpc	r0, r21
    21b6:	08 95       	ret

000021b8 <__fp_round>:
    21b8:	09 2e       	mov	r0, r25
    21ba:	03 94       	inc	r0
    21bc:	00 0c       	add	r0, r0
    21be:	11 f4       	brne	.+4      	; 0x21c4 <__fp_round+0xc>
    21c0:	88 23       	and	r24, r24
    21c2:	52 f0       	brmi	.+20     	; 0x21d8 <__fp_round+0x20>
    21c4:	bb 0f       	add	r27, r27
    21c6:	40 f4       	brcc	.+16     	; 0x21d8 <__fp_round+0x20>
    21c8:	bf 2b       	or	r27, r31
    21ca:	11 f4       	brne	.+4      	; 0x21d0 <__fp_round+0x18>
    21cc:	60 ff       	sbrs	r22, 0
    21ce:	04 c0       	rjmp	.+8      	; 0x21d8 <__fp_round+0x20>
    21d0:	6f 5f       	subi	r22, 0xFF	; 255
    21d2:	7f 4f       	sbci	r23, 0xFF	; 255
    21d4:	8f 4f       	sbci	r24, 0xFF	; 255
    21d6:	9f 4f       	sbci	r25, 0xFF	; 255
    21d8:	08 95       	ret

000021da <__fp_split3>:
    21da:	57 fd       	sbrc	r21, 7
    21dc:	90 58       	subi	r25, 0x80	; 128
    21de:	44 0f       	add	r20, r20
    21e0:	55 1f       	adc	r21, r21
    21e2:	59 f0       	breq	.+22     	; 0x21fa <__fp_splitA+0x10>
    21e4:	5f 3f       	cpi	r21, 0xFF	; 255
    21e6:	71 f0       	breq	.+28     	; 0x2204 <__fp_splitA+0x1a>
    21e8:	47 95       	ror	r20

000021ea <__fp_splitA>:
    21ea:	88 0f       	add	r24, r24
    21ec:	97 fb       	bst	r25, 7
    21ee:	99 1f       	adc	r25, r25
    21f0:	61 f0       	breq	.+24     	; 0x220a <__fp_splitA+0x20>
    21f2:	9f 3f       	cpi	r25, 0xFF	; 255
    21f4:	79 f0       	breq	.+30     	; 0x2214 <__fp_splitA+0x2a>
    21f6:	87 95       	ror	r24
    21f8:	08 95       	ret
    21fa:	12 16       	cp	r1, r18
    21fc:	13 06       	cpc	r1, r19
    21fe:	14 06       	cpc	r1, r20
    2200:	55 1f       	adc	r21, r21
    2202:	f2 cf       	rjmp	.-28     	; 0x21e8 <__fp_split3+0xe>
    2204:	46 95       	lsr	r20
    2206:	f1 df       	rcall	.-30     	; 0x21ea <__fp_splitA>
    2208:	08 c0       	rjmp	.+16     	; 0x221a <__fp_splitA+0x30>
    220a:	16 16       	cp	r1, r22
    220c:	17 06       	cpc	r1, r23
    220e:	18 06       	cpc	r1, r24
    2210:	99 1f       	adc	r25, r25
    2212:	f1 cf       	rjmp	.-30     	; 0x21f6 <__fp_splitA+0xc>
    2214:	86 95       	lsr	r24
    2216:	71 05       	cpc	r23, r1
    2218:	61 05       	cpc	r22, r1
    221a:	08 94       	sec
    221c:	08 95       	ret

0000221e <__fp_zero>:
    221e:	e8 94       	clt

00002220 <__fp_szero>:
    2220:	bb 27       	eor	r27, r27
    2222:	66 27       	eor	r22, r22
    2224:	77 27       	eor	r23, r23
    2226:	cb 01       	movw	r24, r22
    2228:	97 f9       	bld	r25, 7
    222a:	08 95       	ret

0000222c <__mulsf3>:
    222c:	0b d0       	rcall	.+22     	; 0x2244 <__mulsf3x>
    222e:	c4 cf       	rjmp	.-120    	; 0x21b8 <__fp_round>
    2230:	b5 df       	rcall	.-150    	; 0x219c <__fp_pscA>
    2232:	28 f0       	brcs	.+10     	; 0x223e <__mulsf3+0x12>
    2234:	ba df       	rcall	.-140    	; 0x21aa <__fp_pscB>
    2236:	18 f0       	brcs	.+6      	; 0x223e <__mulsf3+0x12>
    2238:	95 23       	and	r25, r21
    223a:	09 f0       	breq	.+2      	; 0x223e <__mulsf3+0x12>
    223c:	a6 cf       	rjmp	.-180    	; 0x218a <__fp_inf>
    223e:	ab cf       	rjmp	.-170    	; 0x2196 <__fp_nan>
    2240:	11 24       	eor	r1, r1
    2242:	ee cf       	rjmp	.-36     	; 0x2220 <__fp_szero>

00002244 <__mulsf3x>:
    2244:	ca df       	rcall	.-108    	; 0x21da <__fp_split3>
    2246:	a0 f3       	brcs	.-24     	; 0x2230 <__mulsf3+0x4>

00002248 <__mulsf3_pse>:
    2248:	95 9f       	mul	r25, r21
    224a:	d1 f3       	breq	.-12     	; 0x2240 <__mulsf3+0x14>
    224c:	95 0f       	add	r25, r21
    224e:	50 e0       	ldi	r21, 0x00	; 0
    2250:	55 1f       	adc	r21, r21
    2252:	62 9f       	mul	r22, r18
    2254:	f0 01       	movw	r30, r0
    2256:	72 9f       	mul	r23, r18
    2258:	bb 27       	eor	r27, r27
    225a:	f0 0d       	add	r31, r0
    225c:	b1 1d       	adc	r27, r1
    225e:	63 9f       	mul	r22, r19
    2260:	aa 27       	eor	r26, r26
    2262:	f0 0d       	add	r31, r0
    2264:	b1 1d       	adc	r27, r1
    2266:	aa 1f       	adc	r26, r26
    2268:	64 9f       	mul	r22, r20
    226a:	66 27       	eor	r22, r22
    226c:	b0 0d       	add	r27, r0
    226e:	a1 1d       	adc	r26, r1
    2270:	66 1f       	adc	r22, r22
    2272:	82 9f       	mul	r24, r18
    2274:	22 27       	eor	r18, r18
    2276:	b0 0d       	add	r27, r0
    2278:	a1 1d       	adc	r26, r1
    227a:	62 1f       	adc	r22, r18
    227c:	73 9f       	mul	r23, r19
    227e:	b0 0d       	add	r27, r0
    2280:	a1 1d       	adc	r26, r1
    2282:	62 1f       	adc	r22, r18
    2284:	83 9f       	mul	r24, r19
    2286:	a0 0d       	add	r26, r0
    2288:	61 1d       	adc	r22, r1
    228a:	22 1f       	adc	r18, r18
    228c:	74 9f       	mul	r23, r20
    228e:	33 27       	eor	r19, r19
    2290:	a0 0d       	add	r26, r0
    2292:	61 1d       	adc	r22, r1
    2294:	23 1f       	adc	r18, r19
    2296:	84 9f       	mul	r24, r20
    2298:	60 0d       	add	r22, r0
    229a:	21 1d       	adc	r18, r1
    229c:	82 2f       	mov	r24, r18
    229e:	76 2f       	mov	r23, r22
    22a0:	6a 2f       	mov	r22, r26
    22a2:	11 24       	eor	r1, r1
    22a4:	9f 57       	subi	r25, 0x7F	; 127
    22a6:	50 40       	sbci	r21, 0x00	; 0
    22a8:	8a f0       	brmi	.+34     	; 0x22cc <__mulsf3_pse+0x84>
    22aa:	e1 f0       	breq	.+56     	; 0x22e4 <__mulsf3_pse+0x9c>
    22ac:	88 23       	and	r24, r24
    22ae:	4a f0       	brmi	.+18     	; 0x22c2 <__mulsf3_pse+0x7a>
    22b0:	ee 0f       	add	r30, r30
    22b2:	ff 1f       	adc	r31, r31
    22b4:	bb 1f       	adc	r27, r27
    22b6:	66 1f       	adc	r22, r22
    22b8:	77 1f       	adc	r23, r23
    22ba:	88 1f       	adc	r24, r24
    22bc:	91 50       	subi	r25, 0x01	; 1
    22be:	50 40       	sbci	r21, 0x00	; 0
    22c0:	a9 f7       	brne	.-22     	; 0x22ac <__mulsf3_pse+0x64>
    22c2:	9e 3f       	cpi	r25, 0xFE	; 254
    22c4:	51 05       	cpc	r21, r1
    22c6:	70 f0       	brcs	.+28     	; 0x22e4 <__mulsf3_pse+0x9c>
    22c8:	60 cf       	rjmp	.-320    	; 0x218a <__fp_inf>
    22ca:	aa cf       	rjmp	.-172    	; 0x2220 <__fp_szero>
    22cc:	5f 3f       	cpi	r21, 0xFF	; 255
    22ce:	ec f3       	brlt	.-6      	; 0x22ca <__mulsf3_pse+0x82>
    22d0:	98 3e       	cpi	r25, 0xE8	; 232
    22d2:	dc f3       	brlt	.-10     	; 0x22ca <__mulsf3_pse+0x82>
    22d4:	86 95       	lsr	r24
    22d6:	77 95       	ror	r23
    22d8:	67 95       	ror	r22
    22da:	b7 95       	ror	r27
    22dc:	f7 95       	ror	r31
    22de:	e7 95       	ror	r30
    22e0:	9f 5f       	subi	r25, 0xFF	; 255
    22e2:	c1 f7       	brne	.-16     	; 0x22d4 <__mulsf3_pse+0x8c>
    22e4:	fe 2b       	or	r31, r30
    22e6:	88 0f       	add	r24, r24
    22e8:	91 1d       	adc	r25, r1
    22ea:	96 95       	lsr	r25
    22ec:	87 95       	ror	r24
    22ee:	97 f9       	bld	r25, 7
    22f0:	08 95       	ret

000022f2 <vfprintf>:
    22f2:	a3 e1       	ldi	r26, 0x13	; 19
    22f4:	b0 e0       	ldi	r27, 0x00	; 0
    22f6:	ee e7       	ldi	r30, 0x7E	; 126
    22f8:	f1 e1       	ldi	r31, 0x11	; 17
    22fa:	84 c3       	rjmp	.+1800   	; 0x2a04 <__prologue_saves__>
    22fc:	6c 01       	movw	r12, r24
    22fe:	4b 01       	movw	r8, r22
    2300:	2a 01       	movw	r4, r20
    2302:	fc 01       	movw	r30, r24
    2304:	17 82       	std	Z+7, r1	; 0x07
    2306:	16 82       	std	Z+6, r1	; 0x06
    2308:	83 81       	ldd	r24, Z+3	; 0x03
    230a:	81 ff       	sbrs	r24, 1
    230c:	29 c3       	rjmp	.+1618   	; 0x2960 <vfprintf+0x66e>
    230e:	ae 01       	movw	r20, r28
    2310:	4f 5f       	subi	r20, 0xFF	; 255
    2312:	5f 4f       	sbci	r21, 0xFF	; 255
    2314:	3a 01       	movw	r6, r20
    2316:	f6 01       	movw	r30, r12
    2318:	93 81       	ldd	r25, Z+3	; 0x03
    231a:	f4 01       	movw	r30, r8
    231c:	93 fd       	sbrc	r25, 3
    231e:	85 91       	lpm	r24, Z+
    2320:	93 ff       	sbrs	r25, 3
    2322:	81 91       	ld	r24, Z+
    2324:	4f 01       	movw	r8, r30
    2326:	88 23       	and	r24, r24
    2328:	09 f4       	brne	.+2      	; 0x232c <vfprintf+0x3a>
    232a:	16 c3       	rjmp	.+1580   	; 0x2958 <vfprintf+0x666>
    232c:	85 32       	cpi	r24, 0x25	; 37
    232e:	39 f4       	brne	.+14     	; 0x233e <vfprintf+0x4c>
    2330:	93 fd       	sbrc	r25, 3
    2332:	85 91       	lpm	r24, Z+
    2334:	93 ff       	sbrs	r25, 3
    2336:	81 91       	ld	r24, Z+
    2338:	4f 01       	movw	r8, r30
    233a:	85 32       	cpi	r24, 0x25	; 37
    233c:	31 f4       	brne	.+12     	; 0x234a <vfprintf+0x58>
    233e:	b6 01       	movw	r22, r12
    2340:	90 e0       	ldi	r25, 0x00	; 0
    2342:	94 d4       	rcall	.+2344   	; 0x2c6c <fputc>
    2344:	52 01       	movw	r10, r4
    2346:	25 01       	movw	r4, r10
    2348:	e6 cf       	rjmp	.-52     	; 0x2316 <vfprintf+0x24>
    234a:	10 e0       	ldi	r17, 0x00	; 0
    234c:	f1 2c       	mov	r15, r1
    234e:	20 e0       	ldi	r18, 0x00	; 0
    2350:	20 32       	cpi	r18, 0x20	; 32
    2352:	a0 f4       	brcc	.+40     	; 0x237c <vfprintf+0x8a>
    2354:	8b 32       	cpi	r24, 0x2B	; 43
    2356:	69 f0       	breq	.+26     	; 0x2372 <vfprintf+0x80>
    2358:	30 f4       	brcc	.+12     	; 0x2366 <vfprintf+0x74>
    235a:	80 32       	cpi	r24, 0x20	; 32
    235c:	59 f0       	breq	.+22     	; 0x2374 <vfprintf+0x82>
    235e:	83 32       	cpi	r24, 0x23	; 35
    2360:	69 f4       	brne	.+26     	; 0x237c <vfprintf+0x8a>
    2362:	20 61       	ori	r18, 0x10	; 16
    2364:	2c c0       	rjmp	.+88     	; 0x23be <vfprintf+0xcc>
    2366:	8d 32       	cpi	r24, 0x2D	; 45
    2368:	39 f0       	breq	.+14     	; 0x2378 <vfprintf+0x86>
    236a:	80 33       	cpi	r24, 0x30	; 48
    236c:	39 f4       	brne	.+14     	; 0x237c <vfprintf+0x8a>
    236e:	21 60       	ori	r18, 0x01	; 1
    2370:	26 c0       	rjmp	.+76     	; 0x23be <vfprintf+0xcc>
    2372:	22 60       	ori	r18, 0x02	; 2
    2374:	24 60       	ori	r18, 0x04	; 4
    2376:	23 c0       	rjmp	.+70     	; 0x23be <vfprintf+0xcc>
    2378:	28 60       	ori	r18, 0x08	; 8
    237a:	21 c0       	rjmp	.+66     	; 0x23be <vfprintf+0xcc>
    237c:	27 fd       	sbrc	r18, 7
    237e:	27 c0       	rjmp	.+78     	; 0x23ce <vfprintf+0xdc>
    2380:	30 ed       	ldi	r19, 0xD0	; 208
    2382:	38 0f       	add	r19, r24
    2384:	3a 30       	cpi	r19, 0x0A	; 10
    2386:	78 f4       	brcc	.+30     	; 0x23a6 <vfprintf+0xb4>
    2388:	26 ff       	sbrs	r18, 6
    238a:	06 c0       	rjmp	.+12     	; 0x2398 <vfprintf+0xa6>
    238c:	fa e0       	ldi	r31, 0x0A	; 10
    238e:	1f 9f       	mul	r17, r31
    2390:	30 0d       	add	r19, r0
    2392:	11 24       	eor	r1, r1
    2394:	13 2f       	mov	r17, r19
    2396:	13 c0       	rjmp	.+38     	; 0x23be <vfprintf+0xcc>
    2398:	4a e0       	ldi	r20, 0x0A	; 10
    239a:	f4 9e       	mul	r15, r20
    239c:	30 0d       	add	r19, r0
    239e:	11 24       	eor	r1, r1
    23a0:	f3 2e       	mov	r15, r19
    23a2:	20 62       	ori	r18, 0x20	; 32
    23a4:	0c c0       	rjmp	.+24     	; 0x23be <vfprintf+0xcc>
    23a6:	8e 32       	cpi	r24, 0x2E	; 46
    23a8:	21 f4       	brne	.+8      	; 0x23b2 <vfprintf+0xc0>
    23aa:	26 fd       	sbrc	r18, 6
    23ac:	d5 c2       	rjmp	.+1450   	; 0x2958 <vfprintf+0x666>
    23ae:	20 64       	ori	r18, 0x40	; 64
    23b0:	06 c0       	rjmp	.+12     	; 0x23be <vfprintf+0xcc>
    23b2:	8c 36       	cpi	r24, 0x6C	; 108
    23b4:	11 f4       	brne	.+4      	; 0x23ba <vfprintf+0xc8>
    23b6:	20 68       	ori	r18, 0x80	; 128
    23b8:	02 c0       	rjmp	.+4      	; 0x23be <vfprintf+0xcc>
    23ba:	88 36       	cpi	r24, 0x68	; 104
    23bc:	41 f4       	brne	.+16     	; 0x23ce <vfprintf+0xdc>
    23be:	f4 01       	movw	r30, r8
    23c0:	93 fd       	sbrc	r25, 3
    23c2:	85 91       	lpm	r24, Z+
    23c4:	93 ff       	sbrs	r25, 3
    23c6:	81 91       	ld	r24, Z+
    23c8:	4f 01       	movw	r8, r30
    23ca:	81 11       	cpse	r24, r1
    23cc:	c1 cf       	rjmp	.-126    	; 0x2350 <vfprintf+0x5e>
    23ce:	9b eb       	ldi	r25, 0xBB	; 187
    23d0:	98 0f       	add	r25, r24
    23d2:	93 30       	cpi	r25, 0x03	; 3
    23d4:	18 f4       	brcc	.+6      	; 0x23dc <vfprintf+0xea>
    23d6:	20 61       	ori	r18, 0x10	; 16
    23d8:	80 5e       	subi	r24, 0xE0	; 224
    23da:	06 c0       	rjmp	.+12     	; 0x23e8 <vfprintf+0xf6>
    23dc:	9b e9       	ldi	r25, 0x9B	; 155
    23de:	98 0f       	add	r25, r24
    23e0:	93 30       	cpi	r25, 0x03	; 3
    23e2:	08 f0       	brcs	.+2      	; 0x23e6 <vfprintf+0xf4>
    23e4:	64 c1       	rjmp	.+712    	; 0x26ae <vfprintf+0x3bc>
    23e6:	2f 7e       	andi	r18, 0xEF	; 239
    23e8:	26 ff       	sbrs	r18, 6
    23ea:	16 e0       	ldi	r17, 0x06	; 6
    23ec:	2f 73       	andi	r18, 0x3F	; 63
    23ee:	32 2e       	mov	r3, r18
    23f0:	85 36       	cpi	r24, 0x65	; 101
    23f2:	19 f4       	brne	.+6      	; 0x23fa <vfprintf+0x108>
    23f4:	20 64       	ori	r18, 0x40	; 64
    23f6:	32 2e       	mov	r3, r18
    23f8:	08 c0       	rjmp	.+16     	; 0x240a <vfprintf+0x118>
    23fa:	86 36       	cpi	r24, 0x66	; 102
    23fc:	21 f4       	brne	.+8      	; 0x2406 <vfprintf+0x114>
    23fe:	f2 2f       	mov	r31, r18
    2400:	f0 68       	ori	r31, 0x80	; 128
    2402:	3f 2e       	mov	r3, r31
    2404:	02 c0       	rjmp	.+4      	; 0x240a <vfprintf+0x118>
    2406:	11 11       	cpse	r17, r1
    2408:	11 50       	subi	r17, 0x01	; 1
    240a:	37 fe       	sbrs	r3, 7
    240c:	07 c0       	rjmp	.+14     	; 0x241c <vfprintf+0x12a>
    240e:	1c 33       	cpi	r17, 0x3C	; 60
    2410:	50 f4       	brcc	.+20     	; 0x2426 <vfprintf+0x134>
    2412:	ee 24       	eor	r14, r14
    2414:	e3 94       	inc	r14
    2416:	e1 0e       	add	r14, r17
    2418:	27 e0       	ldi	r18, 0x07	; 7
    241a:	0b c0       	rjmp	.+22     	; 0x2432 <vfprintf+0x140>
    241c:	18 30       	cpi	r17, 0x08	; 8
    241e:	38 f0       	brcs	.+14     	; 0x242e <vfprintf+0x13c>
    2420:	27 e0       	ldi	r18, 0x07	; 7
    2422:	17 e0       	ldi	r17, 0x07	; 7
    2424:	05 c0       	rjmp	.+10     	; 0x2430 <vfprintf+0x13e>
    2426:	27 e0       	ldi	r18, 0x07	; 7
    2428:	4c e3       	ldi	r20, 0x3C	; 60
    242a:	e4 2e       	mov	r14, r20
    242c:	02 c0       	rjmp	.+4      	; 0x2432 <vfprintf+0x140>
    242e:	21 2f       	mov	r18, r17
    2430:	e1 2c       	mov	r14, r1
    2432:	52 01       	movw	r10, r4
    2434:	44 e0       	ldi	r20, 0x04	; 4
    2436:	a4 0e       	add	r10, r20
    2438:	b1 1c       	adc	r11, r1
    243a:	f2 01       	movw	r30, r4
    243c:	60 81       	ld	r22, Z
    243e:	71 81       	ldd	r23, Z+1	; 0x01
    2440:	82 81       	ldd	r24, Z+2	; 0x02
    2442:	93 81       	ldd	r25, Z+3	; 0x03
    2444:	0e 2d       	mov	r16, r14
    2446:	a3 01       	movw	r20, r6
    2448:	23 d3       	rcall	.+1606   	; 0x2a90 <__ftoa_engine>
    244a:	2c 01       	movw	r4, r24
    244c:	09 81       	ldd	r16, Y+1	; 0x01
    244e:	00 ff       	sbrs	r16, 0
    2450:	02 c0       	rjmp	.+4      	; 0x2456 <vfprintf+0x164>
    2452:	03 ff       	sbrs	r16, 3
    2454:	07 c0       	rjmp	.+14     	; 0x2464 <vfprintf+0x172>
    2456:	31 fc       	sbrc	r3, 1
    2458:	08 c0       	rjmp	.+16     	; 0x246a <vfprintf+0x178>
    245a:	32 fe       	sbrs	r3, 2
    245c:	09 c0       	rjmp	.+18     	; 0x2470 <vfprintf+0x17e>
    245e:	30 e2       	ldi	r19, 0x20	; 32
    2460:	23 2e       	mov	r2, r19
    2462:	07 c0       	rjmp	.+14     	; 0x2472 <vfprintf+0x180>
    2464:	2d e2       	ldi	r18, 0x2D	; 45
    2466:	22 2e       	mov	r2, r18
    2468:	04 c0       	rjmp	.+8      	; 0x2472 <vfprintf+0x180>
    246a:	9b e2       	ldi	r25, 0x2B	; 43
    246c:	29 2e       	mov	r2, r25
    246e:	01 c0       	rjmp	.+2      	; 0x2472 <vfprintf+0x180>
    2470:	21 2c       	mov	r2, r1
    2472:	80 2f       	mov	r24, r16
    2474:	8c 70       	andi	r24, 0x0C	; 12
    2476:	19 f0       	breq	.+6      	; 0x247e <vfprintf+0x18c>
    2478:	21 10       	cpse	r2, r1
    247a:	51 c2       	rjmp	.+1186   	; 0x291e <vfprintf+0x62c>
    247c:	8d c2       	rjmp	.+1306   	; 0x2998 <vfprintf+0x6a6>
    247e:	37 fe       	sbrs	r3, 7
    2480:	0f c0       	rjmp	.+30     	; 0x24a0 <vfprintf+0x1ae>
    2482:	e4 0c       	add	r14, r4
    2484:	04 ff       	sbrs	r16, 4
    2486:	04 c0       	rjmp	.+8      	; 0x2490 <vfprintf+0x19e>
    2488:	8a 81       	ldd	r24, Y+2	; 0x02
    248a:	81 33       	cpi	r24, 0x31	; 49
    248c:	09 f4       	brne	.+2      	; 0x2490 <vfprintf+0x19e>
    248e:	ea 94       	dec	r14
    2490:	1e 14       	cp	r1, r14
    2492:	74 f5       	brge	.+92     	; 0x24f0 <vfprintf+0x1fe>
    2494:	f8 e0       	ldi	r31, 0x08	; 8
    2496:	fe 15       	cp	r31, r14
    2498:	78 f5       	brcc	.+94     	; 0x24f8 <vfprintf+0x206>
    249a:	88 e0       	ldi	r24, 0x08	; 8
    249c:	e8 2e       	mov	r14, r24
    249e:	2c c0       	rjmp	.+88     	; 0x24f8 <vfprintf+0x206>
    24a0:	36 fc       	sbrc	r3, 6
    24a2:	2a c0       	rjmp	.+84     	; 0x24f8 <vfprintf+0x206>
    24a4:	81 2f       	mov	r24, r17
    24a6:	90 e0       	ldi	r25, 0x00	; 0
    24a8:	84 15       	cp	r24, r4
    24aa:	95 05       	cpc	r25, r5
    24ac:	9c f0       	brlt	.+38     	; 0x24d4 <vfprintf+0x1e2>
    24ae:	2c ef       	ldi	r18, 0xFC	; 252
    24b0:	42 16       	cp	r4, r18
    24b2:	2f ef       	ldi	r18, 0xFF	; 255
    24b4:	52 06       	cpc	r5, r18
    24b6:	74 f0       	brlt	.+28     	; 0x24d4 <vfprintf+0x1e2>
    24b8:	43 2d       	mov	r20, r3
    24ba:	40 68       	ori	r20, 0x80	; 128
    24bc:	34 2e       	mov	r3, r20
    24be:	0a c0       	rjmp	.+20     	; 0x24d4 <vfprintf+0x1e2>
    24c0:	e2 e0       	ldi	r30, 0x02	; 2
    24c2:	f0 e0       	ldi	r31, 0x00	; 0
    24c4:	ec 0f       	add	r30, r28
    24c6:	fd 1f       	adc	r31, r29
    24c8:	e1 0f       	add	r30, r17
    24ca:	f1 1d       	adc	r31, r1
    24cc:	80 81       	ld	r24, Z
    24ce:	80 33       	cpi	r24, 0x30	; 48
    24d0:	19 f4       	brne	.+6      	; 0x24d8 <vfprintf+0x1e6>
    24d2:	11 50       	subi	r17, 0x01	; 1
    24d4:	11 11       	cpse	r17, r1
    24d6:	f4 cf       	rjmp	.-24     	; 0x24c0 <vfprintf+0x1ce>
    24d8:	37 fe       	sbrs	r3, 7
    24da:	0e c0       	rjmp	.+28     	; 0x24f8 <vfprintf+0x206>
    24dc:	ee 24       	eor	r14, r14
    24de:	e3 94       	inc	r14
    24e0:	e1 0e       	add	r14, r17
    24e2:	81 2f       	mov	r24, r17
    24e4:	90 e0       	ldi	r25, 0x00	; 0
    24e6:	48 16       	cp	r4, r24
    24e8:	59 06       	cpc	r5, r25
    24ea:	2c f4       	brge	.+10     	; 0x24f6 <vfprintf+0x204>
    24ec:	14 19       	sub	r17, r4
    24ee:	04 c0       	rjmp	.+8      	; 0x24f8 <vfprintf+0x206>
    24f0:	ee 24       	eor	r14, r14
    24f2:	e3 94       	inc	r14
    24f4:	01 c0       	rjmp	.+2      	; 0x24f8 <vfprintf+0x206>
    24f6:	10 e0       	ldi	r17, 0x00	; 0
    24f8:	37 fe       	sbrs	r3, 7
    24fa:	06 c0       	rjmp	.+12     	; 0x2508 <vfprintf+0x216>
    24fc:	14 14       	cp	r1, r4
    24fe:	15 04       	cpc	r1, r5
    2500:	34 f4       	brge	.+12     	; 0x250e <vfprintf+0x21c>
    2502:	c2 01       	movw	r24, r4
    2504:	01 96       	adiw	r24, 0x01	; 1
    2506:	05 c0       	rjmp	.+10     	; 0x2512 <vfprintf+0x220>
    2508:	85 e0       	ldi	r24, 0x05	; 5
    250a:	90 e0       	ldi	r25, 0x00	; 0
    250c:	02 c0       	rjmp	.+4      	; 0x2512 <vfprintf+0x220>
    250e:	81 e0       	ldi	r24, 0x01	; 1
    2510:	90 e0       	ldi	r25, 0x00	; 0
    2512:	21 10       	cpse	r2, r1
    2514:	01 96       	adiw	r24, 0x01	; 1
    2516:	11 23       	and	r17, r17
    2518:	31 f0       	breq	.+12     	; 0x2526 <vfprintf+0x234>
    251a:	21 2f       	mov	r18, r17
    251c:	30 e0       	ldi	r19, 0x00	; 0
    251e:	2f 5f       	subi	r18, 0xFF	; 255
    2520:	3f 4f       	sbci	r19, 0xFF	; 255
    2522:	82 0f       	add	r24, r18
    2524:	93 1f       	adc	r25, r19
    2526:	2f 2d       	mov	r18, r15
    2528:	30 e0       	ldi	r19, 0x00	; 0
    252a:	82 17       	cp	r24, r18
    252c:	93 07       	cpc	r25, r19
    252e:	14 f4       	brge	.+4      	; 0x2534 <vfprintf+0x242>
    2530:	f8 1a       	sub	r15, r24
    2532:	01 c0       	rjmp	.+2      	; 0x2536 <vfprintf+0x244>
    2534:	f1 2c       	mov	r15, r1
    2536:	83 2d       	mov	r24, r3
    2538:	89 70       	andi	r24, 0x09	; 9
    253a:	41 f4       	brne	.+16     	; 0x254c <vfprintf+0x25a>
    253c:	ff 20       	and	r15, r15
    253e:	31 f0       	breq	.+12     	; 0x254c <vfprintf+0x25a>
    2540:	b6 01       	movw	r22, r12
    2542:	80 e2       	ldi	r24, 0x20	; 32
    2544:	90 e0       	ldi	r25, 0x00	; 0
    2546:	92 d3       	rcall	.+1828   	; 0x2c6c <fputc>
    2548:	fa 94       	dec	r15
    254a:	f8 cf       	rjmp	.-16     	; 0x253c <vfprintf+0x24a>
    254c:	22 20       	and	r2, r2
    254e:	21 f0       	breq	.+8      	; 0x2558 <vfprintf+0x266>
    2550:	b6 01       	movw	r22, r12
    2552:	82 2d       	mov	r24, r2
    2554:	90 e0       	ldi	r25, 0x00	; 0
    2556:	8a d3       	rcall	.+1812   	; 0x2c6c <fputc>
    2558:	33 fc       	sbrc	r3, 3
    255a:	08 c0       	rjmp	.+16     	; 0x256c <vfprintf+0x27a>
    255c:	ff 20       	and	r15, r15
    255e:	31 f0       	breq	.+12     	; 0x256c <vfprintf+0x27a>
    2560:	b6 01       	movw	r22, r12
    2562:	80 e3       	ldi	r24, 0x30	; 48
    2564:	90 e0       	ldi	r25, 0x00	; 0
    2566:	82 d3       	rcall	.+1796   	; 0x2c6c <fputc>
    2568:	fa 94       	dec	r15
    256a:	f8 cf       	rjmp	.-16     	; 0x255c <vfprintf+0x26a>
    256c:	37 fe       	sbrs	r3, 7
    256e:	58 c0       	rjmp	.+176    	; 0x2620 <vfprintf+0x32e>
    2570:	94 2d       	mov	r25, r4
    2572:	85 2d       	mov	r24, r5
    2574:	57 fe       	sbrs	r5, 7
    2576:	02 c0       	rjmp	.+4      	; 0x257c <vfprintf+0x28a>
    2578:	90 e0       	ldi	r25, 0x00	; 0
    257a:	80 e0       	ldi	r24, 0x00	; 0
    257c:	29 2e       	mov	r2, r25
    257e:	38 2e       	mov	r3, r24
    2580:	20 e0       	ldi	r18, 0x00	; 0
    2582:	30 e0       	ldi	r19, 0x00	; 0
    2584:	a2 01       	movw	r20, r4
    2586:	4e 19       	sub	r20, r14
    2588:	51 09       	sbc	r21, r1
    258a:	5d 87       	std	Y+13, r21	; 0x0d
    258c:	4c 87       	std	Y+12, r20	; 0x0c
    258e:	a2 01       	movw	r20, r4
    2590:	42 19       	sub	r20, r2
    2592:	53 09       	sbc	r21, r3
    2594:	5f 87       	std	Y+15, r21	; 0x0f
    2596:	4e 87       	std	Y+14, r20	; 0x0e
    2598:	61 2f       	mov	r22, r17
    259a:	70 e0       	ldi	r23, 0x00	; 0
    259c:	44 27       	eor	r20, r20
    259e:	55 27       	eor	r21, r21
    25a0:	46 1b       	sub	r20, r22
    25a2:	57 0b       	sbc	r21, r23
    25a4:	59 8b       	std	Y+17, r21	; 0x11
    25a6:	48 8b       	std	Y+16, r20	; 0x10
    25a8:	5f ef       	ldi	r21, 0xFF	; 255
    25aa:	25 16       	cp	r2, r21
    25ac:	35 06       	cpc	r3, r21
    25ae:	41 f4       	brne	.+16     	; 0x25c0 <vfprintf+0x2ce>
    25b0:	b6 01       	movw	r22, r12
    25b2:	8e e2       	ldi	r24, 0x2E	; 46
    25b4:	90 e0       	ldi	r25, 0x00	; 0
    25b6:	2a 8b       	std	Y+18, r18	; 0x12
    25b8:	3b 8b       	std	Y+19, r19	; 0x13
    25ba:	58 d3       	rcall	.+1712   	; 0x2c6c <fputc>
    25bc:	3b 89       	ldd	r19, Y+19	; 0x13
    25be:	2a 89       	ldd	r18, Y+18	; 0x12
    25c0:	42 14       	cp	r4, r2
    25c2:	53 04       	cpc	r5, r3
    25c4:	6c f0       	brlt	.+26     	; 0x25e0 <vfprintf+0x2ee>
    25c6:	4c 85       	ldd	r20, Y+12	; 0x0c
    25c8:	5d 85       	ldd	r21, Y+13	; 0x0d
    25ca:	42 15       	cp	r20, r2
    25cc:	53 05       	cpc	r21, r3
    25ce:	44 f4       	brge	.+16     	; 0x25e0 <vfprintf+0x2ee>
    25d0:	ee 85       	ldd	r30, Y+14	; 0x0e
    25d2:	ff 85       	ldd	r31, Y+15	; 0x0f
    25d4:	e2 0f       	add	r30, r18
    25d6:	f3 1f       	adc	r31, r19
    25d8:	e6 0d       	add	r30, r6
    25da:	f7 1d       	adc	r31, r7
    25dc:	81 81       	ldd	r24, Z+1	; 0x01
    25de:	01 c0       	rjmp	.+2      	; 0x25e2 <vfprintf+0x2f0>
    25e0:	80 e3       	ldi	r24, 0x30	; 48
    25e2:	51 e0       	ldi	r21, 0x01	; 1
    25e4:	25 1a       	sub	r2, r21
    25e6:	31 08       	sbc	r3, r1
    25e8:	2f 5f       	subi	r18, 0xFF	; 255
    25ea:	3f 4f       	sbci	r19, 0xFF	; 255
    25ec:	48 89       	ldd	r20, Y+16	; 0x10
    25ee:	59 89       	ldd	r21, Y+17	; 0x11
    25f0:	24 16       	cp	r2, r20
    25f2:	35 06       	cpc	r3, r21
    25f4:	44 f0       	brlt	.+16     	; 0x2606 <vfprintf+0x314>
    25f6:	b6 01       	movw	r22, r12
    25f8:	90 e0       	ldi	r25, 0x00	; 0
    25fa:	2a 8b       	std	Y+18, r18	; 0x12
    25fc:	3b 8b       	std	Y+19, r19	; 0x13
    25fe:	36 d3       	rcall	.+1644   	; 0x2c6c <fputc>
    2600:	2a 89       	ldd	r18, Y+18	; 0x12
    2602:	3b 89       	ldd	r19, Y+19	; 0x13
    2604:	d1 cf       	rjmp	.-94     	; 0x25a8 <vfprintf+0x2b6>
    2606:	24 14       	cp	r2, r4
    2608:	35 04       	cpc	r3, r5
    260a:	39 f4       	brne	.+14     	; 0x261a <vfprintf+0x328>
    260c:	9a 81       	ldd	r25, Y+2	; 0x02
    260e:	96 33       	cpi	r25, 0x36	; 54
    2610:	18 f4       	brcc	.+6      	; 0x2618 <vfprintf+0x326>
    2612:	95 33       	cpi	r25, 0x35	; 53
    2614:	11 f4       	brne	.+4      	; 0x261a <vfprintf+0x328>
    2616:	04 ff       	sbrs	r16, 4
    2618:	81 e3       	ldi	r24, 0x31	; 49
    261a:	b6 01       	movw	r22, r12
    261c:	90 e0       	ldi	r25, 0x00	; 0
    261e:	45 c0       	rjmp	.+138    	; 0x26aa <vfprintf+0x3b8>
    2620:	8a 81       	ldd	r24, Y+2	; 0x02
    2622:	81 33       	cpi	r24, 0x31	; 49
    2624:	09 f0       	breq	.+2      	; 0x2628 <vfprintf+0x336>
    2626:	0f 7e       	andi	r16, 0xEF	; 239
    2628:	b6 01       	movw	r22, r12
    262a:	90 e0       	ldi	r25, 0x00	; 0
    262c:	1f d3       	rcall	.+1598   	; 0x2c6c <fputc>
    262e:	11 11       	cpse	r17, r1
    2630:	05 c0       	rjmp	.+10     	; 0x263c <vfprintf+0x34a>
    2632:	34 fc       	sbrc	r3, 4
    2634:	16 c0       	rjmp	.+44     	; 0x2662 <vfprintf+0x370>
    2636:	85 e6       	ldi	r24, 0x65	; 101
    2638:	90 e0       	ldi	r25, 0x00	; 0
    263a:	15 c0       	rjmp	.+42     	; 0x2666 <vfprintf+0x374>
    263c:	b6 01       	movw	r22, r12
    263e:	8e e2       	ldi	r24, 0x2E	; 46
    2640:	90 e0       	ldi	r25, 0x00	; 0
    2642:	14 d3       	rcall	.+1576   	; 0x2c6c <fputc>
    2644:	82 e0       	ldi	r24, 0x02	; 2
    2646:	ee 24       	eor	r14, r14
    2648:	e3 94       	inc	r14
    264a:	e8 0e       	add	r14, r24
    264c:	f3 01       	movw	r30, r6
    264e:	e8 0f       	add	r30, r24
    2650:	f1 1d       	adc	r31, r1
    2652:	80 81       	ld	r24, Z
    2654:	b6 01       	movw	r22, r12
    2656:	90 e0       	ldi	r25, 0x00	; 0
    2658:	09 d3       	rcall	.+1554   	; 0x2c6c <fputc>
    265a:	11 50       	subi	r17, 0x01	; 1
    265c:	8e 2d       	mov	r24, r14
    265e:	99 f7       	brne	.-26     	; 0x2646 <vfprintf+0x354>
    2660:	e8 cf       	rjmp	.-48     	; 0x2632 <vfprintf+0x340>
    2662:	85 e4       	ldi	r24, 0x45	; 69
    2664:	90 e0       	ldi	r25, 0x00	; 0
    2666:	b6 01       	movw	r22, r12
    2668:	01 d3       	rcall	.+1538   	; 0x2c6c <fputc>
    266a:	57 fc       	sbrc	r5, 7
    266c:	05 c0       	rjmp	.+10     	; 0x2678 <vfprintf+0x386>
    266e:	41 14       	cp	r4, r1
    2670:	51 04       	cpc	r5, r1
    2672:	39 f4       	brne	.+14     	; 0x2682 <vfprintf+0x390>
    2674:	04 ff       	sbrs	r16, 4
    2676:	05 c0       	rjmp	.+10     	; 0x2682 <vfprintf+0x390>
    2678:	51 94       	neg	r5
    267a:	41 94       	neg	r4
    267c:	51 08       	sbc	r5, r1
    267e:	8d e2       	ldi	r24, 0x2D	; 45
    2680:	01 c0       	rjmp	.+2      	; 0x2684 <vfprintf+0x392>
    2682:	8b e2       	ldi	r24, 0x2B	; 43
    2684:	b6 01       	movw	r22, r12
    2686:	90 e0       	ldi	r25, 0x00	; 0
    2688:	f1 d2       	rcall	.+1506   	; 0x2c6c <fputc>
    268a:	80 e3       	ldi	r24, 0x30	; 48
    268c:	9a e0       	ldi	r25, 0x0A	; 10
    268e:	49 16       	cp	r4, r25
    2690:	51 04       	cpc	r5, r1
    2692:	2c f0       	brlt	.+10     	; 0x269e <vfprintf+0x3ac>
    2694:	8f 5f       	subi	r24, 0xFF	; 255
    2696:	5a e0       	ldi	r21, 0x0A	; 10
    2698:	45 1a       	sub	r4, r21
    269a:	51 08       	sbc	r5, r1
    269c:	f7 cf       	rjmp	.-18     	; 0x268c <vfprintf+0x39a>
    269e:	b6 01       	movw	r22, r12
    26a0:	90 e0       	ldi	r25, 0x00	; 0
    26a2:	e4 d2       	rcall	.+1480   	; 0x2c6c <fputc>
    26a4:	b6 01       	movw	r22, r12
    26a6:	c2 01       	movw	r24, r4
    26a8:	c0 96       	adiw	r24, 0x30	; 48
    26aa:	e0 d2       	rcall	.+1472   	; 0x2c6c <fputc>
    26ac:	4c c1       	rjmp	.+664    	; 0x2946 <vfprintf+0x654>
    26ae:	83 36       	cpi	r24, 0x63	; 99
    26b0:	31 f0       	breq	.+12     	; 0x26be <vfprintf+0x3cc>
    26b2:	83 37       	cpi	r24, 0x73	; 115
    26b4:	79 f0       	breq	.+30     	; 0x26d4 <vfprintf+0x3e2>
    26b6:	83 35       	cpi	r24, 0x53	; 83
    26b8:	09 f0       	breq	.+2      	; 0x26bc <vfprintf+0x3ca>
    26ba:	54 c0       	rjmp	.+168    	; 0x2764 <vfprintf+0x472>
    26bc:	20 c0       	rjmp	.+64     	; 0x26fe <vfprintf+0x40c>
    26be:	52 01       	movw	r10, r4
    26c0:	e2 e0       	ldi	r30, 0x02	; 2
    26c2:	ae 0e       	add	r10, r30
    26c4:	b1 1c       	adc	r11, r1
    26c6:	f2 01       	movw	r30, r4
    26c8:	80 81       	ld	r24, Z
    26ca:	89 83       	std	Y+1, r24	; 0x01
    26cc:	01 e0       	ldi	r16, 0x01	; 1
    26ce:	10 e0       	ldi	r17, 0x00	; 0
    26d0:	23 01       	movw	r4, r6
    26d2:	13 c0       	rjmp	.+38     	; 0x26fa <vfprintf+0x408>
    26d4:	52 01       	movw	r10, r4
    26d6:	f2 e0       	ldi	r31, 0x02	; 2
    26d8:	af 0e       	add	r10, r31
    26da:	b1 1c       	adc	r11, r1
    26dc:	f2 01       	movw	r30, r4
    26de:	40 80       	ld	r4, Z
    26e0:	51 80       	ldd	r5, Z+1	; 0x01
    26e2:	26 ff       	sbrs	r18, 6
    26e4:	03 c0       	rjmp	.+6      	; 0x26ec <vfprintf+0x3fa>
    26e6:	61 2f       	mov	r22, r17
    26e8:	70 e0       	ldi	r23, 0x00	; 0
    26ea:	02 c0       	rjmp	.+4      	; 0x26f0 <vfprintf+0x3fe>
    26ec:	6f ef       	ldi	r22, 0xFF	; 255
    26ee:	7f ef       	ldi	r23, 0xFF	; 255
    26f0:	c2 01       	movw	r24, r4
    26f2:	2a 8b       	std	Y+18, r18	; 0x12
    26f4:	b0 d2       	rcall	.+1376   	; 0x2c56 <strnlen>
    26f6:	8c 01       	movw	r16, r24
    26f8:	2a 89       	ldd	r18, Y+18	; 0x12
    26fa:	2f 77       	andi	r18, 0x7F	; 127
    26fc:	14 c0       	rjmp	.+40     	; 0x2726 <vfprintf+0x434>
    26fe:	52 01       	movw	r10, r4
    2700:	f2 e0       	ldi	r31, 0x02	; 2
    2702:	af 0e       	add	r10, r31
    2704:	b1 1c       	adc	r11, r1
    2706:	f2 01       	movw	r30, r4
    2708:	40 80       	ld	r4, Z
    270a:	51 80       	ldd	r5, Z+1	; 0x01
    270c:	26 ff       	sbrs	r18, 6
    270e:	03 c0       	rjmp	.+6      	; 0x2716 <vfprintf+0x424>
    2710:	61 2f       	mov	r22, r17
    2712:	70 e0       	ldi	r23, 0x00	; 0
    2714:	02 c0       	rjmp	.+4      	; 0x271a <vfprintf+0x428>
    2716:	6f ef       	ldi	r22, 0xFF	; 255
    2718:	7f ef       	ldi	r23, 0xFF	; 255
    271a:	c2 01       	movw	r24, r4
    271c:	2a 8b       	std	Y+18, r18	; 0x12
    271e:	90 d2       	rcall	.+1312   	; 0x2c40 <strnlen_P>
    2720:	8c 01       	movw	r16, r24
    2722:	2a 89       	ldd	r18, Y+18	; 0x12
    2724:	20 68       	ori	r18, 0x80	; 128
    2726:	32 2e       	mov	r3, r18
    2728:	23 fd       	sbrc	r18, 3
    272a:	18 c0       	rjmp	.+48     	; 0x275c <vfprintf+0x46a>
    272c:	8f 2d       	mov	r24, r15
    272e:	90 e0       	ldi	r25, 0x00	; 0
    2730:	08 17       	cp	r16, r24
    2732:	19 07       	cpc	r17, r25
    2734:	98 f4       	brcc	.+38     	; 0x275c <vfprintf+0x46a>
    2736:	b6 01       	movw	r22, r12
    2738:	80 e2       	ldi	r24, 0x20	; 32
    273a:	90 e0       	ldi	r25, 0x00	; 0
    273c:	97 d2       	rcall	.+1326   	; 0x2c6c <fputc>
    273e:	fa 94       	dec	r15
    2740:	f5 cf       	rjmp	.-22     	; 0x272c <vfprintf+0x43a>
    2742:	f2 01       	movw	r30, r4
    2744:	37 fc       	sbrc	r3, 7
    2746:	85 91       	lpm	r24, Z+
    2748:	37 fe       	sbrs	r3, 7
    274a:	81 91       	ld	r24, Z+
    274c:	2f 01       	movw	r4, r30
    274e:	b6 01       	movw	r22, r12
    2750:	90 e0       	ldi	r25, 0x00	; 0
    2752:	8c d2       	rcall	.+1304   	; 0x2c6c <fputc>
    2754:	f1 10       	cpse	r15, r1
    2756:	fa 94       	dec	r15
    2758:	01 50       	subi	r16, 0x01	; 1
    275a:	11 09       	sbc	r17, r1
    275c:	01 15       	cp	r16, r1
    275e:	11 05       	cpc	r17, r1
    2760:	81 f7       	brne	.-32     	; 0x2742 <vfprintf+0x450>
    2762:	f1 c0       	rjmp	.+482    	; 0x2946 <vfprintf+0x654>
    2764:	84 36       	cpi	r24, 0x64	; 100
    2766:	11 f0       	breq	.+4      	; 0x276c <vfprintf+0x47a>
    2768:	89 36       	cpi	r24, 0x69	; 105
    276a:	51 f5       	brne	.+84     	; 0x27c0 <vfprintf+0x4ce>
    276c:	52 01       	movw	r10, r4
    276e:	27 ff       	sbrs	r18, 7
    2770:	09 c0       	rjmp	.+18     	; 0x2784 <vfprintf+0x492>
    2772:	f4 e0       	ldi	r31, 0x04	; 4
    2774:	af 0e       	add	r10, r31
    2776:	b1 1c       	adc	r11, r1
    2778:	f2 01       	movw	r30, r4
    277a:	60 81       	ld	r22, Z
    277c:	71 81       	ldd	r23, Z+1	; 0x01
    277e:	82 81       	ldd	r24, Z+2	; 0x02
    2780:	93 81       	ldd	r25, Z+3	; 0x03
    2782:	0a c0       	rjmp	.+20     	; 0x2798 <vfprintf+0x4a6>
    2784:	f2 e0       	ldi	r31, 0x02	; 2
    2786:	af 0e       	add	r10, r31
    2788:	b1 1c       	adc	r11, r1
    278a:	f2 01       	movw	r30, r4
    278c:	60 81       	ld	r22, Z
    278e:	71 81       	ldd	r23, Z+1	; 0x01
    2790:	07 2e       	mov	r0, r23
    2792:	00 0c       	add	r0, r0
    2794:	88 0b       	sbc	r24, r24
    2796:	99 0b       	sbc	r25, r25
    2798:	2f 76       	andi	r18, 0x6F	; 111
    279a:	32 2e       	mov	r3, r18
    279c:	97 ff       	sbrs	r25, 7
    279e:	09 c0       	rjmp	.+18     	; 0x27b2 <vfprintf+0x4c0>
    27a0:	90 95       	com	r25
    27a2:	80 95       	com	r24
    27a4:	70 95       	com	r23
    27a6:	61 95       	neg	r22
    27a8:	7f 4f       	sbci	r23, 0xFF	; 255
    27aa:	8f 4f       	sbci	r24, 0xFF	; 255
    27ac:	9f 4f       	sbci	r25, 0xFF	; 255
    27ae:	20 68       	ori	r18, 0x80	; 128
    27b0:	32 2e       	mov	r3, r18
    27b2:	2a e0       	ldi	r18, 0x0A	; 10
    27b4:	30 e0       	ldi	r19, 0x00	; 0
    27b6:	a3 01       	movw	r20, r6
    27b8:	b1 d2       	rcall	.+1378   	; 0x2d1c <__ultoa_invert>
    27ba:	e8 2e       	mov	r14, r24
    27bc:	e6 18       	sub	r14, r6
    27be:	3e c0       	rjmp	.+124    	; 0x283c <vfprintf+0x54a>
    27c0:	02 2f       	mov	r16, r18
    27c2:	85 37       	cpi	r24, 0x75	; 117
    27c4:	21 f4       	brne	.+8      	; 0x27ce <vfprintf+0x4dc>
    27c6:	0f 7e       	andi	r16, 0xEF	; 239
    27c8:	2a e0       	ldi	r18, 0x0A	; 10
    27ca:	30 e0       	ldi	r19, 0x00	; 0
    27cc:	1d c0       	rjmp	.+58     	; 0x2808 <vfprintf+0x516>
    27ce:	09 7f       	andi	r16, 0xF9	; 249
    27d0:	8f 36       	cpi	r24, 0x6F	; 111
    27d2:	91 f0       	breq	.+36     	; 0x27f8 <vfprintf+0x506>
    27d4:	18 f4       	brcc	.+6      	; 0x27dc <vfprintf+0x4ea>
    27d6:	88 35       	cpi	r24, 0x58	; 88
    27d8:	59 f0       	breq	.+22     	; 0x27f0 <vfprintf+0x4fe>
    27da:	be c0       	rjmp	.+380    	; 0x2958 <vfprintf+0x666>
    27dc:	80 37       	cpi	r24, 0x70	; 112
    27de:	19 f0       	breq	.+6      	; 0x27e6 <vfprintf+0x4f4>
    27e0:	88 37       	cpi	r24, 0x78	; 120
    27e2:	11 f0       	breq	.+4      	; 0x27e8 <vfprintf+0x4f6>
    27e4:	b9 c0       	rjmp	.+370    	; 0x2958 <vfprintf+0x666>
    27e6:	00 61       	ori	r16, 0x10	; 16
    27e8:	04 ff       	sbrs	r16, 4
    27ea:	09 c0       	rjmp	.+18     	; 0x27fe <vfprintf+0x50c>
    27ec:	04 60       	ori	r16, 0x04	; 4
    27ee:	07 c0       	rjmp	.+14     	; 0x27fe <vfprintf+0x50c>
    27f0:	24 ff       	sbrs	r18, 4
    27f2:	08 c0       	rjmp	.+16     	; 0x2804 <vfprintf+0x512>
    27f4:	06 60       	ori	r16, 0x06	; 6
    27f6:	06 c0       	rjmp	.+12     	; 0x2804 <vfprintf+0x512>
    27f8:	28 e0       	ldi	r18, 0x08	; 8
    27fa:	30 e0       	ldi	r19, 0x00	; 0
    27fc:	05 c0       	rjmp	.+10     	; 0x2808 <vfprintf+0x516>
    27fe:	20 e1       	ldi	r18, 0x10	; 16
    2800:	30 e0       	ldi	r19, 0x00	; 0
    2802:	02 c0       	rjmp	.+4      	; 0x2808 <vfprintf+0x516>
    2804:	20 e1       	ldi	r18, 0x10	; 16
    2806:	32 e0       	ldi	r19, 0x02	; 2
    2808:	52 01       	movw	r10, r4
    280a:	07 ff       	sbrs	r16, 7
    280c:	09 c0       	rjmp	.+18     	; 0x2820 <vfprintf+0x52e>
    280e:	f4 e0       	ldi	r31, 0x04	; 4
    2810:	af 0e       	add	r10, r31
    2812:	b1 1c       	adc	r11, r1
    2814:	f2 01       	movw	r30, r4
    2816:	60 81       	ld	r22, Z
    2818:	71 81       	ldd	r23, Z+1	; 0x01
    281a:	82 81       	ldd	r24, Z+2	; 0x02
    281c:	93 81       	ldd	r25, Z+3	; 0x03
    281e:	08 c0       	rjmp	.+16     	; 0x2830 <vfprintf+0x53e>
    2820:	f2 e0       	ldi	r31, 0x02	; 2
    2822:	af 0e       	add	r10, r31
    2824:	b1 1c       	adc	r11, r1
    2826:	f2 01       	movw	r30, r4
    2828:	60 81       	ld	r22, Z
    282a:	71 81       	ldd	r23, Z+1	; 0x01
    282c:	80 e0       	ldi	r24, 0x00	; 0
    282e:	90 e0       	ldi	r25, 0x00	; 0
    2830:	a3 01       	movw	r20, r6
    2832:	74 d2       	rcall	.+1256   	; 0x2d1c <__ultoa_invert>
    2834:	e8 2e       	mov	r14, r24
    2836:	e6 18       	sub	r14, r6
    2838:	0f 77       	andi	r16, 0x7F	; 127
    283a:	30 2e       	mov	r3, r16
    283c:	36 fe       	sbrs	r3, 6
    283e:	0b c0       	rjmp	.+22     	; 0x2856 <vfprintf+0x564>
    2840:	33 2d       	mov	r19, r3
    2842:	3e 7f       	andi	r19, 0xFE	; 254
    2844:	e1 16       	cp	r14, r17
    2846:	50 f4       	brcc	.+20     	; 0x285c <vfprintf+0x56a>
    2848:	34 fe       	sbrs	r3, 4
    284a:	0a c0       	rjmp	.+20     	; 0x2860 <vfprintf+0x56e>
    284c:	32 fc       	sbrc	r3, 2
    284e:	08 c0       	rjmp	.+16     	; 0x2860 <vfprintf+0x56e>
    2850:	33 2d       	mov	r19, r3
    2852:	3e 7e       	andi	r19, 0xEE	; 238
    2854:	05 c0       	rjmp	.+10     	; 0x2860 <vfprintf+0x56e>
    2856:	0e 2d       	mov	r16, r14
    2858:	33 2d       	mov	r19, r3
    285a:	03 c0       	rjmp	.+6      	; 0x2862 <vfprintf+0x570>
    285c:	0e 2d       	mov	r16, r14
    285e:	01 c0       	rjmp	.+2      	; 0x2862 <vfprintf+0x570>
    2860:	01 2f       	mov	r16, r17
    2862:	34 ff       	sbrs	r19, 4
    2864:	0c c0       	rjmp	.+24     	; 0x287e <vfprintf+0x58c>
    2866:	fe 01       	movw	r30, r28
    2868:	ee 0d       	add	r30, r14
    286a:	f1 1d       	adc	r31, r1
    286c:	80 81       	ld	r24, Z
    286e:	80 33       	cpi	r24, 0x30	; 48
    2870:	11 f4       	brne	.+4      	; 0x2876 <vfprintf+0x584>
    2872:	39 7e       	andi	r19, 0xE9	; 233
    2874:	08 c0       	rjmp	.+16     	; 0x2886 <vfprintf+0x594>
    2876:	32 ff       	sbrs	r19, 2
    2878:	05 c0       	rjmp	.+10     	; 0x2884 <vfprintf+0x592>
    287a:	0e 5f       	subi	r16, 0xFE	; 254
    287c:	04 c0       	rjmp	.+8      	; 0x2886 <vfprintf+0x594>
    287e:	83 2f       	mov	r24, r19
    2880:	86 78       	andi	r24, 0x86	; 134
    2882:	09 f0       	breq	.+2      	; 0x2886 <vfprintf+0x594>
    2884:	0f 5f       	subi	r16, 0xFF	; 255
    2886:	33 fd       	sbrc	r19, 3
    2888:	12 c0       	rjmp	.+36     	; 0x28ae <vfprintf+0x5bc>
    288a:	30 ff       	sbrs	r19, 0
    288c:	06 c0       	rjmp	.+12     	; 0x289a <vfprintf+0x5a8>
    288e:	1e 2d       	mov	r17, r14
    2890:	0f 15       	cp	r16, r15
    2892:	18 f4       	brcc	.+6      	; 0x289a <vfprintf+0x5a8>
    2894:	1f 0d       	add	r17, r15
    2896:	10 1b       	sub	r17, r16
    2898:	0f 2d       	mov	r16, r15
    289a:	0f 15       	cp	r16, r15
    289c:	60 f4       	brcc	.+24     	; 0x28b6 <vfprintf+0x5c4>
    289e:	b6 01       	movw	r22, r12
    28a0:	80 e2       	ldi	r24, 0x20	; 32
    28a2:	90 e0       	ldi	r25, 0x00	; 0
    28a4:	3b 8b       	std	Y+19, r19	; 0x13
    28a6:	e2 d1       	rcall	.+964    	; 0x2c6c <fputc>
    28a8:	0f 5f       	subi	r16, 0xFF	; 255
    28aa:	3b 89       	ldd	r19, Y+19	; 0x13
    28ac:	f6 cf       	rjmp	.-20     	; 0x289a <vfprintf+0x5a8>
    28ae:	0f 15       	cp	r16, r15
    28b0:	10 f4       	brcc	.+4      	; 0x28b6 <vfprintf+0x5c4>
    28b2:	f0 1a       	sub	r15, r16
    28b4:	01 c0       	rjmp	.+2      	; 0x28b8 <vfprintf+0x5c6>
    28b6:	f1 2c       	mov	r15, r1
    28b8:	34 ff       	sbrs	r19, 4
    28ba:	11 c0       	rjmp	.+34     	; 0x28de <vfprintf+0x5ec>
    28bc:	b6 01       	movw	r22, r12
    28be:	80 e3       	ldi	r24, 0x30	; 48
    28c0:	90 e0       	ldi	r25, 0x00	; 0
    28c2:	3b 8b       	std	Y+19, r19	; 0x13
    28c4:	d3 d1       	rcall	.+934    	; 0x2c6c <fputc>
    28c6:	3b 89       	ldd	r19, Y+19	; 0x13
    28c8:	32 ff       	sbrs	r19, 2
    28ca:	16 c0       	rjmp	.+44     	; 0x28f8 <vfprintf+0x606>
    28cc:	31 fd       	sbrc	r19, 1
    28ce:	03 c0       	rjmp	.+6      	; 0x28d6 <vfprintf+0x5e4>
    28d0:	88 e7       	ldi	r24, 0x78	; 120
    28d2:	90 e0       	ldi	r25, 0x00	; 0
    28d4:	02 c0       	rjmp	.+4      	; 0x28da <vfprintf+0x5e8>
    28d6:	88 e5       	ldi	r24, 0x58	; 88
    28d8:	90 e0       	ldi	r25, 0x00	; 0
    28da:	b6 01       	movw	r22, r12
    28dc:	0c c0       	rjmp	.+24     	; 0x28f6 <vfprintf+0x604>
    28de:	83 2f       	mov	r24, r19
    28e0:	86 78       	andi	r24, 0x86	; 134
    28e2:	51 f0       	breq	.+20     	; 0x28f8 <vfprintf+0x606>
    28e4:	31 ff       	sbrs	r19, 1
    28e6:	02 c0       	rjmp	.+4      	; 0x28ec <vfprintf+0x5fa>
    28e8:	8b e2       	ldi	r24, 0x2B	; 43
    28ea:	01 c0       	rjmp	.+2      	; 0x28ee <vfprintf+0x5fc>
    28ec:	80 e2       	ldi	r24, 0x20	; 32
    28ee:	37 fd       	sbrc	r19, 7
    28f0:	8d e2       	ldi	r24, 0x2D	; 45
    28f2:	b6 01       	movw	r22, r12
    28f4:	90 e0       	ldi	r25, 0x00	; 0
    28f6:	ba d1       	rcall	.+884    	; 0x2c6c <fputc>
    28f8:	e1 16       	cp	r14, r17
    28fa:	30 f4       	brcc	.+12     	; 0x2908 <vfprintf+0x616>
    28fc:	b6 01       	movw	r22, r12
    28fe:	80 e3       	ldi	r24, 0x30	; 48
    2900:	90 e0       	ldi	r25, 0x00	; 0
    2902:	b4 d1       	rcall	.+872    	; 0x2c6c <fputc>
    2904:	11 50       	subi	r17, 0x01	; 1
    2906:	f8 cf       	rjmp	.-16     	; 0x28f8 <vfprintf+0x606>
    2908:	ea 94       	dec	r14
    290a:	f3 01       	movw	r30, r6
    290c:	ee 0d       	add	r30, r14
    290e:	f1 1d       	adc	r31, r1
    2910:	80 81       	ld	r24, Z
    2912:	b6 01       	movw	r22, r12
    2914:	90 e0       	ldi	r25, 0x00	; 0
    2916:	aa d1       	rcall	.+852    	; 0x2c6c <fputc>
    2918:	e1 10       	cpse	r14, r1
    291a:	f6 cf       	rjmp	.-20     	; 0x2908 <vfprintf+0x616>
    291c:	14 c0       	rjmp	.+40     	; 0x2946 <vfprintf+0x654>
    291e:	f4 e0       	ldi	r31, 0x04	; 4
    2920:	ff 15       	cp	r31, r15
    2922:	48 f5       	brcc	.+82     	; 0x2976 <vfprintf+0x684>
    2924:	84 e0       	ldi	r24, 0x04	; 4
    2926:	f8 1a       	sub	r15, r24
    2928:	33 fe       	sbrs	r3, 3
    292a:	1d c0       	rjmp	.+58     	; 0x2966 <vfprintf+0x674>
    292c:	21 10       	cpse	r2, r1
    292e:	24 c0       	rjmp	.+72     	; 0x2978 <vfprintf+0x686>
    2930:	03 ff       	sbrs	r16, 3
    2932:	27 c0       	rjmp	.+78     	; 0x2982 <vfprintf+0x690>
    2934:	08 e3       	ldi	r16, 0x38	; 56
    2936:	11 e0       	ldi	r17, 0x01	; 1
    2938:	f3 2d       	mov	r31, r3
    293a:	f0 71       	andi	r31, 0x10	; 16
    293c:	3f 2e       	mov	r3, r31
    293e:	f8 01       	movw	r30, r16
    2940:	84 91       	lpm	r24, Z
    2942:	81 11       	cpse	r24, r1
    2944:	21 c0       	rjmp	.+66     	; 0x2988 <vfprintf+0x696>
    2946:	ff 20       	and	r15, r15
    2948:	09 f4       	brne	.+2      	; 0x294c <vfprintf+0x65a>
    294a:	fd cc       	rjmp	.-1542   	; 0x2346 <vfprintf+0x54>
    294c:	b6 01       	movw	r22, r12
    294e:	80 e2       	ldi	r24, 0x20	; 32
    2950:	90 e0       	ldi	r25, 0x00	; 0
    2952:	8c d1       	rcall	.+792    	; 0x2c6c <fputc>
    2954:	fa 94       	dec	r15
    2956:	f7 cf       	rjmp	.-18     	; 0x2946 <vfprintf+0x654>
    2958:	f6 01       	movw	r30, r12
    295a:	86 81       	ldd	r24, Z+6	; 0x06
    295c:	97 81       	ldd	r25, Z+7	; 0x07
    295e:	23 c0       	rjmp	.+70     	; 0x29a6 <vfprintf+0x6b4>
    2960:	8f ef       	ldi	r24, 0xFF	; 255
    2962:	9f ef       	ldi	r25, 0xFF	; 255
    2964:	20 c0       	rjmp	.+64     	; 0x29a6 <vfprintf+0x6b4>
    2966:	b6 01       	movw	r22, r12
    2968:	80 e2       	ldi	r24, 0x20	; 32
    296a:	90 e0       	ldi	r25, 0x00	; 0
    296c:	7f d1       	rcall	.+766    	; 0x2c6c <fputc>
    296e:	fa 94       	dec	r15
    2970:	f1 10       	cpse	r15, r1
    2972:	f9 cf       	rjmp	.-14     	; 0x2966 <vfprintf+0x674>
    2974:	db cf       	rjmp	.-74     	; 0x292c <vfprintf+0x63a>
    2976:	f1 2c       	mov	r15, r1
    2978:	b6 01       	movw	r22, r12
    297a:	82 2d       	mov	r24, r2
    297c:	90 e0       	ldi	r25, 0x00	; 0
    297e:	76 d1       	rcall	.+748    	; 0x2c6c <fputc>
    2980:	d7 cf       	rjmp	.-82     	; 0x2930 <vfprintf+0x63e>
    2982:	0c e3       	ldi	r16, 0x3C	; 60
    2984:	11 e0       	ldi	r17, 0x01	; 1
    2986:	d8 cf       	rjmp	.-80     	; 0x2938 <vfprintf+0x646>
    2988:	31 10       	cpse	r3, r1
    298a:	80 52       	subi	r24, 0x20	; 32
    298c:	b6 01       	movw	r22, r12
    298e:	90 e0       	ldi	r25, 0x00	; 0
    2990:	6d d1       	rcall	.+730    	; 0x2c6c <fputc>
    2992:	0f 5f       	subi	r16, 0xFF	; 255
    2994:	1f 4f       	sbci	r17, 0xFF	; 255
    2996:	d3 cf       	rjmp	.-90     	; 0x293e <vfprintf+0x64c>
    2998:	23 e0       	ldi	r18, 0x03	; 3
    299a:	2f 15       	cp	r18, r15
    299c:	10 f4       	brcc	.+4      	; 0x29a2 <vfprintf+0x6b0>
    299e:	83 e0       	ldi	r24, 0x03	; 3
    29a0:	c2 cf       	rjmp	.-124    	; 0x2926 <vfprintf+0x634>
    29a2:	f1 2c       	mov	r15, r1
    29a4:	c5 cf       	rjmp	.-118    	; 0x2930 <vfprintf+0x63e>
    29a6:	63 96       	adiw	r28, 0x13	; 19
    29a8:	e2 e1       	ldi	r30, 0x12	; 18
    29aa:	48 c0       	rjmp	.+144    	; 0x2a3c <__epilogue_restores__>

000029ac <__udivmodsi4>:
    29ac:	a1 e2       	ldi	r26, 0x21	; 33
    29ae:	1a 2e       	mov	r1, r26
    29b0:	aa 1b       	sub	r26, r26
    29b2:	bb 1b       	sub	r27, r27
    29b4:	fd 01       	movw	r30, r26
    29b6:	0d c0       	rjmp	.+26     	; 0x29d2 <__udivmodsi4_ep>

000029b8 <__udivmodsi4_loop>:
    29b8:	aa 1f       	adc	r26, r26
    29ba:	bb 1f       	adc	r27, r27
    29bc:	ee 1f       	adc	r30, r30
    29be:	ff 1f       	adc	r31, r31
    29c0:	a2 17       	cp	r26, r18
    29c2:	b3 07       	cpc	r27, r19
    29c4:	e4 07       	cpc	r30, r20
    29c6:	f5 07       	cpc	r31, r21
    29c8:	20 f0       	brcs	.+8      	; 0x29d2 <__udivmodsi4_ep>
    29ca:	a2 1b       	sub	r26, r18
    29cc:	b3 0b       	sbc	r27, r19
    29ce:	e4 0b       	sbc	r30, r20
    29d0:	f5 0b       	sbc	r31, r21

000029d2 <__udivmodsi4_ep>:
    29d2:	66 1f       	adc	r22, r22
    29d4:	77 1f       	adc	r23, r23
    29d6:	88 1f       	adc	r24, r24
    29d8:	99 1f       	adc	r25, r25
    29da:	1a 94       	dec	r1
    29dc:	69 f7       	brne	.-38     	; 0x29b8 <__udivmodsi4_loop>
    29de:	60 95       	com	r22
    29e0:	70 95       	com	r23
    29e2:	80 95       	com	r24
    29e4:	90 95       	com	r25
    29e6:	9b 01       	movw	r18, r22
    29e8:	ac 01       	movw	r20, r24
    29ea:	bd 01       	movw	r22, r26
    29ec:	cf 01       	movw	r24, r30
    29ee:	08 95       	ret

000029f0 <__muluhisi3>:
    29f0:	40 d0       	rcall	.+128    	; 0x2a72 <__umulhisi3>
    29f2:	a5 9f       	mul	r26, r21
    29f4:	90 0d       	add	r25, r0
    29f6:	b4 9f       	mul	r27, r20
    29f8:	90 0d       	add	r25, r0
    29fa:	a4 9f       	mul	r26, r20
    29fc:	80 0d       	add	r24, r0
    29fe:	91 1d       	adc	r25, r1
    2a00:	11 24       	eor	r1, r1
    2a02:	08 95       	ret

00002a04 <__prologue_saves__>:
    2a04:	2f 92       	push	r2
    2a06:	3f 92       	push	r3
    2a08:	4f 92       	push	r4
    2a0a:	5f 92       	push	r5
    2a0c:	6f 92       	push	r6
    2a0e:	7f 92       	push	r7
    2a10:	8f 92       	push	r8
    2a12:	9f 92       	push	r9
    2a14:	af 92       	push	r10
    2a16:	bf 92       	push	r11
    2a18:	cf 92       	push	r12
    2a1a:	df 92       	push	r13
    2a1c:	ef 92       	push	r14
    2a1e:	ff 92       	push	r15
    2a20:	0f 93       	push	r16
    2a22:	1f 93       	push	r17
    2a24:	cf 93       	push	r28
    2a26:	df 93       	push	r29
    2a28:	cd b7       	in	r28, 0x3d	; 61
    2a2a:	de b7       	in	r29, 0x3e	; 62
    2a2c:	ca 1b       	sub	r28, r26
    2a2e:	db 0b       	sbc	r29, r27
    2a30:	0f b6       	in	r0, 0x3f	; 63
    2a32:	f8 94       	cli
    2a34:	de bf       	out	0x3e, r29	; 62
    2a36:	0f be       	out	0x3f, r0	; 63
    2a38:	cd bf       	out	0x3d, r28	; 61
    2a3a:	09 94       	ijmp

00002a3c <__epilogue_restores__>:
    2a3c:	2a 88       	ldd	r2, Y+18	; 0x12
    2a3e:	39 88       	ldd	r3, Y+17	; 0x11
    2a40:	48 88       	ldd	r4, Y+16	; 0x10
    2a42:	5f 84       	ldd	r5, Y+15	; 0x0f
    2a44:	6e 84       	ldd	r6, Y+14	; 0x0e
    2a46:	7d 84       	ldd	r7, Y+13	; 0x0d
    2a48:	8c 84       	ldd	r8, Y+12	; 0x0c
    2a4a:	9b 84       	ldd	r9, Y+11	; 0x0b
    2a4c:	aa 84       	ldd	r10, Y+10	; 0x0a
    2a4e:	b9 84       	ldd	r11, Y+9	; 0x09
    2a50:	c8 84       	ldd	r12, Y+8	; 0x08
    2a52:	df 80       	ldd	r13, Y+7	; 0x07
    2a54:	ee 80       	ldd	r14, Y+6	; 0x06
    2a56:	fd 80       	ldd	r15, Y+5	; 0x05
    2a58:	0c 81       	ldd	r16, Y+4	; 0x04
    2a5a:	1b 81       	ldd	r17, Y+3	; 0x03
    2a5c:	aa 81       	ldd	r26, Y+2	; 0x02
    2a5e:	b9 81       	ldd	r27, Y+1	; 0x01
    2a60:	ce 0f       	add	r28, r30
    2a62:	d1 1d       	adc	r29, r1
    2a64:	0f b6       	in	r0, 0x3f	; 63
    2a66:	f8 94       	cli
    2a68:	de bf       	out	0x3e, r29	; 62
    2a6a:	0f be       	out	0x3f, r0	; 63
    2a6c:	cd bf       	out	0x3d, r28	; 61
    2a6e:	ed 01       	movw	r28, r26
    2a70:	08 95       	ret

00002a72 <__umulhisi3>:
    2a72:	a2 9f       	mul	r26, r18
    2a74:	b0 01       	movw	r22, r0
    2a76:	b3 9f       	mul	r27, r19
    2a78:	c0 01       	movw	r24, r0
    2a7a:	a3 9f       	mul	r26, r19
    2a7c:	70 0d       	add	r23, r0
    2a7e:	81 1d       	adc	r24, r1
    2a80:	11 24       	eor	r1, r1
    2a82:	91 1d       	adc	r25, r1
    2a84:	b2 9f       	mul	r27, r18
    2a86:	70 0d       	add	r23, r0
    2a88:	81 1d       	adc	r24, r1
    2a8a:	11 24       	eor	r1, r1
    2a8c:	91 1d       	adc	r25, r1
    2a8e:	08 95       	ret

00002a90 <__ftoa_engine>:
    2a90:	28 30       	cpi	r18, 0x08	; 8
    2a92:	08 f0       	brcs	.+2      	; 0x2a96 <__ftoa_engine+0x6>
    2a94:	27 e0       	ldi	r18, 0x07	; 7
    2a96:	33 27       	eor	r19, r19
    2a98:	da 01       	movw	r26, r20
    2a9a:	99 0f       	add	r25, r25
    2a9c:	31 1d       	adc	r19, r1
    2a9e:	87 fd       	sbrc	r24, 7
    2aa0:	91 60       	ori	r25, 0x01	; 1
    2aa2:	00 96       	adiw	r24, 0x00	; 0
    2aa4:	61 05       	cpc	r22, r1
    2aa6:	71 05       	cpc	r23, r1
    2aa8:	39 f4       	brne	.+14     	; 0x2ab8 <__ftoa_engine+0x28>
    2aaa:	32 60       	ori	r19, 0x02	; 2
    2aac:	2e 5f       	subi	r18, 0xFE	; 254
    2aae:	3d 93       	st	X+, r19
    2ab0:	30 e3       	ldi	r19, 0x30	; 48
    2ab2:	2a 95       	dec	r18
    2ab4:	e1 f7       	brne	.-8      	; 0x2aae <__ftoa_engine+0x1e>
    2ab6:	08 95       	ret
    2ab8:	9f 3f       	cpi	r25, 0xFF	; 255
    2aba:	30 f0       	brcs	.+12     	; 0x2ac8 <__ftoa_engine+0x38>
    2abc:	80 38       	cpi	r24, 0x80	; 128
    2abe:	71 05       	cpc	r23, r1
    2ac0:	61 05       	cpc	r22, r1
    2ac2:	09 f0       	breq	.+2      	; 0x2ac6 <__ftoa_engine+0x36>
    2ac4:	3c 5f       	subi	r19, 0xFC	; 252
    2ac6:	3c 5f       	subi	r19, 0xFC	; 252
    2ac8:	3d 93       	st	X+, r19
    2aca:	91 30       	cpi	r25, 0x01	; 1
    2acc:	08 f0       	brcs	.+2      	; 0x2ad0 <__ftoa_engine+0x40>
    2ace:	80 68       	ori	r24, 0x80	; 128
    2ad0:	91 1d       	adc	r25, r1
    2ad2:	df 93       	push	r29
    2ad4:	cf 93       	push	r28
    2ad6:	1f 93       	push	r17
    2ad8:	0f 93       	push	r16
    2ada:	ff 92       	push	r15
    2adc:	ef 92       	push	r14
    2ade:	19 2f       	mov	r17, r25
    2ae0:	98 7f       	andi	r25, 0xF8	; 248
    2ae2:	96 95       	lsr	r25
    2ae4:	e9 2f       	mov	r30, r25
    2ae6:	96 95       	lsr	r25
    2ae8:	96 95       	lsr	r25
    2aea:	e9 0f       	add	r30, r25
    2aec:	ff 27       	eor	r31, r31
    2aee:	e6 56       	subi	r30, 0x66	; 102
    2af0:	fe 4f       	sbci	r31, 0xFE	; 254
    2af2:	99 27       	eor	r25, r25
    2af4:	33 27       	eor	r19, r19
    2af6:	ee 24       	eor	r14, r14
    2af8:	ff 24       	eor	r15, r15
    2afa:	a7 01       	movw	r20, r14
    2afc:	e7 01       	movw	r28, r14
    2afe:	05 90       	lpm	r0, Z+
    2b00:	08 94       	sec
    2b02:	07 94       	ror	r0
    2b04:	28 f4       	brcc	.+10     	; 0x2b10 <__ftoa_engine+0x80>
    2b06:	36 0f       	add	r19, r22
    2b08:	e7 1e       	adc	r14, r23
    2b0a:	f8 1e       	adc	r15, r24
    2b0c:	49 1f       	adc	r20, r25
    2b0e:	51 1d       	adc	r21, r1
    2b10:	66 0f       	add	r22, r22
    2b12:	77 1f       	adc	r23, r23
    2b14:	88 1f       	adc	r24, r24
    2b16:	99 1f       	adc	r25, r25
    2b18:	06 94       	lsr	r0
    2b1a:	a1 f7       	brne	.-24     	; 0x2b04 <__ftoa_engine+0x74>
    2b1c:	05 90       	lpm	r0, Z+
    2b1e:	07 94       	ror	r0
    2b20:	28 f4       	brcc	.+10     	; 0x2b2c <__ftoa_engine+0x9c>
    2b22:	e7 0e       	add	r14, r23
    2b24:	f8 1e       	adc	r15, r24
    2b26:	49 1f       	adc	r20, r25
    2b28:	56 1f       	adc	r21, r22
    2b2a:	c1 1d       	adc	r28, r1
    2b2c:	77 0f       	add	r23, r23
    2b2e:	88 1f       	adc	r24, r24
    2b30:	99 1f       	adc	r25, r25
    2b32:	66 1f       	adc	r22, r22
    2b34:	06 94       	lsr	r0
    2b36:	a1 f7       	brne	.-24     	; 0x2b20 <__ftoa_engine+0x90>
    2b38:	05 90       	lpm	r0, Z+
    2b3a:	07 94       	ror	r0
    2b3c:	28 f4       	brcc	.+10     	; 0x2b48 <__ftoa_engine+0xb8>
    2b3e:	f8 0e       	add	r15, r24
    2b40:	49 1f       	adc	r20, r25
    2b42:	56 1f       	adc	r21, r22
    2b44:	c7 1f       	adc	r28, r23
    2b46:	d1 1d       	adc	r29, r1
    2b48:	88 0f       	add	r24, r24
    2b4a:	99 1f       	adc	r25, r25
    2b4c:	66 1f       	adc	r22, r22
    2b4e:	77 1f       	adc	r23, r23
    2b50:	06 94       	lsr	r0
    2b52:	a1 f7       	brne	.-24     	; 0x2b3c <__ftoa_engine+0xac>
    2b54:	05 90       	lpm	r0, Z+
    2b56:	07 94       	ror	r0
    2b58:	20 f4       	brcc	.+8      	; 0x2b62 <__ftoa_engine+0xd2>
    2b5a:	49 0f       	add	r20, r25
    2b5c:	56 1f       	adc	r21, r22
    2b5e:	c7 1f       	adc	r28, r23
    2b60:	d8 1f       	adc	r29, r24
    2b62:	99 0f       	add	r25, r25
    2b64:	66 1f       	adc	r22, r22
    2b66:	77 1f       	adc	r23, r23
    2b68:	88 1f       	adc	r24, r24
    2b6a:	06 94       	lsr	r0
    2b6c:	a9 f7       	brne	.-22     	; 0x2b58 <__ftoa_engine+0xc8>
    2b6e:	84 91       	lpm	r24, Z
    2b70:	10 95       	com	r17
    2b72:	17 70       	andi	r17, 0x07	; 7
    2b74:	41 f0       	breq	.+16     	; 0x2b86 <__ftoa_engine+0xf6>
    2b76:	d6 95       	lsr	r29
    2b78:	c7 95       	ror	r28
    2b7a:	57 95       	ror	r21
    2b7c:	47 95       	ror	r20
    2b7e:	f7 94       	ror	r15
    2b80:	e7 94       	ror	r14
    2b82:	1a 95       	dec	r17
    2b84:	c1 f7       	brne	.-16     	; 0x2b76 <__ftoa_engine+0xe6>
    2b86:	e0 e4       	ldi	r30, 0x40	; 64
    2b88:	f1 e0       	ldi	r31, 0x01	; 1
    2b8a:	68 94       	set
    2b8c:	15 90       	lpm	r1, Z+
    2b8e:	15 91       	lpm	r17, Z+
    2b90:	35 91       	lpm	r19, Z+
    2b92:	65 91       	lpm	r22, Z+
    2b94:	95 91       	lpm	r25, Z+
    2b96:	05 90       	lpm	r0, Z+
    2b98:	7f e2       	ldi	r23, 0x2F	; 47
    2b9a:	73 95       	inc	r23
    2b9c:	e1 18       	sub	r14, r1
    2b9e:	f1 0a       	sbc	r15, r17
    2ba0:	43 0b       	sbc	r20, r19
    2ba2:	56 0b       	sbc	r21, r22
    2ba4:	c9 0b       	sbc	r28, r25
    2ba6:	d0 09       	sbc	r29, r0
    2ba8:	c0 f7       	brcc	.-16     	; 0x2b9a <__ftoa_engine+0x10a>
    2baa:	e1 0c       	add	r14, r1
    2bac:	f1 1e       	adc	r15, r17
    2bae:	43 1f       	adc	r20, r19
    2bb0:	56 1f       	adc	r21, r22
    2bb2:	c9 1f       	adc	r28, r25
    2bb4:	d0 1d       	adc	r29, r0
    2bb6:	7e f4       	brtc	.+30     	; 0x2bd6 <__ftoa_engine+0x146>
    2bb8:	70 33       	cpi	r23, 0x30	; 48
    2bba:	11 f4       	brne	.+4      	; 0x2bc0 <__ftoa_engine+0x130>
    2bbc:	8a 95       	dec	r24
    2bbe:	e6 cf       	rjmp	.-52     	; 0x2b8c <__ftoa_engine+0xfc>
    2bc0:	e8 94       	clt
    2bc2:	01 50       	subi	r16, 0x01	; 1
    2bc4:	30 f0       	brcs	.+12     	; 0x2bd2 <__ftoa_engine+0x142>
    2bc6:	08 0f       	add	r16, r24
    2bc8:	0a f4       	brpl	.+2      	; 0x2bcc <__ftoa_engine+0x13c>
    2bca:	00 27       	eor	r16, r16
    2bcc:	02 17       	cp	r16, r18
    2bce:	08 f4       	brcc	.+2      	; 0x2bd2 <__ftoa_engine+0x142>
    2bd0:	20 2f       	mov	r18, r16
    2bd2:	23 95       	inc	r18
    2bd4:	02 2f       	mov	r16, r18
    2bd6:	7a 33       	cpi	r23, 0x3A	; 58
    2bd8:	28 f0       	brcs	.+10     	; 0x2be4 <__ftoa_engine+0x154>
    2bda:	79 e3       	ldi	r23, 0x39	; 57
    2bdc:	7d 93       	st	X+, r23
    2bde:	2a 95       	dec	r18
    2be0:	e9 f7       	brne	.-6      	; 0x2bdc <__ftoa_engine+0x14c>
    2be2:	10 c0       	rjmp	.+32     	; 0x2c04 <__ftoa_engine+0x174>
    2be4:	7d 93       	st	X+, r23
    2be6:	2a 95       	dec	r18
    2be8:	89 f6       	brne	.-94     	; 0x2b8c <__ftoa_engine+0xfc>
    2bea:	06 94       	lsr	r0
    2bec:	97 95       	ror	r25
    2bee:	67 95       	ror	r22
    2bf0:	37 95       	ror	r19
    2bf2:	17 95       	ror	r17
    2bf4:	17 94       	ror	r1
    2bf6:	e1 18       	sub	r14, r1
    2bf8:	f1 0a       	sbc	r15, r17
    2bfa:	43 0b       	sbc	r20, r19
    2bfc:	56 0b       	sbc	r21, r22
    2bfe:	c9 0b       	sbc	r28, r25
    2c00:	d0 09       	sbc	r29, r0
    2c02:	98 f0       	brcs	.+38     	; 0x2c2a <__ftoa_engine+0x19a>
    2c04:	23 95       	inc	r18
    2c06:	7e 91       	ld	r23, -X
    2c08:	73 95       	inc	r23
    2c0a:	7a 33       	cpi	r23, 0x3A	; 58
    2c0c:	08 f0       	brcs	.+2      	; 0x2c10 <__ftoa_engine+0x180>
    2c0e:	70 e3       	ldi	r23, 0x30	; 48
    2c10:	7c 93       	st	X, r23
    2c12:	20 13       	cpse	r18, r16
    2c14:	b8 f7       	brcc	.-18     	; 0x2c04 <__ftoa_engine+0x174>
    2c16:	7e 91       	ld	r23, -X
    2c18:	70 61       	ori	r23, 0x10	; 16
    2c1a:	7d 93       	st	X+, r23
    2c1c:	30 f0       	brcs	.+12     	; 0x2c2a <__ftoa_engine+0x19a>
    2c1e:	83 95       	inc	r24
    2c20:	71 e3       	ldi	r23, 0x31	; 49
    2c22:	7d 93       	st	X+, r23
    2c24:	70 e3       	ldi	r23, 0x30	; 48
    2c26:	2a 95       	dec	r18
    2c28:	e1 f7       	brne	.-8      	; 0x2c22 <__ftoa_engine+0x192>
    2c2a:	11 24       	eor	r1, r1
    2c2c:	ef 90       	pop	r14
    2c2e:	ff 90       	pop	r15
    2c30:	0f 91       	pop	r16
    2c32:	1f 91       	pop	r17
    2c34:	cf 91       	pop	r28
    2c36:	df 91       	pop	r29
    2c38:	99 27       	eor	r25, r25
    2c3a:	87 fd       	sbrc	r24, 7
    2c3c:	90 95       	com	r25
    2c3e:	08 95       	ret

00002c40 <strnlen_P>:
    2c40:	fc 01       	movw	r30, r24
    2c42:	05 90       	lpm	r0, Z+
    2c44:	61 50       	subi	r22, 0x01	; 1
    2c46:	70 40       	sbci	r23, 0x00	; 0
    2c48:	01 10       	cpse	r0, r1
    2c4a:	d8 f7       	brcc	.-10     	; 0x2c42 <strnlen_P+0x2>
    2c4c:	80 95       	com	r24
    2c4e:	90 95       	com	r25
    2c50:	8e 0f       	add	r24, r30
    2c52:	9f 1f       	adc	r25, r31
    2c54:	08 95       	ret

00002c56 <strnlen>:
    2c56:	fc 01       	movw	r30, r24
    2c58:	61 50       	subi	r22, 0x01	; 1
    2c5a:	70 40       	sbci	r23, 0x00	; 0
    2c5c:	01 90       	ld	r0, Z+
    2c5e:	01 10       	cpse	r0, r1
    2c60:	d8 f7       	brcc	.-10     	; 0x2c58 <strnlen+0x2>
    2c62:	80 95       	com	r24
    2c64:	90 95       	com	r25
    2c66:	8e 0f       	add	r24, r30
    2c68:	9f 1f       	adc	r25, r31
    2c6a:	08 95       	ret

00002c6c <fputc>:
    2c6c:	0f 93       	push	r16
    2c6e:	1f 93       	push	r17
    2c70:	cf 93       	push	r28
    2c72:	df 93       	push	r29
    2c74:	fb 01       	movw	r30, r22
    2c76:	23 81       	ldd	r18, Z+3	; 0x03
    2c78:	21 fd       	sbrc	r18, 1
    2c7a:	03 c0       	rjmp	.+6      	; 0x2c82 <fputc+0x16>
    2c7c:	8f ef       	ldi	r24, 0xFF	; 255
    2c7e:	9f ef       	ldi	r25, 0xFF	; 255
    2c80:	28 c0       	rjmp	.+80     	; 0x2cd2 <fputc+0x66>
    2c82:	22 ff       	sbrs	r18, 2
    2c84:	16 c0       	rjmp	.+44     	; 0x2cb2 <fputc+0x46>
    2c86:	46 81       	ldd	r20, Z+6	; 0x06
    2c88:	57 81       	ldd	r21, Z+7	; 0x07
    2c8a:	24 81       	ldd	r18, Z+4	; 0x04
    2c8c:	35 81       	ldd	r19, Z+5	; 0x05
    2c8e:	42 17       	cp	r20, r18
    2c90:	53 07       	cpc	r21, r19
    2c92:	44 f4       	brge	.+16     	; 0x2ca4 <fputc+0x38>
    2c94:	a0 81       	ld	r26, Z
    2c96:	b1 81       	ldd	r27, Z+1	; 0x01
    2c98:	9d 01       	movw	r18, r26
    2c9a:	2f 5f       	subi	r18, 0xFF	; 255
    2c9c:	3f 4f       	sbci	r19, 0xFF	; 255
    2c9e:	31 83       	std	Z+1, r19	; 0x01
    2ca0:	20 83       	st	Z, r18
    2ca2:	8c 93       	st	X, r24
    2ca4:	26 81       	ldd	r18, Z+6	; 0x06
    2ca6:	37 81       	ldd	r19, Z+7	; 0x07
    2ca8:	2f 5f       	subi	r18, 0xFF	; 255
    2caa:	3f 4f       	sbci	r19, 0xFF	; 255
    2cac:	37 83       	std	Z+7, r19	; 0x07
    2cae:	26 83       	std	Z+6, r18	; 0x06
    2cb0:	10 c0       	rjmp	.+32     	; 0x2cd2 <fputc+0x66>
    2cb2:	eb 01       	movw	r28, r22
    2cb4:	09 2f       	mov	r16, r25
    2cb6:	18 2f       	mov	r17, r24
    2cb8:	00 84       	ldd	r0, Z+8	; 0x08
    2cba:	f1 85       	ldd	r31, Z+9	; 0x09
    2cbc:	e0 2d       	mov	r30, r0
    2cbe:	09 95       	icall
    2cc0:	89 2b       	or	r24, r25
    2cc2:	e1 f6       	brne	.-72     	; 0x2c7c <fputc+0x10>
    2cc4:	8e 81       	ldd	r24, Y+6	; 0x06
    2cc6:	9f 81       	ldd	r25, Y+7	; 0x07
    2cc8:	01 96       	adiw	r24, 0x01	; 1
    2cca:	9f 83       	std	Y+7, r25	; 0x07
    2ccc:	8e 83       	std	Y+6, r24	; 0x06
    2cce:	81 2f       	mov	r24, r17
    2cd0:	90 2f       	mov	r25, r16
    2cd2:	df 91       	pop	r29
    2cd4:	cf 91       	pop	r28
    2cd6:	1f 91       	pop	r17
    2cd8:	0f 91       	pop	r16
    2cda:	08 95       	ret

00002cdc <sprintf>:
    2cdc:	ae e0       	ldi	r26, 0x0E	; 14
    2cde:	b0 e0       	ldi	r27, 0x00	; 0
    2ce0:	e3 e7       	ldi	r30, 0x73	; 115
    2ce2:	f6 e1       	ldi	r31, 0x16	; 22
    2ce4:	9d ce       	rjmp	.-710    	; 0x2a20 <__prologue_saves__+0x1c>
    2ce6:	0d 89       	ldd	r16, Y+21	; 0x15
    2ce8:	1e 89       	ldd	r17, Y+22	; 0x16
    2cea:	86 e0       	ldi	r24, 0x06	; 6
    2cec:	8c 83       	std	Y+4, r24	; 0x04
    2cee:	1a 83       	std	Y+2, r17	; 0x02
    2cf0:	09 83       	std	Y+1, r16	; 0x01
    2cf2:	8f ef       	ldi	r24, 0xFF	; 255
    2cf4:	9f e7       	ldi	r25, 0x7F	; 127
    2cf6:	9e 83       	std	Y+6, r25	; 0x06
    2cf8:	8d 83       	std	Y+5, r24	; 0x05
    2cfa:	ae 01       	movw	r20, r28
    2cfc:	47 5e       	subi	r20, 0xE7	; 231
    2cfe:	5f 4f       	sbci	r21, 0xFF	; 255
    2d00:	6f 89       	ldd	r22, Y+23	; 0x17
    2d02:	78 8d       	ldd	r23, Y+24	; 0x18
    2d04:	ce 01       	movw	r24, r28
    2d06:	01 96       	adiw	r24, 0x01	; 1
    2d08:	f4 da       	rcall	.-2584   	; 0x22f2 <vfprintf>
    2d0a:	2f 81       	ldd	r18, Y+7	; 0x07
    2d0c:	38 85       	ldd	r19, Y+8	; 0x08
    2d0e:	f8 01       	movw	r30, r16
    2d10:	e2 0f       	add	r30, r18
    2d12:	f3 1f       	adc	r31, r19
    2d14:	10 82       	st	Z, r1
    2d16:	2e 96       	adiw	r28, 0x0e	; 14
    2d18:	e4 e0       	ldi	r30, 0x04	; 4
    2d1a:	9e ce       	rjmp	.-708    	; 0x2a58 <__epilogue_restores__+0x1c>

00002d1c <__ultoa_invert>:
    2d1c:	fa 01       	movw	r30, r20
    2d1e:	aa 27       	eor	r26, r26
    2d20:	28 30       	cpi	r18, 0x08	; 8
    2d22:	51 f1       	breq	.+84     	; 0x2d78 <__ultoa_invert+0x5c>
    2d24:	20 31       	cpi	r18, 0x10	; 16
    2d26:	81 f1       	breq	.+96     	; 0x2d88 <__ultoa_invert+0x6c>
    2d28:	e8 94       	clt
    2d2a:	6f 93       	push	r22
    2d2c:	6e 7f       	andi	r22, 0xFE	; 254
    2d2e:	6e 5f       	subi	r22, 0xFE	; 254
    2d30:	7f 4f       	sbci	r23, 0xFF	; 255
    2d32:	8f 4f       	sbci	r24, 0xFF	; 255
    2d34:	9f 4f       	sbci	r25, 0xFF	; 255
    2d36:	af 4f       	sbci	r26, 0xFF	; 255
    2d38:	b1 e0       	ldi	r27, 0x01	; 1
    2d3a:	3e d0       	rcall	.+124    	; 0x2db8 <__ultoa_invert+0x9c>
    2d3c:	b4 e0       	ldi	r27, 0x04	; 4
    2d3e:	3c d0       	rcall	.+120    	; 0x2db8 <__ultoa_invert+0x9c>
    2d40:	67 0f       	add	r22, r23
    2d42:	78 1f       	adc	r23, r24
    2d44:	89 1f       	adc	r24, r25
    2d46:	9a 1f       	adc	r25, r26
    2d48:	a1 1d       	adc	r26, r1
    2d4a:	68 0f       	add	r22, r24
    2d4c:	79 1f       	adc	r23, r25
    2d4e:	8a 1f       	adc	r24, r26
    2d50:	91 1d       	adc	r25, r1
    2d52:	a1 1d       	adc	r26, r1
    2d54:	6a 0f       	add	r22, r26
    2d56:	71 1d       	adc	r23, r1
    2d58:	81 1d       	adc	r24, r1
    2d5a:	91 1d       	adc	r25, r1
    2d5c:	a1 1d       	adc	r26, r1
    2d5e:	20 d0       	rcall	.+64     	; 0x2da0 <__ultoa_invert+0x84>
    2d60:	09 f4       	brne	.+2      	; 0x2d64 <__ultoa_invert+0x48>
    2d62:	68 94       	set
    2d64:	3f 91       	pop	r19
    2d66:	2a e0       	ldi	r18, 0x0A	; 10
    2d68:	26 9f       	mul	r18, r22
    2d6a:	11 24       	eor	r1, r1
    2d6c:	30 19       	sub	r19, r0
    2d6e:	30 5d       	subi	r19, 0xD0	; 208
    2d70:	31 93       	st	Z+, r19
    2d72:	de f6       	brtc	.-74     	; 0x2d2a <__ultoa_invert+0xe>
    2d74:	cf 01       	movw	r24, r30
    2d76:	08 95       	ret
    2d78:	46 2f       	mov	r20, r22
    2d7a:	47 70       	andi	r20, 0x07	; 7
    2d7c:	40 5d       	subi	r20, 0xD0	; 208
    2d7e:	41 93       	st	Z+, r20
    2d80:	b3 e0       	ldi	r27, 0x03	; 3
    2d82:	0f d0       	rcall	.+30     	; 0x2da2 <__ultoa_invert+0x86>
    2d84:	c9 f7       	brne	.-14     	; 0x2d78 <__ultoa_invert+0x5c>
    2d86:	f6 cf       	rjmp	.-20     	; 0x2d74 <__ultoa_invert+0x58>
    2d88:	46 2f       	mov	r20, r22
    2d8a:	4f 70       	andi	r20, 0x0F	; 15
    2d8c:	40 5d       	subi	r20, 0xD0	; 208
    2d8e:	4a 33       	cpi	r20, 0x3A	; 58
    2d90:	18 f0       	brcs	.+6      	; 0x2d98 <__ultoa_invert+0x7c>
    2d92:	49 5d       	subi	r20, 0xD9	; 217
    2d94:	31 fd       	sbrc	r19, 1
    2d96:	40 52       	subi	r20, 0x20	; 32
    2d98:	41 93       	st	Z+, r20
    2d9a:	02 d0       	rcall	.+4      	; 0x2da0 <__ultoa_invert+0x84>
    2d9c:	a9 f7       	brne	.-22     	; 0x2d88 <__ultoa_invert+0x6c>
    2d9e:	ea cf       	rjmp	.-44     	; 0x2d74 <__ultoa_invert+0x58>
    2da0:	b4 e0       	ldi	r27, 0x04	; 4
    2da2:	a6 95       	lsr	r26
    2da4:	97 95       	ror	r25
    2da6:	87 95       	ror	r24
    2da8:	77 95       	ror	r23
    2daa:	67 95       	ror	r22
    2dac:	ba 95       	dec	r27
    2dae:	c9 f7       	brne	.-14     	; 0x2da2 <__ultoa_invert+0x86>
    2db0:	00 97       	sbiw	r24, 0x00	; 0
    2db2:	61 05       	cpc	r22, r1
    2db4:	71 05       	cpc	r23, r1
    2db6:	08 95       	ret
    2db8:	9b 01       	movw	r18, r22
    2dba:	ac 01       	movw	r20, r24
    2dbc:	0a 2e       	mov	r0, r26
    2dbe:	06 94       	lsr	r0
    2dc0:	57 95       	ror	r21
    2dc2:	47 95       	ror	r20
    2dc4:	37 95       	ror	r19
    2dc6:	27 95       	ror	r18
    2dc8:	ba 95       	dec	r27
    2dca:	c9 f7       	brne	.-14     	; 0x2dbe <__ultoa_invert+0xa2>
    2dcc:	62 0f       	add	r22, r18
    2dce:	73 1f       	adc	r23, r19
    2dd0:	84 1f       	adc	r24, r20
    2dd2:	95 1f       	adc	r25, r21
    2dd4:	a0 1d       	adc	r26, r0
    2dd6:	08 95       	ret

00002dd8 <eeprom_read_byte>:
    2dd8:	f9 99       	sbic	0x1f, 1	; 31
    2dda:	fe cf       	rjmp	.-4      	; 0x2dd8 <eeprom_read_byte>
    2ddc:	92 bd       	out	0x22, r25	; 34
    2dde:	81 bd       	out	0x21, r24	; 33
    2de0:	f8 9a       	sbi	0x1f, 0	; 31
    2de2:	99 27       	eor	r25, r25
    2de4:	80 b5       	in	r24, 0x20	; 32
    2de6:	08 95       	ret

00002de8 <eeprom_read_word>:
    2de8:	a8 e1       	ldi	r26, 0x18	; 24
    2dea:	b0 e0       	ldi	r27, 0x00	; 0
    2dec:	42 e0       	ldi	r20, 0x02	; 2
    2dee:	50 e0       	ldi	r21, 0x00	; 0
    2df0:	26 c0       	rjmp	.+76     	; 0x2e3e <eeprom_read_blraw>

00002df2 <eeprom_update_byte>:
    2df2:	26 2f       	mov	r18, r22

00002df4 <eeprom_update_r18>:
    2df4:	f9 99       	sbic	0x1f, 1	; 31
    2df6:	fe cf       	rjmp	.-4      	; 0x2df4 <eeprom_update_r18>
    2df8:	92 bd       	out	0x22, r25	; 34
    2dfa:	81 bd       	out	0x21, r24	; 33
    2dfc:	f8 9a       	sbi	0x1f, 0	; 31
    2dfe:	01 97       	sbiw	r24, 0x01	; 1
    2e00:	00 b4       	in	r0, 0x20	; 32
    2e02:	02 16       	cp	r0, r18
    2e04:	39 f0       	breq	.+14     	; 0x2e14 <eeprom_update_r18+0x20>
    2e06:	1f ba       	out	0x1f, r1	; 31
    2e08:	20 bd       	out	0x20, r18	; 32
    2e0a:	0f b6       	in	r0, 0x3f	; 63
    2e0c:	f8 94       	cli
    2e0e:	fa 9a       	sbi	0x1f, 2	; 31
    2e10:	f9 9a       	sbi	0x1f, 1	; 31
    2e12:	0f be       	out	0x3f, r0	; 63
    2e14:	08 95       	ret

00002e16 <eeprom_update_word>:
    2e16:	01 96       	adiw	r24, 0x01	; 1
    2e18:	27 2f       	mov	r18, r23
    2e1a:	ec df       	rcall	.-40     	; 0x2df4 <eeprom_update_r18>
    2e1c:	ea cf       	rjmp	.-44     	; 0x2df2 <eeprom_update_byte>

00002e1e <eeprom_write_byte>:
    2e1e:	26 2f       	mov	r18, r22

00002e20 <eeprom_write_r18>:
    2e20:	f9 99       	sbic	0x1f, 1	; 31
    2e22:	fe cf       	rjmp	.-4      	; 0x2e20 <eeprom_write_r18>
    2e24:	1f ba       	out	0x1f, r1	; 31
    2e26:	92 bd       	out	0x22, r25	; 34
    2e28:	81 bd       	out	0x21, r24	; 33
    2e2a:	20 bd       	out	0x20, r18	; 32
    2e2c:	0f b6       	in	r0, 0x3f	; 63
    2e2e:	f8 94       	cli
    2e30:	fa 9a       	sbi	0x1f, 2	; 31
    2e32:	f9 9a       	sbi	0x1f, 1	; 31
    2e34:	0f be       	out	0x3f, r0	; 63
    2e36:	01 96       	adiw	r24, 0x01	; 1
    2e38:	08 95       	ret

00002e3a <eeprom_read_block>:
    2e3a:	dc 01       	movw	r26, r24
    2e3c:	cb 01       	movw	r24, r22

00002e3e <eeprom_read_blraw>:
    2e3e:	fc 01       	movw	r30, r24
    2e40:	f9 99       	sbic	0x1f, 1	; 31
    2e42:	fe cf       	rjmp	.-4      	; 0x2e40 <eeprom_read_blraw+0x2>
    2e44:	06 c0       	rjmp	.+12     	; 0x2e52 <eeprom_read_blraw+0x14>
    2e46:	f2 bd       	out	0x22, r31	; 34
    2e48:	e1 bd       	out	0x21, r30	; 33
    2e4a:	f8 9a       	sbi	0x1f, 0	; 31
    2e4c:	31 96       	adiw	r30, 0x01	; 1
    2e4e:	00 b4       	in	r0, 0x20	; 32
    2e50:	0d 92       	st	X+, r0
    2e52:	41 50       	subi	r20, 0x01	; 1
    2e54:	50 40       	sbci	r21, 0x00	; 0
    2e56:	b8 f7       	brcc	.-18     	; 0x2e46 <eeprom_read_blraw+0x8>
    2e58:	08 95       	ret

00002e5a <_exit>:
    2e5a:	f8 94       	cli

00002e5c <__stop_program>:
    2e5c:	ff cf       	rjmp	.-2      	; 0x2e5c <__stop_program>
