
A-SUN.elf:     file format elf32-avr

Sections:
Idx Name          Size      VMA       LMA       File off  Algn
  0 .data         00000064  00800100  0000266e  00002702  2**0
                  CONTENTS, ALLOC, LOAD, DATA
  1 .text         0000266e  00000000  00000000  00000094  2**1
                  CONTENTS, ALLOC, LOAD, READONLY, CODE
  2 .bss          0000004f  00800164  00800164  00002766  2**0
                  ALLOC
  3 .comment      0000005c  00000000  00000000  00002766  2**0
                  CONTENTS, READONLY
  4 .debug_aranges 00000440  00000000  00000000  000027c2  2**0
                  CONTENTS, READONLY, DEBUGGING
  5 .debug_info   00006739  00000000  00000000  00002c02  2**0
                  CONTENTS, READONLY, DEBUGGING
  6 .debug_abbrev 00001b7b  00000000  00000000  0000933b  2**0
                  CONTENTS, READONLY, DEBUGGING
  7 .debug_line   0000cc6a  00000000  00000000  0000aeb6  2**0
                  CONTENTS, READONLY, DEBUGGING
  8 .debug_frame  00000c30  00000000  00000000  00017b20  2**2
                  CONTENTS, READONLY, DEBUGGING
  9 .debug_str    0001b0dd  00000000  00000000  00018750  2**0
                  CONTENTS, READONLY, DEBUGGING
 10 .debug_loc    00003eb5  00000000  00000000  0003382d  2**0
                  CONTENTS, READONLY, DEBUGGING
 11 .debug_ranges 00000560  00000000  00000000  000376e2  2**0
                  CONTENTS, READONLY, DEBUGGING
 12 .debug_macro  000094f1  00000000  00000000  00037c42  2**0
                  CONTENTS, READONLY, DEBUGGING

Disassembly of section .text:

00000000 <__vectors>:
       0:	1c c1       	rjmp	.+568    	; 0x23a <__ctors_end>
       2:	00 00       	nop
       4:	37 c1       	rjmp	.+622    	; 0x274 <__bad_interrupt>
       6:	00 00       	nop
       8:	35 c1       	rjmp	.+618    	; 0x274 <__bad_interrupt>
       a:	00 00       	nop
       c:	33 c1       	rjmp	.+614    	; 0x274 <__bad_interrupt>
       e:	00 00       	nop
      10:	31 c1       	rjmp	.+610    	; 0x274 <__bad_interrupt>
      12:	00 00       	nop
      14:	2f c1       	rjmp	.+606    	; 0x274 <__bad_interrupt>
      16:	00 00       	nop
      18:	2d c1       	rjmp	.+602    	; 0x274 <__bad_interrupt>
      1a:	00 00       	nop
      1c:	2b c1       	rjmp	.+598    	; 0x274 <__bad_interrupt>
      1e:	00 00       	nop
      20:	29 c1       	rjmp	.+594    	; 0x274 <__bad_interrupt>
      22:	00 00       	nop
      24:	27 c1       	rjmp	.+590    	; 0x274 <__bad_interrupt>
      26:	00 00       	nop
      28:	a9 c7       	rjmp	.+3922   	; 0xf7c <__vector_10>
      2a:	00 00       	nop
      2c:	0c 94 89 08 	jmp	0x1112	; 0x1112 <__vector_11>
      30:	21 c1       	rjmp	.+578    	; 0x274 <__bad_interrupt>
      32:	00 00       	nop
      34:	1f c1       	rjmp	.+574    	; 0x274 <__bad_interrupt>
      36:	00 00       	nop
      38:	1d c1       	rjmp	.+570    	; 0x274 <__bad_interrupt>
      3a:	00 00       	nop
      3c:	1b c1       	rjmp	.+566    	; 0x274 <__bad_interrupt>
      3e:	00 00       	nop
      40:	19 c1       	rjmp	.+562    	; 0x274 <__bad_interrupt>
      42:	00 00       	nop
      44:	17 c1       	rjmp	.+558    	; 0x274 <__bad_interrupt>
      46:	00 00       	nop
      48:	15 c1       	rjmp	.+554    	; 0x274 <__bad_interrupt>
      4a:	00 00       	nop
      4c:	13 c1       	rjmp	.+550    	; 0x274 <__bad_interrupt>
      4e:	00 00       	nop
      50:	11 c1       	rjmp	.+546    	; 0x274 <__bad_interrupt>
      52:	00 00       	nop
      54:	0f c1       	rjmp	.+542    	; 0x274 <__bad_interrupt>
      56:	00 00       	nop
      58:	0d c1       	rjmp	.+538    	; 0x274 <__bad_interrupt>
      5a:	00 00       	nop
      5c:	0b c1       	rjmp	.+534    	; 0x274 <__bad_interrupt>
      5e:	00 00       	nop
      60:	09 c1       	rjmp	.+530    	; 0x274 <__bad_interrupt>
      62:	00 00       	nop
      64:	07 c1       	rjmp	.+526    	; 0x274 <__bad_interrupt>
      66:	00 00       	nop
      68:	05 c1       	rjmp	.+522    	; 0x274 <__bad_interrupt>
      6a:	00 00       	nop
      6c:	03 c1       	rjmp	.+518    	; 0x274 <__bad_interrupt>
      6e:	00 00       	nop
      70:	01 c1       	rjmp	.+514    	; 0x274 <__bad_interrupt>
      72:	00 00       	nop
      74:	ff c0       	rjmp	.+510    	; 0x274 <__bad_interrupt>
      76:	00 00       	nop
      78:	fd c0       	rjmp	.+506    	; 0x274 <__bad_interrupt>
      7a:	00 00       	nop
      7c:	fb c0       	rjmp	.+502    	; 0x274 <__bad_interrupt>
      7e:	00 00       	nop
      80:	d0 c1       	rjmp	.+928    	; 0x422 <__vector_32>
      82:	00 00       	nop
      84:	f7 c0       	rjmp	.+494    	; 0x274 <__bad_interrupt>
      86:	00 00       	nop
      88:	f5 c0       	rjmp	.+490    	; 0x274 <__bad_interrupt>
      8a:	00 00       	nop
      8c:	f3 c0       	rjmp	.+486    	; 0x274 <__bad_interrupt>
      8e:	00 00       	nop
      90:	f1 c0       	rjmp	.+482    	; 0x274 <__bad_interrupt>
      92:	00 00       	nop
      94:	ef c0       	rjmp	.+478    	; 0x274 <__bad_interrupt>
      96:	00 00       	nop
      98:	ed c0       	rjmp	.+474    	; 0x274 <__bad_interrupt>
      9a:	00 00       	nop
      9c:	eb c0       	rjmp	.+470    	; 0x274 <__bad_interrupt>
      9e:	00 00       	nop
      a0:	e9 c0       	rjmp	.+466    	; 0x274 <__bad_interrupt>
      a2:	00 00       	nop
      a4:	e7 c0       	rjmp	.+462    	; 0x274 <__bad_interrupt>
      a6:	00 00       	nop
      a8:	e5 c0       	rjmp	.+458    	; 0x274 <__bad_interrupt>
	...

000000ac <ProductString>:
      ac:	1c 03 4c 00 55 00 46 00 41 00 20 00 43 00 44 00     ..L.U.F.A. .C.D.
      bc:	43 00 20 00 44 00 65 00 6d 00 6f 00 00 00           C. .D.e.m.o...

000000ca <ManufacturerString>:
      ca:	18 03 44 00 65 00 61 00 6e 00 20 00 43 00 61 00     ..D.e.a.n. .C.a.
      da:	6d 00 65 00 72 00 61 00 00 00                       m.e.r.a...

000000e4 <LanguageString>:
      e4:	04 03 09 04                                         ....

000000e8 <ConfigurationDescriptor>:
      e8:	09 02 3e 00 02 01 00 c0 32 09 04 00 00 01 02 02     ..>.....2.......
      f8:	01 00 05 24 00 10 01 04 24 02 06 05 24 06 00 01     ...$....$...$...
     108:	07 05 82 03 08 00 ff 09 04 01 00 02 0a 00 00 00     ................
     118:	07 05 04 02 10 00 05 07 05 83 02 10 00 05           ..............

00000126 <DeviceDescriptor>:
     126:	12 01 10 01 02 00 00 08 eb 03 44 20 01 00 01 02     ..........D ....
     136:	dc 01                                               ..

00000138 <__c.2161>:
     138:	6e 61 6e 00                                         nan.

0000013c <__c.2159>:
     13c:	69 6e 66 00 00 40 7a 10 f3 5a 00 a0 72 4e 18 09     inf..@z..Z..rN..
     14c:	00 10 a5 d4 e8 00 00 e8 76 48 17 00 00 e4 0b 54     ........vH.....T
     15c:	02 00 00 ca 9a 3b 00 00 00 e1 f5 05 00 00 80 96     .....;..........
     16c:	98 00 00 00 40 42 0f 00 00 00 a0 86 01 00 00 00     ....@B..........
     17c:	10 27 00 00 00 00 e8 03 00 00 00 00 64 00 00 00     .'..........d...
     18c:	00 00 0a 00 00 00 00 00 01 00 00 00 00 00 2c 76     ..............,v
     19c:	d8 88 dc 67 4f 08 23 df c1 df ae 59 e1 b1 b7 96     ...gO.#....Y....
     1ac:	e5 e3 e4 53 c6 3a e6 51 99 76 96 e8 e6 c2 84 26     ...S.:.Q.v.....&
     1bc:	eb 89 8c 9b 62 ed 40 7c 6f fc ef bc 9c 9f 40 f2     ....b.@|o.....@.
     1cc:	ba a5 6f a5 f4 90 05 5a 2a f7 5c 93 6b 6c f9 67     ..o....Z*.\.kl.g
     1dc:	6d c1 1b fc e0 e4 0d 47 fe f5 20 e6 b5 00 d0 ed     m......G.. .....
     1ec:	90 2e 03 00 94 35 77 05 00 80 84 1e 08 00 00 20     .....5w........ 
     1fc:	4e 0a 00 00 00 c8 0c 33 33 33 33 0f 98 6e 12 83     N......3333..n..
     20c:	11 41 ef 8d 21 14 89 3b e6 55 16 cf fe e6 db 18     .A..!..;.U......
     21c:	d1 84 4b 38 1b f7 7c 1d 90 1d a4 bb e4 24 20 32     ..K8..|......$ 2
     22c:	84 72 5e 22 81 00 c9 f1 24 ec a1 e5 3d 27           .r^"....$...='

0000023a <__ctors_end>:
     23a:	11 24       	eor	r1, r1
     23c:	1f be       	out	0x3f, r1	; 63
     23e:	cf ef       	ldi	r28, 0xFF	; 255
     240:	da e0       	ldi	r29, 0x0A	; 10
     242:	de bf       	out	0x3e, r29	; 62
     244:	cd bf       	out	0x3d, r28	; 61

00000246 <__do_copy_data>:
     246:	11 e0       	ldi	r17, 0x01	; 1
     248:	a0 e0       	ldi	r26, 0x00	; 0
     24a:	b1 e0       	ldi	r27, 0x01	; 1
     24c:	ee e6       	ldi	r30, 0x6E	; 110
     24e:	f6 e2       	ldi	r31, 0x26	; 38
     250:	02 c0       	rjmp	.+4      	; 0x256 <__do_copy_data+0x10>
     252:	05 90       	lpm	r0, Z+
     254:	0d 92       	st	X+, r0
     256:	a4 36       	cpi	r26, 0x64	; 100
     258:	b1 07       	cpc	r27, r17
     25a:	d9 f7       	brne	.-10     	; 0x252 <__do_copy_data+0xc>

0000025c <__do_clear_bss>:
     25c:	21 e0       	ldi	r18, 0x01	; 1
     25e:	a4 e6       	ldi	r26, 0x64	; 100
     260:	b1 e0       	ldi	r27, 0x01	; 1
     262:	01 c0       	rjmp	.+2      	; 0x266 <.do_clear_bss_start>

00000264 <.do_clear_bss_loop>:
     264:	1d 92       	st	X+, r1

00000266 <.do_clear_bss_start>:
     266:	a3 3b       	cpi	r26, 0xB3	; 179
     268:	b2 07       	cpc	r27, r18
     26a:	e1 f7       	brne	.-8      	; 0x264 <.do_clear_bss_loop>
     26c:	0e 94 4a 0b 	call	0x1694	; 0x1694 <main>
     270:	0c 94 35 13 	jmp	0x266a	; 0x266a <_exit>

00000274 <__bad_interrupt>:
     274:	c5 ce       	rjmp	.-630    	; 0x0 <__vectors>

00000276 <ADC_Init>:

#include "ADC.h"

void ADC_Init(void)
{
	ADMUX = 0b01000001;
     276:	81 e4       	ldi	r24, 0x41	; 65
     278:	80 93 7c 00 	sts	0x007C, r24
	ADCSRA = (1<<ADEN)|(0<<ADSC)|(0<<ADATE)|(0<<ADIE)|(1<<ADPS2)|(1<<ADPS1)|(1<<ADPS0);
     27c:	87 e8       	ldi	r24, 0x87	; 135
     27e:	80 93 7a 00 	sts	0x007A, r24
	ADCSRB |= (1 << MUX5);
     282:	eb e7       	ldi	r30, 0x7B	; 123
     284:	f0 e0       	ldi	r31, 0x00	; 0
     286:	80 81       	ld	r24, Z
     288:	80 62       	ori	r24, 0x20	; 32
     28a:	80 83       	st	Z, r24
     28c:	08 95       	ret

0000028e <buttonHandle>:
			Ok_askedLongPress = true;
			return true;
		}
	}
	return false;
}
     28e:	0f 93       	push	r16
     290:	1f 93       	push	r17
     292:	80 91 76 01 	lds	r24, 0x0176
     296:	88 23       	and	r24, r24
     298:	01 f1       	breq	.+64     	; 0x2da <buttonHandle+0x4c>
     29a:	36 9b       	sbis	0x06, 6	; 6
     29c:	2c c0       	rjmp	.+88     	; 0x2f6 <buttonHandle+0x68>
     29e:	10 92 76 01 	sts	0x0176, r1
     2a2:	fe d0       	rcall	.+508    	; 0x4a0 <millis>
     2a4:	00 91 72 01 	lds	r16, 0x0172
     2a8:	10 91 73 01 	lds	r17, 0x0173
     2ac:	20 91 74 01 	lds	r18, 0x0174
     2b0:	30 91 75 01 	lds	r19, 0x0175
     2b4:	60 1b       	sub	r22, r16
     2b6:	71 0b       	sbc	r23, r17
     2b8:	82 0b       	sbc	r24, r18
     2ba:	93 0b       	sbc	r25, r19
     2bc:	63 53       	subi	r22, 0x33	; 51
     2be:	71 09       	sbc	r23, r1
     2c0:	81 09       	sbc	r24, r1
     2c2:	91 09       	sbc	r25, r1
     2c4:	65 3b       	cpi	r22, 0xB5	; 181
     2c6:	73 40       	sbci	r23, 0x03	; 3
     2c8:	81 05       	cpc	r24, r1
     2ca:	91 05       	cpc	r25, r1
     2cc:	18 f4       	brcc	.+6      	; 0x2d4 <buttonHandle+0x46>
     2ce:	81 e0       	ldi	r24, 0x01	; 1
     2d0:	80 93 78 01 	sts	0x0178, r24
     2d4:	10 92 77 01 	sts	0x0177, r1
     2d8:	0e c0       	rjmp	.+28     	; 0x2f6 <buttonHandle+0x68>
     2da:	36 99       	sbic	0x06, 6	; 6
     2dc:	0c c0       	rjmp	.+24     	; 0x2f6 <buttonHandle+0x68>
     2de:	81 e0       	ldi	r24, 0x01	; 1
     2e0:	80 93 76 01 	sts	0x0176, r24
     2e4:	dd d0       	rcall	.+442    	; 0x4a0 <millis>
     2e6:	60 93 72 01 	sts	0x0172, r22
     2ea:	70 93 73 01 	sts	0x0173, r23
     2ee:	80 93 74 01 	sts	0x0174, r24
     2f2:	90 93 75 01 	sts	0x0175, r25
     2f6:	80 91 6f 01 	lds	r24, 0x016F
     2fa:	88 23       	and	r24, r24
     2fc:	01 f1       	breq	.+64     	; 0x33e <buttonHandle+0xb0>
     2fe:	1e 9b       	sbis	0x03, 6	; 3
     300:	2c c0       	rjmp	.+88     	; 0x35a <buttonHandle+0xcc>
     302:	10 92 6f 01 	sts	0x016F, r1
     306:	cc d0       	rcall	.+408    	; 0x4a0 <millis>
     308:	00 91 6b 01 	lds	r16, 0x016B
     30c:	10 91 6c 01 	lds	r17, 0x016C
     310:	20 91 6d 01 	lds	r18, 0x016D
     314:	30 91 6e 01 	lds	r19, 0x016E
     318:	60 1b       	sub	r22, r16
     31a:	71 0b       	sbc	r23, r17
     31c:	82 0b       	sbc	r24, r18
     31e:	93 0b       	sbc	r25, r19
     320:	63 53       	subi	r22, 0x33	; 51
     322:	71 09       	sbc	r23, r1
     324:	81 09       	sbc	r24, r1
     326:	91 09       	sbc	r25, r1
     328:	65 3b       	cpi	r22, 0xB5	; 181
     32a:	73 40       	sbci	r23, 0x03	; 3
     32c:	81 05       	cpc	r24, r1
     32e:	91 05       	cpc	r25, r1
     330:	18 f4       	brcc	.+6      	; 0x338 <buttonHandle+0xaa>
     332:	81 e0       	ldi	r24, 0x01	; 1
     334:	80 93 71 01 	sts	0x0171, r24
     338:	10 92 70 01 	sts	0x0170, r1
     33c:	0e c0       	rjmp	.+28     	; 0x35a <buttonHandle+0xcc>
     33e:	1e 99       	sbic	0x03, 6	; 3
     340:	0c c0       	rjmp	.+24     	; 0x35a <buttonHandle+0xcc>
     342:	81 e0       	ldi	r24, 0x01	; 1
     344:	80 93 6f 01 	sts	0x016F, r24
     348:	ab d0       	rcall	.+342    	; 0x4a0 <millis>
     34a:	60 93 6b 01 	sts	0x016B, r22
     34e:	70 93 6c 01 	sts	0x016C, r23
     352:	80 93 6d 01 	sts	0x016D, r24
     356:	90 93 6e 01 	sts	0x016E, r25
     35a:	80 91 68 01 	lds	r24, 0x0168
     35e:	88 23       	and	r24, r24
     360:	01 f1       	breq	.+64     	; 0x3a2 <buttonHandle+0x114>
     362:	37 9b       	sbis	0x06, 7	; 6
     364:	2c c0       	rjmp	.+88     	; 0x3be <buttonHandle+0x130>
     366:	10 92 68 01 	sts	0x0168, r1
     36a:	9a d0       	rcall	.+308    	; 0x4a0 <millis>
     36c:	00 91 64 01 	lds	r16, 0x0164
     370:	10 91 65 01 	lds	r17, 0x0165
     374:	20 91 66 01 	lds	r18, 0x0166
     378:	30 91 67 01 	lds	r19, 0x0167
     37c:	60 1b       	sub	r22, r16
     37e:	71 0b       	sbc	r23, r17
     380:	82 0b       	sbc	r24, r18
     382:	93 0b       	sbc	r25, r19
     384:	63 53       	subi	r22, 0x33	; 51
     386:	71 09       	sbc	r23, r1
     388:	81 09       	sbc	r24, r1
     38a:	91 09       	sbc	r25, r1
     38c:	65 3b       	cpi	r22, 0xB5	; 181
     38e:	73 40       	sbci	r23, 0x03	; 3
     390:	81 05       	cpc	r24, r1
     392:	91 05       	cpc	r25, r1
     394:	18 f4       	brcc	.+6      	; 0x39c <buttonHandle+0x10e>
     396:	81 e0       	ldi	r24, 0x01	; 1
     398:	80 93 6a 01 	sts	0x016A, r24
     39c:	10 92 69 01 	sts	0x0169, r1
     3a0:	0e c0       	rjmp	.+28     	; 0x3be <buttonHandle+0x130>
     3a2:	37 99       	sbic	0x06, 7	; 6
     3a4:	0c c0       	rjmp	.+24     	; 0x3be <buttonHandle+0x130>
     3a6:	81 e0       	ldi	r24, 0x01	; 1
     3a8:	80 93 68 01 	sts	0x0168, r24
     3ac:	79 d0       	rcall	.+242    	; 0x4a0 <millis>
     3ae:	60 93 64 01 	sts	0x0164, r22
     3b2:	70 93 65 01 	sts	0x0165, r23
     3b6:	80 93 66 01 	sts	0x0166, r24
     3ba:	90 93 67 01 	sts	0x0167, r25
     3be:	1f 91       	pop	r17
     3c0:	0f 91       	pop	r16
     3c2:	08 95       	ret

000003c4 <Plus_isShortPress>:
     3c4:	80 91 78 01 	lds	r24, 0x0178
     3c8:	88 23       	and	r24, r24
     3ca:	21 f0       	breq	.+8      	; 0x3d4 <Plus_isShortPress+0x10>
     3cc:	10 92 78 01 	sts	0x0178, r1
     3d0:	81 e0       	ldi	r24, 0x01	; 1
     3d2:	08 95       	ret
     3d4:	80 e0       	ldi	r24, 0x00	; 0
     3d6:	08 95       	ret

000003d8 <Ok_isShortPress>:
bool Ok_isShortPress(){
	if(Ok_shortPress){
     3d8:	80 91 6a 01 	lds	r24, 0x016A
     3dc:	88 23       	and	r24, r24
     3de:	21 f0       	breq	.+8      	; 0x3e8 <Ok_isShortPress+0x10>
		Ok_shortPress = false;
     3e0:	10 92 6a 01 	sts	0x016A, r1
		return true;
     3e4:	81 e0       	ldi	r24, 0x01	; 1
     3e6:	08 95       	ret
	}
	return false;
     3e8:	80 e0       	ldi	r24, 0x00	; 0
}
     3ea:	08 95       	ret

000003ec <Plus_clearPress>:

void Plus_clearPress(){
	Plus_shortPress = false;
     3ec:	10 92 78 01 	sts	0x0178, r1
     3f0:	08 95       	ret

000003f2 <Minus_clearPress>:
}

void Minus_clearPress(){
	Minus_shortPress = false;
     3f2:	10 92 71 01 	sts	0x0171, r1
     3f6:	08 95       	ret

000003f8 <Ok_clearPress>:
}

void Ok_clearPress(){
	Ok_shortPress = false;
     3f8:	10 92 6a 01 	sts	0x016A, r1
     3fc:	08 95       	ret

000003fe <clock_init>:
#include "clock.h"
static volatile int64_t microtime =0;
void clock_init(){
	//TODO: this might slow down, due to the fact that each 256 instruction we run interrupt
    sbi(TCCR3B, _BV(CS30));    
     3fe:	e1 e9       	ldi	r30, 0x91	; 145
     400:	f0 e0       	ldi	r31, 0x00	; 0
     402:	80 81       	ld	r24, Z
     404:	82 60       	ori	r24, 0x02	; 2
     406:	80 83       	st	Z, r24
    sbi(TIMSK3, _BV(OCIE3A));
     408:	e1 e7       	ldi	r30, 0x71	; 113
     40a:	f0 e0       	ldi	r31, 0x00	; 0
     40c:	80 81       	ld	r24, Z
     40e:	84 60       	ori	r24, 0x04	; 4
     410:	80 83       	st	Z, r24
	OCR3A = 16;
     412:	80 e1       	ldi	r24, 0x10	; 16
     414:	90 e0       	ldi	r25, 0x00	; 0
     416:	90 93 99 00 	sts	0x0099, r25
     41a:	80 93 98 00 	sts	0x0098, r24
    sei();
     41e:	78 94       	sei
     420:	08 95       	ret

00000422 <__vector_32>:
}

ISR(TIMER3_COMPA_vect){
     422:	1f 92       	push	r1
     424:	0f 92       	push	r0
     426:	0f b6       	in	r0, 0x3f	; 63
     428:	0f 92       	push	r0
     42a:	11 24       	eor	r1, r1
     42c:	2f 93       	push	r18
     42e:	3f 93       	push	r19
     430:	4f 93       	push	r20
     432:	5f 93       	push	r21
     434:	6f 93       	push	r22
     436:	7f 93       	push	r23
     438:	8f 93       	push	r24
     43a:	9f 93       	push	r25
     43c:	af 93       	push	r26
    microtime+=1;
     43e:	20 91 79 01 	lds	r18, 0x0179
     442:	30 91 7a 01 	lds	r19, 0x017A
     446:	40 91 7b 01 	lds	r20, 0x017B
     44a:	50 91 7c 01 	lds	r21, 0x017C
     44e:	60 91 7d 01 	lds	r22, 0x017D
     452:	70 91 7e 01 	lds	r23, 0x017E
     456:	80 91 7f 01 	lds	r24, 0x017F
     45a:	90 91 80 01 	lds	r25, 0x0180
     45e:	a1 e0       	ldi	r26, 0x01	; 1
     460:	0e 94 8c 11 	call	0x2318	; 0x2318 <__adddi3_s8>
     464:	20 93 79 01 	sts	0x0179, r18
     468:	30 93 7a 01 	sts	0x017A, r19
     46c:	40 93 7b 01 	sts	0x017B, r20
     470:	50 93 7c 01 	sts	0x017C, r21
     474:	60 93 7d 01 	sts	0x017D, r22
     478:	70 93 7e 01 	sts	0x017E, r23
     47c:	80 93 7f 01 	sts	0x017F, r24
     480:	90 93 80 01 	sts	0x0180, r25
}
     484:	af 91       	pop	r26
     486:	9f 91       	pop	r25
     488:	8f 91       	pop	r24
     48a:	7f 91       	pop	r23
     48c:	6f 91       	pop	r22
     48e:	5f 91       	pop	r21
     490:	4f 91       	pop	r20
     492:	3f 91       	pop	r19
     494:	2f 91       	pop	r18
     496:	0f 90       	pop	r0
     498:	0f be       	out	0x3f, r0	; 63
     49a:	0f 90       	pop	r0
     49c:	1f 90       	pop	r1
     49e:	18 95       	reti

000004a0 <millis>:

int32_t millis(){
     4a0:	af 92       	push	r10
     4a2:	bf 92       	push	r11
     4a4:	cf 92       	push	r12
     4a6:	df 92       	push	r13
     4a8:	ef 92       	push	r14
     4aa:	ff 92       	push	r15
     4ac:	0f 93       	push	r16
     4ae:	1f 93       	push	r17
    return microtime/1000;
     4b0:	20 91 79 01 	lds	r18, 0x0179
     4b4:	30 91 7a 01 	lds	r19, 0x017A
     4b8:	40 91 7b 01 	lds	r20, 0x017B
     4bc:	50 91 7c 01 	lds	r21, 0x017C
     4c0:	60 91 7d 01 	lds	r22, 0x017D
     4c4:	70 91 7e 01 	lds	r23, 0x017E
     4c8:	80 91 7f 01 	lds	r24, 0x017F
     4cc:	90 91 80 01 	lds	r25, 0x0180
     4d0:	e8 ee       	ldi	r30, 0xE8	; 232
     4d2:	ae 2e       	mov	r10, r30
     4d4:	f3 e0       	ldi	r31, 0x03	; 3
     4d6:	bf 2e       	mov	r11, r31
     4d8:	c1 2c       	mov	r12, r1
     4da:	d1 2c       	mov	r13, r1
     4dc:	e1 2c       	mov	r14, r1
     4de:	f1 2c       	mov	r15, r1
     4e0:	00 e0       	ldi	r16, 0x00	; 0
     4e2:	10 e0       	ldi	r17, 0x00	; 0
     4e4:	0e 94 be 10 	call	0x217c	; 0x217c <__divdi3>
     4e8:	b9 01       	movw	r22, r18
     4ea:	ca 01       	movw	r24, r20
}
     4ec:	1f 91       	pop	r17
     4ee:	0f 91       	pop	r16
     4f0:	ff 90       	pop	r15
     4f2:	ef 90       	pop	r14
     4f4:	df 90       	pop	r13
     4f6:	cf 90       	pop	r12
     4f8:	bf 90       	pop	r11
     4fa:	af 90       	pop	r10
     4fc:	08 95       	ret

000004fe <CALLBACK_USB_GetDescriptor>:
 */
uint16_t CALLBACK_USB_GetDescriptor(const uint16_t wValue,
                                    const uint8_t wIndex,
                                    const void** const DescriptorAddress)
{
	const uint8_t  DescriptorType   = (wValue >> 8);
     4fe:	29 2f       	mov	r18, r25
     500:	33 27       	eor	r19, r19
	const uint8_t  DescriptorNumber = (wValue & 0xFF);

	const void* Address = NULL;
	uint16_t    Size    = NO_DESCRIPTOR;

	switch (DescriptorType)
     502:	22 30       	cpi	r18, 0x02	; 2
     504:	31 05       	cpc	r19, r1
     506:	59 f0       	breq	.+22     	; 0x51e <CALLBACK_USB_GetDescriptor+0x20>
     508:	23 30       	cpi	r18, 0x03	; 3
     50a:	31 05       	cpc	r19, r1
     50c:	69 f0       	breq	.+26     	; 0x528 <CALLBACK_USB_GetDescriptor+0x2a>
     50e:	21 30       	cpi	r18, 0x01	; 1
     510:	31 05       	cpc	r19, r1
     512:	f9 f4       	brne	.+62     	; 0x552 <CALLBACK_USB_GetDescriptor+0x54>
	{
		case DTYPE_Device:
			Address = &DeviceDescriptor;
			Size    = sizeof(USB_Descriptor_Device_t);
     514:	82 e1       	ldi	r24, 0x12	; 18
     516:	90 e0       	ldi	r25, 0x00	; 0
	uint16_t    Size    = NO_DESCRIPTOR;

	switch (DescriptorType)
	{
		case DTYPE_Device:
			Address = &DeviceDescriptor;
     518:	26 e2       	ldi	r18, 0x26	; 38
     51a:	31 e0       	ldi	r19, 0x01	; 1
     51c:	1e c0       	rjmp	.+60     	; 0x55a <CALLBACK_USB_GetDescriptor+0x5c>
			Size    = sizeof(USB_Descriptor_Device_t);
			break;
		case DTYPE_Configuration:
			Address = &ConfigurationDescriptor;
			Size    = sizeof(USB_Descriptor_Configuration_t);
     51e:	8e e3       	ldi	r24, 0x3E	; 62
     520:	90 e0       	ldi	r25, 0x00	; 0
		case DTYPE_Device:
			Address = &DeviceDescriptor;
			Size    = sizeof(USB_Descriptor_Device_t);
			break;
		case DTYPE_Configuration:
			Address = &ConfigurationDescriptor;
     522:	28 ee       	ldi	r18, 0xE8	; 232
     524:	30 e0       	ldi	r19, 0x00	; 0
			Size    = sizeof(USB_Descriptor_Configuration_t);
			break;
     526:	19 c0       	rjmp	.+50     	; 0x55a <CALLBACK_USB_GetDescriptor+0x5c>
     528:	99 27       	eor	r25, r25
		case DTYPE_String:
			switch (DescriptorNumber)
     52a:	81 30       	cpi	r24, 0x01	; 1
     52c:	91 05       	cpc	r25, r1
     52e:	41 f0       	breq	.+16     	; 0x540 <CALLBACK_USB_GetDescriptor+0x42>
     530:	82 30       	cpi	r24, 0x02	; 2
     532:	91 05       	cpc	r25, r1
     534:	41 f0       	breq	.+16     	; 0x546 <CALLBACK_USB_GetDescriptor+0x48>
     536:	89 2b       	or	r24, r25
     538:	61 f4       	brne	.+24     	; 0x552 <CALLBACK_USB_GetDescriptor+0x54>
			{
				case STRING_ID_Language:
					Address = &LanguageString;
					Size    = pgm_read_byte(&LanguageString.Header.Size);
     53a:	e4 ee       	ldi	r30, 0xE4	; 228
     53c:	f0 e0       	ldi	r31, 0x00	; 0
     53e:	05 c0       	rjmp	.+10     	; 0x54a <CALLBACK_USB_GetDescriptor+0x4c>
					break;
				case STRING_ID_Manufacturer:
					Address = &ManufacturerString;
					Size    = pgm_read_byte(&ManufacturerString.Header.Size);
     540:	ea ec       	ldi	r30, 0xCA	; 202
     542:	f0 e0       	ldi	r31, 0x00	; 0
     544:	02 c0       	rjmp	.+4      	; 0x54a <CALLBACK_USB_GetDescriptor+0x4c>
					break;
				case STRING_ID_Product:
					Address = &ProductString;
					Size    = pgm_read_byte(&ProductString.Header.Size);
     546:	ec ea       	ldi	r30, 0xAC	; 172
     548:	f0 e0       	ldi	r31, 0x00	; 0
     54a:	84 91       	lpm	r24, Z
     54c:	90 e0       	ldi	r25, 0x00	; 0
				case STRING_ID_Manufacturer:
					Address = &ManufacturerString;
					Size    = pgm_read_byte(&ManufacturerString.Header.Size);
					break;
				case STRING_ID_Product:
					Address = &ProductString;
     54e:	9f 01       	movw	r18, r30
					Size    = pgm_read_byte(&ProductString.Header.Size);
					break;
     550:	04 c0       	rjmp	.+8      	; 0x55a <CALLBACK_USB_GetDescriptor+0x5c>
{
	const uint8_t  DescriptorType   = (wValue >> 8);
	const uint8_t  DescriptorNumber = (wValue & 0xFF);

	const void* Address = NULL;
	uint16_t    Size    = NO_DESCRIPTOR;
     552:	80 e0       	ldi	r24, 0x00	; 0
     554:	90 e0       	ldi	r25, 0x00	; 0
                                    const void** const DescriptorAddress)
{
	const uint8_t  DescriptorType   = (wValue >> 8);
	const uint8_t  DescriptorNumber = (wValue & 0xFF);

	const void* Address = NULL;
     556:	20 e0       	ldi	r18, 0x00	; 0
     558:	30 e0       	ldi	r19, 0x00	; 0
			}

			break;
	}

	*DescriptorAddress = Address;
     55a:	fa 01       	movw	r30, r20
     55c:	31 83       	std	Z+1, r19	; 0x01
     55e:	20 83       	st	Z, r18
	return Size;
}
     560:	08 95       	ret

00000562 <LCD_CommonFunc>:
INLINE static void LCD_CommonFunc(uint8_t data)
{
#if (LCD_BUS_4_8_BIT == 0) 
  
  uint8_t tmp; 
  tmp = (data & 0xf0);
     562:	98 2f       	mov	r25, r24
     564:	90 7f       	andi	r25, 0xF0	; 240
  LCD_WritePort(LCD_PORT, tmp);
     566:	84 ff       	sbrs	r24, 4
     568:	02 c0       	rjmp	.+4      	; 0x56e <LCD_CommonFunc+0xc>
     56a:	8c 9a       	sbi	0x11, 4	; 17
     56c:	01 c0       	rjmp	.+2      	; 0x570 <LCD_CommonFunc+0xe>
     56e:	8c 98       	cbi	0x11, 4	; 17
     570:	85 ff       	sbrs	r24, 5
     572:	02 c0       	rjmp	.+4      	; 0x578 <LCD_CommonFunc+0x16>
     574:	8d 9a       	sbi	0x11, 5	; 17
     576:	01 c0       	rjmp	.+2      	; 0x57a <LCD_CommonFunc+0x18>
     578:	8d 98       	cbi	0x11, 5	; 17
     57a:	86 ff       	sbrs	r24, 6
     57c:	02 c0       	rjmp	.+4      	; 0x582 <LCD_CommonFunc+0x20>
     57e:	8e 9a       	sbi	0x11, 6	; 17
     580:	01 c0       	rjmp	.+2      	; 0x584 <LCD_CommonFunc+0x22>
     582:	8e 98       	cbi	0x11, 6	; 17
     584:	97 ff       	sbrs	r25, 7
     586:	02 c0       	rjmp	.+4      	; 0x58c <LCD_CommonFunc+0x2a>
     588:	8f 9a       	sbi	0x11, 7	; 17
     58a:	01 c0       	rjmp	.+2      	; 0x58e <LCD_CommonFunc+0x2c>
     58c:	8f 98       	cbi	0x11, 7	; 17
  LCD_SetPin(LCD_EN);
     58e:	89 9a       	sbi	0x11, 1	; 17
	#else
		//round up by default
		__ticks_dc = (uint32_t)(ceil(fabs(__tmp)));
	#endif

	__builtin_avr_delay_cycles(__ticks_dc);
     590:	9a e0       	ldi	r25, 0x0A	; 10
     592:	9a 95       	dec	r25
     594:	f1 f7       	brne	.-4      	; 0x592 <LCD_CommonFunc+0x30>
     596:	00 c0       	rjmp	.+0      	; 0x598 <LCD_CommonFunc+0x36>
  delay_us(LCD_DELAY_STROB);
  LCD_ClearPin(LCD_EN);
     598:	89 98       	cbi	0x11, 1	; 17

  data = __swap_nibbles(data); 
     59a:	82 95       	swap	r24
  tmp = (data & 0xf0);
     59c:	98 2f       	mov	r25, r24
     59e:	90 7f       	andi	r25, 0xF0	; 240
    
  LCD_WritePort(LCD_PORT, tmp);
     5a0:	84 ff       	sbrs	r24, 4
     5a2:	02 c0       	rjmp	.+4      	; 0x5a8 <LCD_CommonFunc+0x46>
     5a4:	8c 9a       	sbi	0x11, 4	; 17
     5a6:	01 c0       	rjmp	.+2      	; 0x5aa <LCD_CommonFunc+0x48>
     5a8:	8c 98       	cbi	0x11, 4	; 17
     5aa:	85 ff       	sbrs	r24, 5
     5ac:	02 c0       	rjmp	.+4      	; 0x5b2 <LCD_CommonFunc+0x50>
     5ae:	8d 9a       	sbi	0x11, 5	; 17
     5b0:	01 c0       	rjmp	.+2      	; 0x5b4 <LCD_CommonFunc+0x52>
     5b2:	8d 98       	cbi	0x11, 5	; 17
     5b4:	86 ff       	sbrs	r24, 6
     5b6:	02 c0       	rjmp	.+4      	; 0x5bc <LCD_CommonFunc+0x5a>
     5b8:	8e 9a       	sbi	0x11, 6	; 17
     5ba:	01 c0       	rjmp	.+2      	; 0x5be <LCD_CommonFunc+0x5c>
     5bc:	8e 98       	cbi	0x11, 6	; 17
     5be:	97 ff       	sbrs	r25, 7
     5c0:	02 c0       	rjmp	.+4      	; 0x5c6 <LCD_CommonFunc+0x64>
     5c2:	8f 9a       	sbi	0x11, 7	; 17
     5c4:	01 c0       	rjmp	.+2      	; 0x5c8 <LCD_CommonFunc+0x66>
     5c6:	8f 98       	cbi	0x11, 7	; 17
  LCD_SetPin(LCD_EN);
     5c8:	89 9a       	sbi	0x11, 1	; 17
     5ca:	8a e0       	ldi	r24, 0x0A	; 10
     5cc:	8a 95       	dec	r24
     5ce:	f1 f7       	brne	.-4      	; 0x5cc <LCD_CommonFunc+0x6a>
     5d0:	00 c0       	rjmp	.+0      	; 0x5d2 <LCD_CommonFunc+0x70>
  delay_us(LCD_DELAY_STROB);
  LCD_ClearPin(LCD_EN);
     5d2:	89 98       	cbi	0x11, 1	; 17
     5d4:	08 95       	ret

000005d6 <LCD_WriteComInit>:
     5d6:	95 ed       	ldi	r25, 0xD5	; 213
     5d8:	9a 95       	dec	r25
     5da:	f1 f7       	brne	.-4      	; 0x5d8 <LCD_WriteComInit+0x2>
     5dc:	00 00       	nop
/*_________________________________________________________________*/

void LCD_WriteComInit(uint8_t data)
{
  delay_us(LCD_DELAY_WAIT);
  LCD_ClearPin(LCD_RS);  
     5de:	88 98       	cbi	0x11, 0	; 17
  
#if (LCD_BUS_4_8_BIT == 0)
  data &= 0xf0;
     5e0:	98 2f       	mov	r25, r24
     5e2:	90 7f       	andi	r25, 0xF0	; 240
#endif
  
  LCD_WritePort(LCD_PORT, data);	
     5e4:	84 ff       	sbrs	r24, 4
     5e6:	02 c0       	rjmp	.+4      	; 0x5ec <LCD_WriteComInit+0x16>
     5e8:	8c 9a       	sbi	0x11, 4	; 17
     5ea:	01 c0       	rjmp	.+2      	; 0x5ee <LCD_WriteComInit+0x18>
     5ec:	8c 98       	cbi	0x11, 4	; 17
     5ee:	85 ff       	sbrs	r24, 5
     5f0:	02 c0       	rjmp	.+4      	; 0x5f6 <LCD_WriteComInit+0x20>
     5f2:	8d 9a       	sbi	0x11, 5	; 17
     5f4:	01 c0       	rjmp	.+2      	; 0x5f8 <LCD_WriteComInit+0x22>
     5f6:	8d 98       	cbi	0x11, 5	; 17
     5f8:	86 ff       	sbrs	r24, 6
     5fa:	02 c0       	rjmp	.+4      	; 0x600 <LCD_WriteComInit+0x2a>
     5fc:	8e 9a       	sbi	0x11, 6	; 17
     5fe:	01 c0       	rjmp	.+2      	; 0x602 <LCD_WriteComInit+0x2c>
     600:	8e 98       	cbi	0x11, 6	; 17
     602:	97 ff       	sbrs	r25, 7
     604:	02 c0       	rjmp	.+4      	; 0x60a <LCD_WriteComInit+0x34>
     606:	8f 9a       	sbi	0x11, 7	; 17
     608:	01 c0       	rjmp	.+2      	; 0x60c <LCD_WriteComInit+0x36>
     60a:	8f 98       	cbi	0x11, 7	; 17
  LCD_SetPin(LCD_EN);
     60c:	89 9a       	sbi	0x11, 1	; 17
     60e:	8a e0       	ldi	r24, 0x0A	; 10
     610:	8a 95       	dec	r24
     612:	f1 f7       	brne	.-4      	; 0x610 <LCD_WriteComInit+0x3a>
     614:	00 c0       	rjmp	.+0      	; 0x616 <LCD_WriteComInit+0x40>
  delay_us(LCD_DELAY_STROB);
  LCD_ClearPin(LCD_EN);
     616:	89 98       	cbi	0x11, 1	; 17
     618:	08 95       	ret

0000061a <LCD_WriteCom>:
     61a:	95 ed       	ldi	r25, 0xD5	; 213
     61c:	9a 95       	dec	r25
     61e:	f1 f7       	brne	.-4      	; 0x61c <LCD_WriteCom+0x2>
     620:	00 00       	nop

/*функция записи команды*/
void LCD_WriteCom(uint8_t data)
{
  LCD_Wait();
  LCD_ClearPin(LCD_RS);	
     622:	88 98       	cbi	0x11, 0	; 17
  LCD_CommonFunc(data);
     624:	9e cf       	rjmp	.-196    	; 0x562 <LCD_CommonFunc>

00000626 <LCD_WriteData>:
     626:	95 ed       	ldi	r25, 0xD5	; 213
     628:	9a 95       	dec	r25
     62a:	f1 f7       	brne	.-4      	; 0x628 <LCD_WriteData+0x2>
     62c:	00 00       	nop

/*функция записи данных*/
void LCD_WriteData(char data)
{
  LCD_Wait();
  LCD_SetPin(LCD_RS);	    
     62e:	88 9a       	sbi	0x11, 0	; 17
  LCD_CommonFunc(data);
     630:	98 cf       	rjmp	.-208    	; 0x562 <LCD_CommonFunc>

00000632 <LCD_Init>:
}

/*функция инициализации*/
void LCD_Init(void)
{
  LCD_DirPort(LCD_PORT, 0xff);
     632:	84 9a       	sbi	0x10, 4	; 16
     634:	85 9a       	sbi	0x10, 5	; 16
     636:	86 9a       	sbi	0x10, 6	; 16
     638:	87 9a       	sbi	0x10, 7	; 16
  LCD_DirPin(LCD_RS, _OUT);
     63a:	80 9a       	sbi	0x10, 0	; 16
  LCD_DirPin(LCD_RW, _OUT);  
  LCD_DirPin(LCD_EN, _OUT);
     63c:	81 9a       	sbi	0x10, 1	; 16
	#else
		//round up by default
		__ticks_dc = (uint32_t)(ceil(fabs(__tmp)));
	#endif

	__builtin_avr_delay_cycles(__ticks_dc);
     63e:	2f ef       	ldi	r18, 0xFF	; 255
     640:	83 ef       	ldi	r24, 0xF3	; 243
     642:	91 e0       	ldi	r25, 0x01	; 1
     644:	21 50       	subi	r18, 0x01	; 1
     646:	80 40       	sbci	r24, 0x00	; 0
     648:	90 40       	sbci	r25, 0x00	; 0
     64a:	e1 f7       	brne	.-8      	; 0x644 <LCD_Init+0x12>
     64c:	00 c0       	rjmp	.+0      	; 0x64e <LCD_Init+0x1c>
     64e:	00 00       	nop
  
  delay_ms(40);
  
  LCD_WriteComInit(LCD_COM_INIT_1); 
     650:	80 e3       	ldi	r24, 0x30	; 48
     652:	c1 df       	rcall	.-126    	; 0x5d6 <LCD_WriteComInit>
     654:	8f e3       	ldi	r24, 0x3F	; 63
     656:	9c e9       	ldi	r25, 0x9C	; 156
     658:	01 97       	sbiw	r24, 0x01	; 1
     65a:	f1 f7       	brne	.-4      	; 0x658 <LCD_Init+0x26>
     65c:	00 c0       	rjmp	.+0      	; 0x65e <LCD_Init+0x2c>
     65e:	00 00       	nop
  delay_ms(10);
  LCD_WriteComInit(LCD_COM_INIT_1);
     660:	80 e3       	ldi	r24, 0x30	; 48
     662:	b9 df       	rcall	.-142    	; 0x5d6 <LCD_WriteComInit>
     664:	8f e3       	ldi	r24, 0x3F	; 63
     666:	9f e1       	ldi	r25, 0x1F	; 31
     668:	01 97       	sbiw	r24, 0x01	; 1
     66a:	f1 f7       	brne	.-4      	; 0x668 <LCD_Init+0x36>
     66c:	00 c0       	rjmp	.+0      	; 0x66e <LCD_Init+0x3c>
     66e:	00 00       	nop
  delay_ms(2);
  LCD_WriteComInit(LCD_COM_INIT_1);
     670:	80 e3       	ldi	r24, 0x30	; 48
     672:	b1 df       	rcall	.-158    	; 0x5d6 <LCD_WriteComInit>
  
#if (LCD_BUS_4_8_BIT == 0) 
  LCD_WriteComInit(LCD_COM_FUNCTION_SET);
     674:	88 e2       	ldi	r24, 0x28	; 40
     676:	af df       	rcall	.-162    	; 0x5d6 <LCD_WriteComInit>
#endif

  LCD_WriteCom(LCD_COM_FUNCTION_SET);
     678:	88 e2       	ldi	r24, 0x28	; 40
     67a:	cf df       	rcall	.-98     	; 0x61a <LCD_WriteCom>
  LCD_WriteCom(LCD_COM_DISPLAY_CONTR);  
     67c:	8c e0       	ldi	r24, 0x0C	; 12
     67e:	cd df       	rcall	.-102    	; 0x61a <LCD_WriteCom>
  LCD_WriteCom(LCD_CLEAR_DISPLAY);  
     680:	81 e0       	ldi	r24, 0x01	; 1
     682:	cb df       	rcall	.-106    	; 0x61a <LCD_WriteCom>
     684:	8f e3       	ldi	r24, 0x3F	; 63
     686:	9f e1       	ldi	r25, 0x1F	; 31
     688:	01 97       	sbiw	r24, 0x01	; 1
     68a:	f1 f7       	brne	.-4      	; 0x688 <LCD_Init+0x56>
     68c:	00 c0       	rjmp	.+0      	; 0x68e <LCD_Init+0x5c>
     68e:	00 00       	nop
  delay_ms(2);
  LCD_WriteCom(LCD_COM_ENTRY_MODE_SET); 
     690:	86 e0       	ldi	r24, 0x06	; 6
     692:	c3 cf       	rjmp	.-122    	; 0x61a <LCD_WriteCom>

00000694 <LCD_SendStr>:
  
}

/*функция вывда строки из ОЗУ*/
void LCD_SendStr(char *str)
{
     694:	ff 92       	push	r15
     696:	0f 93       	push	r16
     698:	1f 93       	push	r17
     69a:	cf 93       	push	r28
     69c:	df 93       	push	r29
     69e:	f8 2e       	mov	r15, r24
  uint8_t data;
  #if (LCD_ONE_LINE == 1)
  uint8_t i = 0;
   while (*str){
     6a0:	ec 01       	movw	r28, r24
     6a2:	8e 01       	movw	r16, r28
     6a4:	88 81       	ld	r24, Y
     6a6:	88 23       	and	r24, r24
     6a8:	59 f0       	breq	.+22     	; 0x6c0 <LCD_SendStr+0x2c>
     6aa:	8c 2f       	mov	r24, r28
     6ac:	8f 19       	sub	r24, r15
	   if (i == 8)
     6ae:	88 30       	cpi	r24, 0x08	; 8
     6b0:	11 f4       	brne	.+4      	; 0x6b6 <LCD_SendStr+0x22>
	   {
		   LCD_Goto(0,1);
     6b2:	80 ec       	ldi	r24, 0xC0	; 192
     6b4:	b2 df       	rcall	.-156    	; 0x61a <LCD_WriteCom>
     6b6:	21 96       	adiw	r28, 0x01	; 1
	   }
	   data =  *str++;
	   i++;
	   LCD_WriteData(data);
     6b8:	f8 01       	movw	r30, r16
     6ba:	80 81       	ld	r24, Z
     6bc:	b4 df       	rcall	.-152    	; 0x626 <LCD_WriteData>
     6be:	f1 cf       	rjmp	.-30     	; 0x6a2 <LCD_SendStr+0xe>
  while (*str){
    data =  *str++;
    LCD_WriteData(data);
  }
  #endif
}
     6c0:	df 91       	pop	r29
     6c2:	cf 91       	pop	r28
     6c4:	1f 91       	pop	r17
     6c6:	0f 91       	pop	r16
     6c8:	ff 90       	pop	r15
     6ca:	08 95       	ret

000006cc <middle_of_3>:

uint16_t middle_of_3(uint16_t a, uint16_t b, uint16_t c)
{
	uint16_t middle;
	
	if ((a <= b) && (a <= c)){
     6cc:	68 17       	cp	r22, r24
     6ce:	79 07       	cpc	r23, r25
     6d0:	28 f0       	brcs	.+10     	; 0x6dc <middle_of_3+0x10>
     6d2:	48 17       	cp	r20, r24
     6d4:	59 07       	cpc	r21, r25
     6d6:	10 f0       	brcs	.+4      	; 0x6dc <middle_of_3+0x10>
		middle = (b <= c) ? b : c;
     6d8:	cb 01       	movw	r24, r22
     6da:	06 c0       	rjmp	.+12     	; 0x6e8 <middle_of_3+0x1c>
	}
	else{
		if ((b <= a) && (b <= c)){
     6dc:	86 17       	cp	r24, r22
     6de:	97 07       	cpc	r25, r23
     6e0:	40 f0       	brcs	.+16     	; 0x6f2 <middle_of_3+0x26>
     6e2:	46 17       	cp	r20, r22
     6e4:	57 07       	cpc	r21, r23
     6e6:	28 f0       	brcs	.+10     	; 0x6f2 <middle_of_3+0x26>
			middle = (a <= c) ? a : c;
     6e8:	48 17       	cp	r20, r24
     6ea:	59 07       	cpc	r21, r25
     6ec:	30 f4       	brcc	.+12     	; 0x6fa <middle_of_3+0x2e>
     6ee:	ca 01       	movw	r24, r20
     6f0:	08 95       	ret
		}
		else{
			middle = (a <= b) ? a : b;
     6f2:	68 17       	cp	r22, r24
     6f4:	79 07       	cpc	r23, r25
     6f6:	08 f4       	brcc	.+2      	; 0x6fa <middle_of_3+0x2e>
     6f8:	cb 01       	movw	r24, r22
		}
	}
	
	return middle;
}
     6fa:	08 95       	ret

000006fc <pressure_midle>:

uint16_t pressure_midle ()
{
     6fc:	cf 92       	push	r12
     6fe:	df 92       	push	r13
     700:	ef 92       	push	r14
     702:	ff 92       	push	r15
     704:	0f 93       	push	r16
     706:	1f 93       	push	r17
     708:	cf 93       	push	r28
     70a:	df 93       	push	r29
     70c:	cd b7       	in	r28, 0x3d	; 61
     70e:	de b7       	in	r29, 0x3e	; 62
     710:	2c 97       	sbiw	r28, 0x0c	; 12
     712:	0f b6       	in	r0, 0x3f	; 63
     714:	f8 94       	cli
     716:	de bf       	out	0x3e, r29	; 62
     718:	0f be       	out	0x3f, r0	; 63
     71a:	cd bf       	out	0x3d, r28	; 61
     71c:	8e 01       	movw	r16, r28
     71e:	0f 5f       	subi	r16, 0xFF	; 255
     720:	1f 4f       	sbci	r17, 0xFF	; 255
     722:	7e 01       	movw	r14, r28
     724:	87 e0       	ldi	r24, 0x07	; 7
     726:	e8 0e       	add	r14, r24
     728:	f1 1c       	adc	r15, r1
     72a:	6e 01       	movw	r12, r28
     72c:	ed e0       	ldi	r30, 0x0D	; 13
     72e:	ce 0e       	add	r12, r30
     730:	d1 1c       	adc	r13, r1
     732:	f7 01       	movw	r30, r14
	for (uint8_t i = 0; i<3;i++)
	{
		
		for (uint8_t i = 0; i<3;i++)
		{
			StartConvAdc();
     734:	80 91 7a 00 	lds	r24, 0x007A
     738:	80 64       	ori	r24, 0x40	; 64
     73a:	80 93 7a 00 	sts	0x007A, r24
			while (bit_is_set(ADCSRA, ADSC));
     73e:	80 91 7a 00 	lds	r24, 0x007A
     742:	86 fd       	sbrc	r24, 6
     744:	fc cf       	rjmp	.-8      	; 0x73e <pressure_midle+0x42>
			uint8_t low  = ADCL;
     746:	80 91 78 00 	lds	r24, 0x0078
			uint8_t high = ADCH;
     74a:	20 91 79 00 	lds	r18, 0x0079
			pressure1[i] = ((uint16_t)low)|((uint16_t)high<<8);
     74e:	90 e0       	ldi	r25, 0x00	; 0
     750:	92 2b       	or	r25, r18
     752:	81 93       	st	Z+, r24
     754:	91 93       	st	Z+, r25
	uint16_t pressure2[3];
	uint16_t pressure_mid;
	for (uint8_t i = 0; i<3;i++)
	{
		
		for (uint8_t i = 0; i<3;i++)
     756:	ec 15       	cp	r30, r12
     758:	fd 05       	cpc	r31, r13
     75a:	61 f7       	brne	.-40     	; 0x734 <pressure_midle+0x38>
			while (bit_is_set(ADCSRA, ADSC));
			uint8_t low  = ADCL;
			uint8_t high = ADCH;
			pressure1[i] = ((uint16_t)low)|((uint16_t)high<<8);
		}
		pressure2[i] = middle_of_3(pressure1[0],pressure1[1],pressure1[2]);
     75c:	4b 85       	ldd	r20, Y+11	; 0x0b
     75e:	5c 85       	ldd	r21, Y+12	; 0x0c
     760:	69 85       	ldd	r22, Y+9	; 0x09
     762:	7a 85       	ldd	r23, Y+10	; 0x0a
     764:	8f 81       	ldd	r24, Y+7	; 0x07
     766:	98 85       	ldd	r25, Y+8	; 0x08
     768:	b1 df       	rcall	.-158    	; 0x6cc <middle_of_3>
     76a:	f8 01       	movw	r30, r16
     76c:	81 93       	st	Z+, r24
     76e:	91 93       	st	Z+, r25
     770:	8f 01       	movw	r16, r30
uint16_t pressure_midle ()
{
	uint16_t pressure1[3];
	uint16_t pressure2[3];
	uint16_t pressure_mid;
	for (uint8_t i = 0; i<3;i++)
     772:	ee 15       	cp	r30, r14
     774:	ff 05       	cpc	r31, r15
     776:	e9 f6       	brne	.-70     	; 0x732 <pressure_midle+0x36>
			uint8_t high = ADCH;
			pressure1[i] = ((uint16_t)low)|((uint16_t)high<<8);
		}
		pressure2[i] = middle_of_3(pressure1[0],pressure1[1],pressure1[2]);
	}
	return pressure_mid = middle_of_3(pressure2[0],pressure2[1],pressure2[2]);
     778:	4d 81       	ldd	r20, Y+5	; 0x05
     77a:	5e 81       	ldd	r21, Y+6	; 0x06
     77c:	6b 81       	ldd	r22, Y+3	; 0x03
     77e:	7c 81       	ldd	r23, Y+4	; 0x04
     780:	89 81       	ldd	r24, Y+1	; 0x01
     782:	9a 81       	ldd	r25, Y+2	; 0x02
}
     784:	2c 96       	adiw	r28, 0x0c	; 12
     786:	0f b6       	in	r0, 0x3f	; 63
     788:	f8 94       	cli
     78a:	de bf       	out	0x3e, r29	; 62
     78c:	0f be       	out	0x3f, r0	; 63
     78e:	cd bf       	out	0x3d, r28	; 61
     790:	df 91       	pop	r29
     792:	cf 91       	pop	r28
     794:	1f 91       	pop	r17
     796:	0f 91       	pop	r16
     798:	ff 90       	pop	r15
     79a:	ef 90       	pop	r14
     79c:	df 90       	pop	r13
     79e:	cf 90       	pop	r12
			uint8_t high = ADCH;
			pressure1[i] = ((uint16_t)low)|((uint16_t)high<<8);
		}
		pressure2[i] = middle_of_3(pressure1[0],pressure1[1],pressure1[2]);
	}
	return pressure_mid = middle_of_3(pressure2[0],pressure2[1],pressure2[2]);
     7a0:	95 cf       	rjmp	.-214    	; 0x6cc <middle_of_3>

000007a2 <CDC_Device_ConfigureEndpoints>:

void CDC_Device_CreateBlockingStream(USB_ClassInfo_CDC_Device_t* const CDCInterfaceInfo,
                                     FILE* const Stream)
{
	*Stream = (FILE)FDEV_SETUP_STREAM(CDC_Device_putchar, CDC_Device_getchar_Blocking, _FDEV_SETUP_RW);
	fdev_set_udata(Stream, CDCInterfaceInfo);
     7a2:	cf 93       	push	r28
     7a4:	df 93       	push	r29
     7a6:	ec 01       	movw	r28, r24
     7a8:	fc 01       	movw	r30, r24
     7aa:	70 96       	adiw	r30, 0x10	; 16
     7ac:	8b e0       	ldi	r24, 0x0B	; 11
     7ae:	df 01       	movw	r26, r30
     7b0:	1d 92       	st	X+, r1
     7b2:	8a 95       	dec	r24
     7b4:	e9 f7       	brne	.-6      	; 0x7b0 <CDC_Device_ConfigureEndpoints+0xe>
     7b6:	82 e0       	ldi	r24, 0x02	; 2
     7b8:	8c 83       	std	Y+4, r24	; 0x04
     7ba:	89 87       	std	Y+9, r24	; 0x09
     7bc:	83 e0       	ldi	r24, 0x03	; 3
     7be:	8e 87       	std	Y+14, r24	; 0x0e
     7c0:	61 e0       	ldi	r22, 0x01	; 1
     7c2:	ce 01       	movw	r24, r28
     7c4:	01 96       	adiw	r24, 0x01	; 1
     7c6:	ef d2       	rcall	.+1502   	; 0xda6 <Endpoint_ConfigureEndpointTable>
     7c8:	88 23       	and	r24, r24
     7ca:	61 f0       	breq	.+24     	; 0x7e4 <CDC_Device_ConfigureEndpoints+0x42>
     7cc:	61 e0       	ldi	r22, 0x01	; 1
     7ce:	ce 01       	movw	r24, r28
     7d0:	06 96       	adiw	r24, 0x06	; 6
     7d2:	e9 d2       	rcall	.+1490   	; 0xda6 <Endpoint_ConfigureEndpointTable>
     7d4:	88 23       	and	r24, r24
     7d6:	31 f0       	breq	.+12     	; 0x7e4 <CDC_Device_ConfigureEndpoints+0x42>
     7d8:	61 e0       	ldi	r22, 0x01	; 1
     7da:	ce 01       	movw	r24, r28
     7dc:	0b 96       	adiw	r24, 0x0b	; 11
     7de:	df 91       	pop	r29
     7e0:	cf 91       	pop	r28
     7e2:	e1 c2       	rjmp	.+1474   	; 0xda6 <Endpoint_ConfigureEndpointTable>
     7e4:	80 e0       	ldi	r24, 0x00	; 0
     7e6:	df 91       	pop	r29
     7e8:	cf 91       	pop	r28
     7ea:	08 95       	ret

000007ec <CDC_Device_SendString>:
     7ec:	db 01       	movw	r26, r22
     7ee:	20 91 a2 01 	lds	r18, 0x01A2
     7f2:	24 30       	cpi	r18, 0x04	; 4
     7f4:	d1 f4       	brne	.+52     	; 0x82a <CDC_Device_SendString+0x3e>
     7f6:	fc 01       	movw	r30, r24
     7f8:	44 89       	ldd	r20, Z+20	; 0x14
     7fa:	55 89       	ldd	r21, Z+21	; 0x15
     7fc:	66 89       	ldd	r22, Z+22	; 0x16
     7fe:	77 89       	ldd	r23, Z+23	; 0x17
     800:	45 2b       	or	r20, r21
     802:	46 2b       	or	r20, r22
     804:	47 2b       	or	r20, r23
     806:	89 f0       	breq	.+34     	; 0x82a <CDC_Device_SendString+0x3e>
     808:	81 81       	ldd	r24, Z+1	; 0x01
     80a:	8f 70       	andi	r24, 0x0F	; 15
     80c:	80 93 e9 00 	sts	0x00E9, r24
     810:	fd 01       	movw	r30, r26
     812:	01 90       	ld	r0, Z+
     814:	00 20       	and	r0, r0
     816:	e9 f7       	brne	.-6      	; 0x812 <CDC_Device_SendString+0x26>
     818:	bf 01       	movw	r22, r30
     81a:	61 50       	subi	r22, 0x01	; 1
     81c:	71 09       	sbc	r23, r1
     81e:	6a 1b       	sub	r22, r26
     820:	7b 0b       	sbc	r23, r27
     822:	40 e0       	ldi	r20, 0x00	; 0
     824:	50 e0       	ldi	r21, 0x00	; 0
     826:	cd 01       	movw	r24, r26
     828:	7f c1       	rjmp	.+766    	; 0xb28 <Endpoint_Write_Stream_LE>
     82a:	82 e0       	ldi	r24, 0x02	; 2
     82c:	08 95       	ret

0000082e <CDC_Device_SendByte>:
     82e:	cf 93       	push	r28
     830:	c6 2f       	mov	r28, r22
     832:	20 91 a2 01 	lds	r18, 0x01A2
     836:	24 30       	cpi	r18, 0x04	; 4
     838:	f1 f4       	brne	.+60     	; 0x876 <CDC_Device_SendByte+0x48>
     83a:	fc 01       	movw	r30, r24
     83c:	44 89       	ldd	r20, Z+20	; 0x14
     83e:	55 89       	ldd	r21, Z+21	; 0x15
     840:	66 89       	ldd	r22, Z+22	; 0x16
     842:	77 89       	ldd	r23, Z+23	; 0x17
     844:	45 2b       	or	r20, r21
     846:	46 2b       	or	r20, r22
     848:	47 2b       	or	r20, r23
     84a:	a9 f0       	breq	.+42     	; 0x876 <CDC_Device_SendByte+0x48>
     84c:	81 81       	ldd	r24, Z+1	; 0x01
     84e:	8f 70       	andi	r24, 0x0F	; 15
     850:	80 93 e9 00 	sts	0x00E9, r24
     854:	80 91 e8 00 	lds	r24, 0x00E8
     858:	85 ff       	sbrs	r24, 5
     85a:	04 c0       	rjmp	.+8      	; 0x864 <CDC_Device_SendByte+0x36>
     85c:	c0 93 f1 00 	sts	0x00F1, r28
     860:	80 e0       	ldi	r24, 0x00	; 0
     862:	0a c0       	rjmp	.+20     	; 0x878 <CDC_Device_SendByte+0x4a>
     864:	80 91 e8 00 	lds	r24, 0x00E8
     868:	8e 77       	andi	r24, 0x7E	; 126
     86a:	80 93 e8 00 	sts	0x00E8, r24
     86e:	f9 d2       	rcall	.+1522   	; 0xe62 <Endpoint_WaitUntilReady>
     870:	88 23       	and	r24, r24
     872:	a1 f3       	breq	.-24     	; 0x85c <CDC_Device_SendByte+0x2e>
     874:	01 c0       	rjmp	.+2      	; 0x878 <CDC_Device_SendByte+0x4a>
     876:	82 e0       	ldi	r24, 0x02	; 2
     878:	cf 91       	pop	r28
     87a:	08 95       	ret

0000087c <CDC_Device_putchar>:
     87c:	fb 01       	movw	r30, r22
     87e:	68 2f       	mov	r22, r24
     880:	84 85       	ldd	r24, Z+12	; 0x0c
     882:	95 85       	ldd	r25, Z+13	; 0x0d
     884:	d4 df       	rcall	.-88     	; 0x82e <CDC_Device_SendByte>
     886:	21 e0       	ldi	r18, 0x01	; 1
     888:	30 e0       	ldi	r19, 0x00	; 0
     88a:	81 11       	cpse	r24, r1
     88c:	02 c0       	rjmp	.+4      	; 0x892 <CDC_Device_putchar+0x16>
     88e:	20 e0       	ldi	r18, 0x00	; 0
     890:	30 e0       	ldi	r19, 0x00	; 0
     892:	88 27       	eor	r24, r24
     894:	99 27       	eor	r25, r25
     896:	82 1b       	sub	r24, r18
     898:	93 0b       	sbc	r25, r19
     89a:	08 95       	ret

0000089c <CDC_Device_Flush>:
     89c:	20 91 a2 01 	lds	r18, 0x01A2
     8a0:	24 30       	cpi	r18, 0x04	; 4
     8a2:	41 f5       	brne	.+80     	; 0x8f4 <CDC_Device_Flush+0x58>
     8a4:	fc 01       	movw	r30, r24
     8a6:	44 89       	ldd	r20, Z+20	; 0x14
     8a8:	55 89       	ldd	r21, Z+21	; 0x15
     8aa:	66 89       	ldd	r22, Z+22	; 0x16
     8ac:	77 89       	ldd	r23, Z+23	; 0x17
     8ae:	45 2b       	or	r20, r21
     8b0:	46 2b       	or	r20, r22
     8b2:	47 2b       	or	r20, r23
     8b4:	f9 f0       	breq	.+62     	; 0x8f4 <CDC_Device_Flush+0x58>
     8b6:	81 81       	ldd	r24, Z+1	; 0x01
     8b8:	8f 70       	andi	r24, 0x0F	; 15
     8ba:	80 93 e9 00 	sts	0x00E9, r24
     8be:	20 91 f3 00 	lds	r18, 0x00F3
     8c2:	80 91 f2 00 	lds	r24, 0x00F2
     8c6:	90 e0       	ldi	r25, 0x00	; 0
     8c8:	92 2b       	or	r25, r18
     8ca:	89 2b       	or	r24, r25
     8cc:	89 f0       	breq	.+34     	; 0x8f0 <CDC_Device_Flush+0x54>
     8ce:	90 91 e8 00 	lds	r25, 0x00E8
     8d2:	80 91 e8 00 	lds	r24, 0x00E8
     8d6:	8e 77       	andi	r24, 0x7E	; 126
     8d8:	80 93 e8 00 	sts	0x00E8, r24
     8dc:	95 fd       	sbrc	r25, 5
     8de:	08 c0       	rjmp	.+16     	; 0x8f0 <CDC_Device_Flush+0x54>
     8e0:	c0 d2       	rcall	.+1408   	; 0xe62 <Endpoint_WaitUntilReady>
     8e2:	81 11       	cpse	r24, r1
     8e4:	08 c0       	rjmp	.+16     	; 0x8f6 <CDC_Device_Flush+0x5a>
     8e6:	80 91 e8 00 	lds	r24, 0x00E8
     8ea:	8e 77       	andi	r24, 0x7E	; 126
     8ec:	80 93 e8 00 	sts	0x00E8, r24
     8f0:	80 e0       	ldi	r24, 0x00	; 0
     8f2:	08 95       	ret
     8f4:	82 e0       	ldi	r24, 0x02	; 2
     8f6:	08 95       	ret

000008f8 <CDC_Device_USBTask>:
     8f8:	20 91 a2 01 	lds	r18, 0x01A2
     8fc:	24 30       	cpi	r18, 0x04	; 4
     8fe:	89 f4       	brne	.+34     	; 0x922 <CDC_Device_USBTask+0x2a>
     900:	fc 01       	movw	r30, r24
     902:	44 89       	ldd	r20, Z+20	; 0x14
     904:	55 89       	ldd	r21, Z+21	; 0x15
     906:	66 89       	ldd	r22, Z+22	; 0x16
     908:	77 89       	ldd	r23, Z+23	; 0x17
     90a:	45 2b       	or	r20, r21
     90c:	46 2b       	or	r20, r22
     90e:	47 2b       	or	r20, r23
     910:	41 f0       	breq	.+16     	; 0x922 <CDC_Device_USBTask+0x2a>
     912:	21 81       	ldd	r18, Z+1	; 0x01
     914:	2f 70       	andi	r18, 0x0F	; 15
     916:	20 93 e9 00 	sts	0x00E9, r18
     91a:	20 91 e8 00 	lds	r18, 0x00E8
     91e:	20 fd       	sbrc	r18, 0
     920:	bd cf       	rjmp	.-134    	; 0x89c <CDC_Device_Flush>
     922:	08 95       	ret

00000924 <CDC_Device_ReceiveByte>:
     924:	20 91 a2 01 	lds	r18, 0x01A2
     928:	24 30       	cpi	r18, 0x04	; 4
     92a:	19 f0       	breq	.+6      	; 0x932 <CDC_Device_ReceiveByte+0xe>
     92c:	8f ef       	ldi	r24, 0xFF	; 255
     92e:	9f ef       	ldi	r25, 0xFF	; 255
     930:	08 95       	ret
     932:	fc 01       	movw	r30, r24
     934:	44 89       	ldd	r20, Z+20	; 0x14
     936:	55 89       	ldd	r21, Z+21	; 0x15
     938:	66 89       	ldd	r22, Z+22	; 0x16
     93a:	77 89       	ldd	r23, Z+23	; 0x17
     93c:	45 2b       	or	r20, r21
     93e:	46 2b       	or	r20, r22
     940:	47 2b       	or	r20, r23
     942:	a1 f3       	breq	.-24     	; 0x92c <CDC_Device_ReceiveByte+0x8>
     944:	86 81       	ldd	r24, Z+6	; 0x06
     946:	8f 70       	andi	r24, 0x0F	; 15
     948:	80 93 e9 00 	sts	0x00E9, r24
     94c:	80 91 e8 00 	lds	r24, 0x00E8
     950:	82 ff       	sbrs	r24, 2
     952:	ec cf       	rjmp	.-40     	; 0x92c <CDC_Device_ReceiveByte+0x8>
     954:	20 91 f3 00 	lds	r18, 0x00F3
     958:	80 91 f2 00 	lds	r24, 0x00F2
     95c:	90 e0       	ldi	r25, 0x00	; 0
     95e:	92 2b       	or	r25, r18
     960:	89 2b       	or	r24, r25
     962:	21 f0       	breq	.+8      	; 0x96c <CDC_Device_ReceiveByte+0x48>
     964:	20 91 f1 00 	lds	r18, 0x00F1
     968:	30 e0       	ldi	r19, 0x00	; 0
     96a:	02 c0       	rjmp	.+4      	; 0x970 <CDC_Device_ReceiveByte+0x4c>
     96c:	2f ef       	ldi	r18, 0xFF	; 255
     96e:	3f ef       	ldi	r19, 0xFF	; 255
     970:	40 91 f3 00 	lds	r20, 0x00F3
     974:	80 91 f2 00 	lds	r24, 0x00F2
     978:	90 e0       	ldi	r25, 0x00	; 0
     97a:	94 2b       	or	r25, r20
     97c:	89 2b       	or	r24, r25
     97e:	29 f4       	brne	.+10     	; 0x98a <CDC_Device_ReceiveByte+0x66>
     980:	80 91 e8 00 	lds	r24, 0x00E8
     984:	8b 77       	andi	r24, 0x7B	; 123
     986:	80 93 e8 00 	sts	0x00E8, r24
     98a:	c9 01       	movw	r24, r18
     98c:	08 95       	ret

0000098e <CDC_Device_getchar>:
     98e:	fc 01       	movw	r30, r24
     990:	84 85       	ldd	r24, Z+12	; 0x0c
     992:	95 85       	ldd	r25, Z+13	; 0x0d
     994:	c7 df       	rcall	.-114    	; 0x924 <CDC_Device_ReceiveByte>
     996:	97 ff       	sbrs	r25, 7
     998:	02 c0       	rjmp	.+4      	; 0x99e <CDC_Device_getchar+0x10>
     99a:	8e ef       	ldi	r24, 0xFE	; 254
     99c:	9f ef       	ldi	r25, 0xFF	; 255
     99e:	08 95       	ret

000009a0 <CDC_Device_CreateStream>:
     9a0:	fb 01       	movw	r30, r22
     9a2:	2e e0       	ldi	r18, 0x0E	; 14
     9a4:	db 01       	movw	r26, r22
     9a6:	1d 92       	st	X+, r1
     9a8:	2a 95       	dec	r18
     9aa:	e9 f7       	brne	.-6      	; 0x9a6 <CDC_Device_CreateStream+0x6>
     9ac:	23 e0       	ldi	r18, 0x03	; 3
     9ae:	23 83       	std	Z+3, r18	; 0x03
     9b0:	2e e3       	ldi	r18, 0x3E	; 62
     9b2:	34 e0       	ldi	r19, 0x04	; 4
     9b4:	31 87       	std	Z+9, r19	; 0x09
     9b6:	20 87       	std	Z+8, r18	; 0x08
     9b8:	27 ec       	ldi	r18, 0xC7	; 199
     9ba:	34 e0       	ldi	r19, 0x04	; 4
     9bc:	33 87       	std	Z+11, r19	; 0x0b
     9be:	22 87       	std	Z+10, r18	; 0x0a
     9c0:	95 87       	std	Z+13, r25	; 0x0d
     9c2:	84 87       	std	Z+12, r24	; 0x0c
     9c4:	08 95       	ret

000009c6 <CDC_Device_Event_Stub>:
	return ReceivedByte;
}
#endif

void CDC_Device_Event_Stub(void)
{
     9c6:	08 95       	ret

000009c8 <CDC_Device_ProcessControlRequest>:
#define  __INCLUDE_FROM_CDC_DRIVER
#define  __INCLUDE_FROM_CDC_DEVICE_C
#include "CDCClassDevice.h"

void CDC_Device_ProcessControlRequest(USB_ClassInfo_CDC_Device_t* const CDCInterfaceInfo)
{
     9c8:	cf 93       	push	r28
     9ca:	df 93       	push	r29
     9cc:	ec 01       	movw	r28, r24
			 *  \return Boolean \c true if the selected endpoint has received a SETUP packet, \c false otherwise.
			 */
			static inline bool Endpoint_IsSETUPReceived(void) ATTR_WARN_UNUSED_RESULT ATTR_ALWAYS_INLINE;
			static inline bool Endpoint_IsSETUPReceived(void)
			{
				return ((UEINTX & (1 << RXSTPI)) ? true : false);
     9ce:	80 91 e8 00 	lds	r24, 0x00E8
	if (!(Endpoint_IsSETUPReceived()))
     9d2:	83 ff       	sbrs	r24, 3
     9d4:	a6 c0       	rjmp	.+332    	; 0xb22 <__stack+0x23>
	  return;

	if (USB_ControlRequest.wIndex != CDCInterfaceInfo->Config.ControlInterfaceNumber)
     9d6:	88 81       	ld	r24, Y
     9d8:	90 e0       	ldi	r25, 0x00	; 0
     9da:	20 91 a7 01 	lds	r18, 0x01A7
     9de:	30 91 a8 01 	lds	r19, 0x01A8
     9e2:	28 17       	cp	r18, r24
     9e4:	39 07       	cpc	r19, r25
     9e6:	09 f0       	breq	.+2      	; 0x9ea <CDC_Device_ProcessControlRequest+0x22>
     9e8:	9c c0       	rjmp	.+312    	; 0xb22 <__stack+0x23>
	  return;

	switch (USB_ControlRequest.bRequest)
     9ea:	80 91 a4 01 	lds	r24, 0x01A4
     9ee:	81 32       	cpi	r24, 0x21	; 33
     9f0:	61 f0       	breq	.+24     	; 0xa0a <CDC_Device_ProcessControlRequest+0x42>
     9f2:	20 f4       	brcc	.+8      	; 0x9fc <CDC_Device_ProcessControlRequest+0x34>
     9f4:	80 32       	cpi	r24, 0x20	; 32
     9f6:	09 f4       	brne	.+2      	; 0x9fa <CDC_Device_ProcessControlRequest+0x32>
     9f8:	3e c0       	rjmp	.+124    	; 0xa76 <CDC_Device_ProcessControlRequest+0xae>
     9fa:	93 c0       	rjmp	.+294    	; 0xb22 <__stack+0x23>
     9fc:	82 32       	cpi	r24, 0x22	; 34
     9fe:	09 f4       	brne	.+2      	; 0xa02 <CDC_Device_ProcessControlRequest+0x3a>
     a00:	6c c0       	rjmp	.+216    	; 0xada <CDC_Device_ProcessControlRequest+0x112>
     a02:	83 32       	cpi	r24, 0x23	; 35
     a04:	09 f4       	brne	.+2      	; 0xa08 <CDC_Device_ProcessControlRequest+0x40>
     a06:	7d c0       	rjmp	.+250    	; 0xb02 <__stack+0x3>
     a08:	8c c0       	rjmp	.+280    	; 0xb22 <__stack+0x23>
	{
		case CDC_REQ_GetLineEncoding:
			if (USB_ControlRequest.bmRequestType == (REQDIR_DEVICETOHOST | REQTYPE_CLASS | REQREC_INTERFACE))
     a0a:	80 91 a3 01 	lds	r24, 0x01A3
     a0e:	81 3a       	cpi	r24, 0xA1	; 161
     a10:	09 f0       	breq	.+2      	; 0xa14 <CDC_Device_ProcessControlRequest+0x4c>
     a12:	87 c0       	rjmp	.+270    	; 0xb22 <__stack+0x23>
			 *  \note This is not applicable for non CONTROL type endpoints.
			 */
			static inline void Endpoint_ClearSETUP(void) ATTR_ALWAYS_INLINE;
			static inline void Endpoint_ClearSETUP(void)
			{
				UEINTX &= ~(1 << RXSTPI);
     a14:	80 91 e8 00 	lds	r24, 0x00E8
     a18:	87 7f       	andi	r24, 0xF7	; 247
     a1a:	80 93 e8 00 	sts	0x00E8, r24
			 *  \return Boolean \c true if the current endpoint is ready for an IN packet, \c false otherwise.
			 */
			static inline bool Endpoint_IsINReady(void) ATTR_WARN_UNUSED_RESULT ATTR_ALWAYS_INLINE;
			static inline bool Endpoint_IsINReady(void)
			{
				return ((UEINTX & (1 << TXINI)) ? true : false);
     a1e:	80 91 e8 00 	lds	r24, 0x00E8
			{
				Endpoint_ClearSETUP();

				while (!(Endpoint_IsINReady()));
     a22:	80 ff       	sbrs	r24, 0
     a24:	fc cf       	rjmp	.-8      	; 0xa1e <CDC_Device_ProcessControlRequest+0x56>

				Endpoint_Write_32_LE(CDCInterfaceInfo->State.LineEncoding.BaudRateBPS);
     a26:	4c 89       	ldd	r20, Y+20	; 0x14
     a28:	5d 89       	ldd	r21, Y+21	; 0x15
     a2a:	6e 89       	ldd	r22, Y+22	; 0x16
     a2c:	7f 89       	ldd	r23, Y+23	; 0x17
			 *  \param[in] Data  Data to write to the currently selected endpoint's FIFO buffer.
			 */
			static inline void Endpoint_Write_32_LE(const uint32_t Data) ATTR_ALWAYS_INLINE;
			static inline void Endpoint_Write_32_LE(const uint32_t Data)
			{
				UEDATX = (Data &  0xFF);
     a2e:	40 93 f1 00 	sts	0x00F1, r20
				UEDATX = (Data >> 8);
     a32:	bb 27       	eor	r27, r27
     a34:	a7 2f       	mov	r26, r23
     a36:	96 2f       	mov	r25, r22
     a38:	85 2f       	mov	r24, r21
     a3a:	80 93 f1 00 	sts	0x00F1, r24
				UEDATX = (Data >> 16);
     a3e:	cb 01       	movw	r24, r22
     a40:	aa 27       	eor	r26, r26
     a42:	bb 27       	eor	r27, r27
     a44:	80 93 f1 00 	sts	0x00F1, r24
				UEDATX = (Data >> 24);
     a48:	47 2f       	mov	r20, r23
     a4a:	55 27       	eor	r21, r21
     a4c:	66 27       	eor	r22, r22
     a4e:	77 27       	eor	r23, r23
     a50:	40 93 f1 00 	sts	0x00F1, r20
				Endpoint_Write_8(CDCInterfaceInfo->State.LineEncoding.CharFormat);
     a54:	88 8d       	ldd	r24, Y+24	; 0x18
			 *  \param[in] Data  Data to write into the the currently selected endpoint's FIFO buffer.
			 */
			static inline void Endpoint_Write_8(const uint8_t Data) ATTR_ALWAYS_INLINE;
			static inline void Endpoint_Write_8(const uint8_t Data)
			{
				UEDATX = Data;
     a56:	80 93 f1 00 	sts	0x00F1, r24
				Endpoint_Write_8(CDCInterfaceInfo->State.LineEncoding.ParityType);
     a5a:	89 8d       	ldd	r24, Y+25	; 0x19
     a5c:	80 93 f1 00 	sts	0x00F1, r24
				Endpoint_Write_8(CDCInterfaceInfo->State.LineEncoding.DataBits);
     a60:	8a 8d       	ldd	r24, Y+26	; 0x1a
     a62:	80 93 f1 00 	sts	0x00F1, r24
			 */
			static inline void Endpoint_ClearIN(void) ATTR_ALWAYS_INLINE;
			static inline void Endpoint_ClearIN(void)
			{
				#if !defined(CONTROL_ONLY_DEVICE)
					UEINTX &= ~((1 << TXINI) | (1 << FIFOCON));
     a66:	80 91 e8 00 	lds	r24, 0x00E8
     a6a:	8e 77       	andi	r24, 0x7E	; 126
     a6c:	80 93 e8 00 	sts	0x00E8, r24
				EVENT_CDC_Device_BreakSent(CDCInterfaceInfo, (uint8_t)USB_ControlRequest.wValue);
			}

			break;
	}
}
     a70:	df 91       	pop	r29
     a72:	cf 91       	pop	r28
				Endpoint_Write_8(CDCInterfaceInfo->State.LineEncoding.CharFormat);
				Endpoint_Write_8(CDCInterfaceInfo->State.LineEncoding.ParityType);
				Endpoint_Write_8(CDCInterfaceInfo->State.LineEncoding.DataBits);

				Endpoint_ClearIN();
				Endpoint_ClearStatusStage();
     a74:	d5 c1       	rjmp	.+938    	; 0xe20 <Endpoint_ClearStatusStage>
			}

			break;
		case CDC_REQ_SetLineEncoding:
			if (USB_ControlRequest.bmRequestType == (REQDIR_HOSTTODEVICE | REQTYPE_CLASS | REQREC_INTERFACE))
     a76:	80 91 a3 01 	lds	r24, 0x01A3
     a7a:	81 32       	cpi	r24, 0x21	; 33
     a7c:	09 f0       	breq	.+2      	; 0xa80 <CDC_Device_ProcessControlRequest+0xb8>
     a7e:	51 c0       	rjmp	.+162    	; 0xb22 <__stack+0x23>
			 *  \note This is not applicable for non CONTROL type endpoints.
			 */
			static inline void Endpoint_ClearSETUP(void) ATTR_ALWAYS_INLINE;
			static inline void Endpoint_ClearSETUP(void)
			{
				UEINTX &= ~(1 << RXSTPI);
     a80:	80 91 e8 00 	lds	r24, 0x00E8
     a84:	87 7f       	andi	r24, 0xF7	; 247
     a86:	80 93 e8 00 	sts	0x00E8, r24
			 *  \return Boolean \c true if current endpoint is has received an OUT packet, \c false otherwise.
			 */
			static inline bool Endpoint_IsOUTReceived(void) ATTR_WARN_UNUSED_RESULT ATTR_ALWAYS_INLINE;
			static inline bool Endpoint_IsOUTReceived(void)
			{
				return ((UEINTX & (1 << RXOUTI)) ? true : false);
     a8a:	80 91 e8 00 	lds	r24, 0x00E8
			{
				Endpoint_ClearSETUP();

				while (!(Endpoint_IsOUTReceived()))
     a8e:	82 fd       	sbrc	r24, 2
     a90:	05 c0       	rjmp	.+10     	; 0xa9c <CDC_Device_ProcessControlRequest+0xd4>
				{
					if (USB_DeviceState == DEVICE_STATE_Unattached)
     a92:	80 91 a2 01 	lds	r24, 0x01A2
     a96:	81 11       	cpse	r24, r1
     a98:	f8 cf       	rjmp	.-16     	; 0xa8a <CDC_Device_ProcessControlRequest+0xc2>
     a9a:	43 c0       	rjmp	.+134    	; 0xb22 <__stack+0x23>
				{
					uint32_t Value;
					uint8_t  Bytes[4];
				} Data;

				Data.Bytes[0] = UEDATX;
     a9c:	30 91 f1 00 	lds	r19, 0x00F1
				Data.Bytes[1] = UEDATX;
     aa0:	20 91 f1 00 	lds	r18, 0x00F1
				Data.Bytes[2] = UEDATX;
     aa4:	90 91 f1 00 	lds	r25, 0x00F1
				Data.Bytes[3] = UEDATX;
     aa8:	80 91 f1 00 	lds	r24, 0x00F1
					  return;
				}

				CDCInterfaceInfo->State.LineEncoding.BaudRateBPS = Endpoint_Read_32_LE();
     aac:	3c 8b       	std	Y+20, r19	; 0x14
     aae:	2d 8b       	std	Y+21, r18	; 0x15
     ab0:	9e 8b       	std	Y+22, r25	; 0x16
     ab2:	8f 8b       	std	Y+23, r24	; 0x17
			 *  \return Next byte in the currently selected endpoint's FIFO buffer.
			 */
			static inline uint8_t Endpoint_Read_8(void) ATTR_WARN_UNUSED_RESULT ATTR_ALWAYS_INLINE;
			static inline uint8_t Endpoint_Read_8(void)
			{
				return UEDATX;
     ab4:	80 91 f1 00 	lds	r24, 0x00F1
				CDCInterfaceInfo->State.LineEncoding.CharFormat  = Endpoint_Read_8();
     ab8:	88 8f       	std	Y+24, r24	; 0x18
     aba:	80 91 f1 00 	lds	r24, 0x00F1
				CDCInterfaceInfo->State.LineEncoding.ParityType  = Endpoint_Read_8();
     abe:	89 8f       	std	Y+25, r24	; 0x19
     ac0:	80 91 f1 00 	lds	r24, 0x00F1
				CDCInterfaceInfo->State.LineEncoding.DataBits    = Endpoint_Read_8();
     ac4:	8a 8f       	std	Y+26, r24	; 0x1a
			 */
			static inline void Endpoint_ClearOUT(void) ATTR_ALWAYS_INLINE;
			static inline void Endpoint_ClearOUT(void)
			{
				#if !defined(CONTROL_ONLY_DEVICE)
					UEINTX &= ~((1 << RXOUTI) | (1 << FIFOCON));
     ac6:	80 91 e8 00 	lds	r24, 0x00E8
     aca:	8b 77       	andi	r24, 0x7B	; 123
     acc:	80 93 e8 00 	sts	0x00E8, r24

				Endpoint_ClearOUT();
				Endpoint_ClearStatusStage();
     ad0:	a7 d1       	rcall	.+846    	; 0xe20 <Endpoint_ClearStatusStage>

				EVENT_CDC_Device_LineEncodingChanged(CDCInterfaceInfo);
     ad2:	ce 01       	movw	r24, r28
				EVENT_CDC_Device_BreakSent(CDCInterfaceInfo, (uint8_t)USB_ControlRequest.wValue);
			}

			break;
	}
}
     ad4:	df 91       	pop	r29
     ad6:	cf 91       	pop	r28
				CDCInterfaceInfo->State.LineEncoding.DataBits    = Endpoint_Read_8();

				Endpoint_ClearOUT();
				Endpoint_ClearStatusStage();

				EVENT_CDC_Device_LineEncodingChanged(CDCInterfaceInfo);
     ad8:	76 cf       	rjmp	.-276    	; 0x9c6 <CDC_Device_Event_Stub>
			}

			break;
		case CDC_REQ_SetControlLineState:
			if (USB_ControlRequest.bmRequestType == (REQDIR_HOSTTODEVICE | REQTYPE_CLASS | REQREC_INTERFACE))
     ada:	80 91 a3 01 	lds	r24, 0x01A3
     ade:	81 32       	cpi	r24, 0x21	; 33
     ae0:	01 f5       	brne	.+64     	; 0xb22 <__stack+0x23>
			 *  \note This is not applicable for non CONTROL type endpoints.
			 */
			static inline void Endpoint_ClearSETUP(void) ATTR_ALWAYS_INLINE;
			static inline void Endpoint_ClearSETUP(void)
			{
				UEINTX &= ~(1 << RXSTPI);
     ae2:	80 91 e8 00 	lds	r24, 0x00E8
     ae6:	87 7f       	andi	r24, 0xF7	; 247
     ae8:	80 93 e8 00 	sts	0x00E8, r24
			{
				Endpoint_ClearSETUP();
				Endpoint_ClearStatusStage();
     aec:	99 d1       	rcall	.+818    	; 0xe20 <Endpoint_ClearStatusStage>

				CDCInterfaceInfo->State.ControlLineStates.HostToDevice = USB_ControlRequest.wValue;
     aee:	80 91 a5 01 	lds	r24, 0x01A5
     af2:	90 91 a6 01 	lds	r25, 0x01A6
     af6:	99 8b       	std	Y+17, r25	; 0x11
     af8:	88 8b       	std	Y+16, r24	; 0x10

				EVENT_CDC_Device_ControLineStateChanged(CDCInterfaceInfo);
     afa:	ce 01       	movw	r24, r28
				EVENT_CDC_Device_BreakSent(CDCInterfaceInfo, (uint8_t)USB_ControlRequest.wValue);
			}

			break;
	}
}
     afc:	df 91       	pop	r29
     afe:	cf 91       	pop	r28
				Endpoint_ClearSETUP();
				Endpoint_ClearStatusStage();

				CDCInterfaceInfo->State.ControlLineStates.HostToDevice = USB_ControlRequest.wValue;

				EVENT_CDC_Device_ControLineStateChanged(CDCInterfaceInfo);
     b00:	62 cf       	rjmp	.-316    	; 0x9c6 <CDC_Device_Event_Stub>
			}

			break;
		case CDC_REQ_SendBreak:
			if (USB_ControlRequest.bmRequestType == (REQDIR_HOSTTODEVICE | REQTYPE_CLASS | REQREC_INTERFACE))
     b02:	80 91 a3 01 	lds	r24, 0x01A3
     b06:	81 32       	cpi	r24, 0x21	; 33
     b08:	61 f4       	brne	.+24     	; 0xb22 <__stack+0x23>
     b0a:	80 91 e8 00 	lds	r24, 0x00E8
     b0e:	87 7f       	andi	r24, 0xF7	; 247
     b10:	80 93 e8 00 	sts	0x00E8, r24
			{
				Endpoint_ClearSETUP();
				Endpoint_ClearStatusStage();
     b14:	85 d1       	rcall	.+778    	; 0xe20 <Endpoint_ClearStatusStage>

				EVENT_CDC_Device_BreakSent(CDCInterfaceInfo, (uint8_t)USB_ControlRequest.wValue);
     b16:	60 91 a5 01 	lds	r22, 0x01A5
     b1a:	ce 01       	movw	r24, r28
			}

			break;
	}
}
     b1c:	df 91       	pop	r29
     b1e:	cf 91       	pop	r28
			if (USB_ControlRequest.bmRequestType == (REQDIR_HOSTTODEVICE | REQTYPE_CLASS | REQREC_INTERFACE))
			{
				Endpoint_ClearSETUP();
				Endpoint_ClearStatusStage();

				EVENT_CDC_Device_BreakSent(CDCInterfaceInfo, (uint8_t)USB_ControlRequest.wValue);
     b20:	52 cf       	rjmp	.-348    	; 0x9c6 <CDC_Device_Event_Stub>
			}

			break;
	}
}
     b22:	df 91       	pop	r29
     b24:	cf 91       	pop	r28
     b26:	08 95       	ret

00000b28 <Endpoint_Write_Stream_LE>:
		else if (USB_DeviceState_LCL == DEVICE_STATE_Suspended)
		  return ENDPOINT_RWCSTREAM_BusSuspended;
	}

	return ENDPOINT_RWCSTREAM_NoError;
}
     b28:	cf 92       	push	r12
     b2a:	df 92       	push	r13
     b2c:	ef 92       	push	r14
     b2e:	ff 92       	push	r15
     b30:	0f 93       	push	r16
     b32:	1f 93       	push	r17
     b34:	cf 93       	push	r28
     b36:	df 93       	push	r29
     b38:	7c 01       	movw	r14, r24
     b3a:	8b 01       	movw	r16, r22
     b3c:	ea 01       	movw	r28, r20
     b3e:	91 d1       	rcall	.+802    	; 0xe62 <Endpoint_WaitUntilReady>
     b40:	81 11       	cpse	r24, r1
     b42:	30 c0       	rjmp	.+96     	; 0xba4 <Endpoint_Write_Stream_LE+0x7c>
     b44:	20 97       	sbiw	r28, 0x00	; 0
     b46:	31 f0       	breq	.+12     	; 0xb54 <Endpoint_Write_Stream_LE+0x2c>
     b48:	88 81       	ld	r24, Y
     b4a:	99 81       	ldd	r25, Y+1	; 0x01
     b4c:	08 1b       	sub	r16, r24
     b4e:	19 0b       	sbc	r17, r25
     b50:	e8 0e       	add	r14, r24
     b52:	f9 1e       	adc	r15, r25
     b54:	c1 2c       	mov	r12, r1
     b56:	d1 2c       	mov	r13, r1
     b58:	01 15       	cp	r16, r1
     b5a:	11 05       	cpc	r17, r1
     b5c:	11 f1       	breq	.+68     	; 0xba2 <Endpoint_Write_Stream_LE+0x7a>
     b5e:	80 91 e8 00 	lds	r24, 0x00E8
     b62:	85 fd       	sbrc	r24, 5
     b64:	13 c0       	rjmp	.+38     	; 0xb8c <Endpoint_Write_Stream_LE+0x64>
     b66:	80 91 e8 00 	lds	r24, 0x00E8
     b6a:	8e 77       	andi	r24, 0x7E	; 126
     b6c:	80 93 e8 00 	sts	0x00E8, r24
     b70:	20 97       	sbiw	r28, 0x00	; 0
     b72:	41 f0       	breq	.+16     	; 0xb84 <Endpoint_Write_Stream_LE+0x5c>
     b74:	88 81       	ld	r24, Y
     b76:	99 81       	ldd	r25, Y+1	; 0x01
     b78:	8c 0d       	add	r24, r12
     b7a:	9d 1d       	adc	r25, r13
     b7c:	99 83       	std	Y+1, r25	; 0x01
     b7e:	88 83       	st	Y, r24
     b80:	85 e0       	ldi	r24, 0x05	; 5
     b82:	10 c0       	rjmp	.+32     	; 0xba4 <Endpoint_Write_Stream_LE+0x7c>
     b84:	6e d1       	rcall	.+732    	; 0xe62 <Endpoint_WaitUntilReady>
     b86:	88 23       	and	r24, r24
     b88:	39 f3       	breq	.-50     	; 0xb58 <Endpoint_Write_Stream_LE+0x30>
     b8a:	0c c0       	rjmp	.+24     	; 0xba4 <Endpoint_Write_Stream_LE+0x7c>
     b8c:	f7 01       	movw	r30, r14
     b8e:	81 91       	ld	r24, Z+
     b90:	7f 01       	movw	r14, r30
     b92:	80 93 f1 00 	sts	0x00F1, r24
     b96:	01 50       	subi	r16, 0x01	; 1
     b98:	11 09       	sbc	r17, r1
     b9a:	ff ef       	ldi	r31, 0xFF	; 255
     b9c:	cf 1a       	sub	r12, r31
     b9e:	df 0a       	sbc	r13, r31
     ba0:	db cf       	rjmp	.-74     	; 0xb58 <Endpoint_Write_Stream_LE+0x30>
     ba2:	80 e0       	ldi	r24, 0x00	; 0
     ba4:	df 91       	pop	r29
     ba6:	cf 91       	pop	r28
     ba8:	1f 91       	pop	r17
     baa:	0f 91       	pop	r16
     bac:	ff 90       	pop	r15
     bae:	ef 90       	pop	r14
     bb0:	df 90       	pop	r13
     bb2:	cf 90       	pop	r12
     bb4:	08 95       	ret

00000bb6 <Endpoint_Write_Control_Stream_LE>:
     bb6:	20 91 a9 01 	lds	r18, 0x01A9
     bba:	30 91 aa 01 	lds	r19, 0x01AA
     bbe:	26 17       	cp	r18, r22
     bc0:	37 07       	cpc	r19, r23
     bc2:	48 f0       	brcs	.+18     	; 0xbd6 <Endpoint_Write_Control_Stream_LE+0x20>
     bc4:	61 15       	cp	r22, r1
     bc6:	71 05       	cpc	r23, r1
     bc8:	39 f4       	brne	.+14     	; 0xbd8 <Endpoint_Write_Control_Stream_LE+0x22>
     bca:	20 91 e8 00 	lds	r18, 0x00E8
     bce:	2e 77       	andi	r18, 0x7E	; 126
     bd0:	20 93 e8 00 	sts	0x00E8, r18
     bd4:	01 c0       	rjmp	.+2      	; 0xbd8 <Endpoint_Write_Control_Stream_LE+0x22>
     bd6:	b9 01       	movw	r22, r18
     bd8:	fc 01       	movw	r30, r24
     bda:	20 e0       	ldi	r18, 0x00	; 0
     bdc:	61 15       	cp	r22, r1
     bde:	71 05       	cpc	r23, r1
     be0:	b9 f1       	breq	.+110    	; 0xc50 <Endpoint_Write_Control_Stream_LE+0x9a>
     be2:	80 91 a2 01 	lds	r24, 0x01A2
     be6:	88 23       	and	r24, r24
     be8:	09 f4       	brne	.+2      	; 0xbec <Endpoint_Write_Control_Stream_LE+0x36>
     bea:	40 c0       	rjmp	.+128    	; 0xc6c <Endpoint_Write_Control_Stream_LE+0xb6>
     bec:	85 30       	cpi	r24, 0x05	; 5
     bee:	09 f4       	brne	.+2      	; 0xbf2 <Endpoint_Write_Control_Stream_LE+0x3c>
     bf0:	3f c0       	rjmp	.+126    	; 0xc70 <Endpoint_Write_Control_Stream_LE+0xba>
     bf2:	80 91 e8 00 	lds	r24, 0x00E8
     bf6:	83 fd       	sbrc	r24, 3
     bf8:	3d c0       	rjmp	.+122    	; 0xc74 <Endpoint_Write_Control_Stream_LE+0xbe>
     bfa:	80 91 e8 00 	lds	r24, 0x00E8
     bfe:	82 ff       	sbrs	r24, 2
     c00:	06 c0       	rjmp	.+12     	; 0xc0e <Endpoint_Write_Control_Stream_LE+0x58>
     c02:	80 91 e8 00 	lds	r24, 0x00E8
     c06:	82 ff       	sbrs	r24, 2
     c08:	26 c0       	rjmp	.+76     	; 0xc56 <Endpoint_Write_Control_Stream_LE+0xa0>
     c0a:	80 e0       	ldi	r24, 0x00	; 0
     c0c:	08 95       	ret
     c0e:	80 91 e8 00 	lds	r24, 0x00E8
     c12:	80 ff       	sbrs	r24, 0
     c14:	e3 cf       	rjmp	.-58     	; 0xbdc <Endpoint_Write_Control_Stream_LE+0x26>
     c16:	20 91 f3 00 	lds	r18, 0x00F3
     c1a:	80 91 f2 00 	lds	r24, 0x00F2
     c1e:	90 e0       	ldi	r25, 0x00	; 0
     c20:	92 2b       	or	r25, r18
     c22:	61 15       	cp	r22, r1
     c24:	71 05       	cpc	r23, r1
     c26:	51 f0       	breq	.+20     	; 0xc3c <Endpoint_Write_Control_Stream_LE+0x86>
     c28:	88 30       	cpi	r24, 0x08	; 8
     c2a:	91 05       	cpc	r25, r1
     c2c:	38 f4       	brcc	.+14     	; 0xc3c <Endpoint_Write_Control_Stream_LE+0x86>
     c2e:	21 91       	ld	r18, Z+
     c30:	20 93 f1 00 	sts	0x00F1, r18
     c34:	61 50       	subi	r22, 0x01	; 1
     c36:	71 09       	sbc	r23, r1
     c38:	01 96       	adiw	r24, 0x01	; 1
     c3a:	f3 cf       	rjmp	.-26     	; 0xc22 <Endpoint_Write_Control_Stream_LE+0x6c>
     c3c:	21 e0       	ldi	r18, 0x01	; 1
     c3e:	08 97       	sbiw	r24, 0x08	; 8
     c40:	09 f0       	breq	.+2      	; 0xc44 <Endpoint_Write_Control_Stream_LE+0x8e>
     c42:	20 e0       	ldi	r18, 0x00	; 0
     c44:	80 91 e8 00 	lds	r24, 0x00E8
     c48:	8e 77       	andi	r24, 0x7E	; 126
     c4a:	80 93 e8 00 	sts	0x00E8, r24
     c4e:	c6 cf       	rjmp	.-116    	; 0xbdc <Endpoint_Write_Control_Stream_LE+0x26>
     c50:	21 11       	cpse	r18, r1
     c52:	c7 cf       	rjmp	.-114    	; 0xbe2 <Endpoint_Write_Control_Stream_LE+0x2c>
     c54:	d6 cf       	rjmp	.-84     	; 0xc02 <Endpoint_Write_Control_Stream_LE+0x4c>
     c56:	80 91 a2 01 	lds	r24, 0x01A2
     c5a:	88 23       	and	r24, r24
     c5c:	39 f0       	breq	.+14     	; 0xc6c <Endpoint_Write_Control_Stream_LE+0xb6>
     c5e:	85 30       	cpi	r24, 0x05	; 5
     c60:	39 f0       	breq	.+14     	; 0xc70 <Endpoint_Write_Control_Stream_LE+0xba>
     c62:	80 91 e8 00 	lds	r24, 0x00E8
     c66:	83 ff       	sbrs	r24, 3
     c68:	cc cf       	rjmp	.-104    	; 0xc02 <Endpoint_Write_Control_Stream_LE+0x4c>
     c6a:	04 c0       	rjmp	.+8      	; 0xc74 <Endpoint_Write_Control_Stream_LE+0xbe>
     c6c:	82 e0       	ldi	r24, 0x02	; 2
     c6e:	08 95       	ret
     c70:	83 e0       	ldi	r24, 0x03	; 3
     c72:	08 95       	ret
     c74:	81 e0       	ldi	r24, 0x01	; 1
     c76:	08 95       	ret

00000c78 <Endpoint_Write_Control_PStream_LE>:
                            uint16_t Length)
{
	uint8_t* DataStream     = ((uint8_t*)Buffer + TEMPLATE_BUFFER_OFFSET(Length));
	bool     LastPacketFull = false;

	if (Length > USB_ControlRequest.wLength)
     c78:	20 91 a9 01 	lds	r18, 0x01A9
     c7c:	30 91 aa 01 	lds	r19, 0x01AA
     c80:	26 17       	cp	r18, r22
     c82:	37 07       	cpc	r19, r23
     c84:	48 f0       	brcs	.+18     	; 0xc98 <Endpoint_Write_Control_PStream_LE+0x20>
	  Length = USB_ControlRequest.wLength;
	else if (!(Length))
     c86:	61 15       	cp	r22, r1
     c88:	71 05       	cpc	r23, r1
     c8a:	39 f4       	brne	.+14     	; 0xc9a <Endpoint_Write_Control_PStream_LE+0x22>
			 */
			static inline void Endpoint_ClearIN(void) ATTR_ALWAYS_INLINE;
			static inline void Endpoint_ClearIN(void)
			{
				#if !defined(CONTROL_ONLY_DEVICE)
					UEINTX &= ~((1 << TXINI) | (1 << FIFOCON));
     c8c:	20 91 e8 00 	lds	r18, 0x00E8
     c90:	2e 77       	andi	r18, 0x7E	; 126
     c92:	20 93 e8 00 	sts	0x00E8, r18
     c96:	01 c0       	rjmp	.+2      	; 0xc9a <Endpoint_Write_Control_PStream_LE+0x22>
     c98:	b9 01       	movw	r22, r18
     c9a:	fc 01       	movw	r30, r24
     c9c:	20 e0       	ldi	r18, 0x00	; 0
	  Endpoint_ClearIN();

	while (Length || LastPacketFull)
     c9e:	61 15       	cp	r22, r1
     ca0:	71 05       	cpc	r23, r1
     ca2:	c1 f1       	breq	.+112    	; 0xd14 <Endpoint_Write_Control_PStream_LE+0x9c>
	{
		uint8_t USB_DeviceState_LCL = USB_DeviceState;
     ca4:	80 91 a2 01 	lds	r24, 0x01A2

		if (USB_DeviceState_LCL == DEVICE_STATE_Unattached)
     ca8:	88 23       	and	r24, r24
     caa:	09 f4       	brne	.+2      	; 0xcae <Endpoint_Write_Control_PStream_LE+0x36>
     cac:	41 c0       	rjmp	.+130    	; 0xd30 <Endpoint_Write_Control_PStream_LE+0xb8>
		  return ENDPOINT_RWCSTREAM_DeviceDisconnected;
		else if (USB_DeviceState_LCL == DEVICE_STATE_Suspended)
     cae:	85 30       	cpi	r24, 0x05	; 5
     cb0:	09 f4       	brne	.+2      	; 0xcb4 <Endpoint_Write_Control_PStream_LE+0x3c>
     cb2:	40 c0       	rjmp	.+128    	; 0xd34 <Endpoint_Write_Control_PStream_LE+0xbc>
			 *  \return Boolean \c true if the selected endpoint has received a SETUP packet, \c false otherwise.
			 */
			static inline bool Endpoint_IsSETUPReceived(void) ATTR_WARN_UNUSED_RESULT ATTR_ALWAYS_INLINE;
			static inline bool Endpoint_IsSETUPReceived(void)
			{
				return ((UEINTX & (1 << RXSTPI)) ? true : false);
     cb4:	80 91 e8 00 	lds	r24, 0x00E8
		  return ENDPOINT_RWCSTREAM_BusSuspended;
		else if (Endpoint_IsSETUPReceived())
     cb8:	83 fd       	sbrc	r24, 3
     cba:	3e c0       	rjmp	.+124    	; 0xd38 <Endpoint_Write_Control_PStream_LE+0xc0>
			 *  \return Boolean \c true if current endpoint is has received an OUT packet, \c false otherwise.
			 */
			static inline bool Endpoint_IsOUTReceived(void) ATTR_WARN_UNUSED_RESULT ATTR_ALWAYS_INLINE;
			static inline bool Endpoint_IsOUTReceived(void)
			{
				return ((UEINTX & (1 << RXOUTI)) ? true : false);
     cbc:	80 91 e8 00 	lds	r24, 0x00E8
		  return ENDPOINT_RWCSTREAM_HostAborted;
		else if (Endpoint_IsOUTReceived())
     cc0:	82 ff       	sbrs	r24, 2
     cc2:	06 c0       	rjmp	.+12     	; 0xcd0 <Endpoint_Write_Control_PStream_LE+0x58>
     cc4:	80 91 e8 00 	lds	r24, 0x00E8
			LastPacketFull = (BytesInEndpoint == USB_Device_ControlEndpointSize);
			Endpoint_ClearIN();
		}
	}

	while (!(Endpoint_IsOUTReceived()))
     cc8:	82 ff       	sbrs	r24, 2
     cca:	27 c0       	rjmp	.+78     	; 0xd1a <Endpoint_Write_Control_PStream_LE+0xa2>
		  return ENDPOINT_RWCSTREAM_BusSuspended;
		else if (Endpoint_IsSETUPReceived())
		  return ENDPOINT_RWCSTREAM_HostAborted;
	}

	return ENDPOINT_RWCSTREAM_NoError;
     ccc:	80 e0       	ldi	r24, 0x00	; 0
     cce:	08 95       	ret
			 *  \return Boolean \c true if the current endpoint is ready for an IN packet, \c false otherwise.
			 */
			static inline bool Endpoint_IsINReady(void) ATTR_WARN_UNUSED_RESULT ATTR_ALWAYS_INLINE;
			static inline bool Endpoint_IsINReady(void)
			{
				return ((UEINTX & (1 << TXINI)) ? true : false);
     cd0:	80 91 e8 00 	lds	r24, 0x00E8
		else if (Endpoint_IsSETUPReceived())
		  return ENDPOINT_RWCSTREAM_HostAborted;
		else if (Endpoint_IsOUTReceived())
		  break;

		if (Endpoint_IsINReady())
     cd4:	80 ff       	sbrs	r24, 0
     cd6:	e3 cf       	rjmp	.-58     	; 0xc9e <Endpoint_Write_Control_PStream_LE+0x26>
			static inline uint16_t Endpoint_BytesInEndpoint(void)
			{
				#if (defined(USB_SERIES_6_AVR) || defined(USB_SERIES_7_AVR))
					return UEBCX;
				#elif defined(USB_SERIES_4_AVR)
					return (((uint16_t)UEBCHX << 8) | UEBCLX);
     cd8:	20 91 f3 00 	lds	r18, 0x00F3
     cdc:	80 91 f2 00 	lds	r24, 0x00F2
     ce0:	90 e0       	ldi	r25, 0x00	; 0
     ce2:	92 2b       	or	r25, r18
		{
			uint16_t BytesInEndpoint = Endpoint_BytesInEndpoint();

			while (Length && (BytesInEndpoint < USB_Device_ControlEndpointSize))
     ce4:	61 15       	cp	r22, r1
     ce6:	71 05       	cpc	r23, r1
     ce8:	59 f0       	breq	.+22     	; 0xd00 <Endpoint_Write_Control_PStream_LE+0x88>
     cea:	88 30       	cpi	r24, 0x08	; 8
     cec:	91 05       	cpc	r25, r1
     cee:	40 f4       	brcc	.+16     	; 0xd00 <Endpoint_Write_Control_PStream_LE+0x88>
			{
				TEMPLATE_TRANSFER_BYTE(DataStream);
     cf0:	24 91       	lpm	r18, Z
			 *  \param[in] Data  Data to write into the the currently selected endpoint's FIFO buffer.
			 */
			static inline void Endpoint_Write_8(const uint8_t Data) ATTR_ALWAYS_INLINE;
			static inline void Endpoint_Write_8(const uint8_t Data)
			{
				UEDATX = Data;
     cf2:	20 93 f1 00 	sts	0x00F1, r18
				TEMPLATE_BUFFER_MOVE(DataStream, 1);
     cf6:	31 96       	adiw	r30, 0x01	; 1
				Length--;
     cf8:	61 50       	subi	r22, 0x01	; 1
     cfa:	71 09       	sbc	r23, r1
				BytesInEndpoint++;
     cfc:	01 96       	adiw	r24, 0x01	; 1
     cfe:	f2 cf       	rjmp	.-28     	; 0xce4 <Endpoint_Write_Control_PStream_LE+0x6c>
			}

			LastPacketFull = (BytesInEndpoint == USB_Device_ControlEndpointSize);
     d00:	21 e0       	ldi	r18, 0x01	; 1
     d02:	08 97       	sbiw	r24, 0x08	; 8
     d04:	09 f0       	breq	.+2      	; 0xd08 <Endpoint_Write_Control_PStream_LE+0x90>
     d06:	20 e0       	ldi	r18, 0x00	; 0
			 */
			static inline void Endpoint_ClearIN(void) ATTR_ALWAYS_INLINE;
			static inline void Endpoint_ClearIN(void)
			{
				#if !defined(CONTROL_ONLY_DEVICE)
					UEINTX &= ~((1 << TXINI) | (1 << FIFOCON));
     d08:	80 91 e8 00 	lds	r24, 0x00E8
     d0c:	8e 77       	andi	r24, 0x7E	; 126
     d0e:	80 93 e8 00 	sts	0x00E8, r24
     d12:	c5 cf       	rjmp	.-118    	; 0xc9e <Endpoint_Write_Control_PStream_LE+0x26>
	if (Length > USB_ControlRequest.wLength)
	  Length = USB_ControlRequest.wLength;
	else if (!(Length))
	  Endpoint_ClearIN();

	while (Length || LastPacketFull)
     d14:	21 11       	cpse	r18, r1
     d16:	c6 cf       	rjmp	.-116    	; 0xca4 <Endpoint_Write_Control_PStream_LE+0x2c>
     d18:	d5 cf       	rjmp	.-86     	; 0xcc4 <Endpoint_Write_Control_PStream_LE+0x4c>
		}
	}

	while (!(Endpoint_IsOUTReceived()))
	{
		uint8_t USB_DeviceState_LCL = USB_DeviceState;
     d1a:	80 91 a2 01 	lds	r24, 0x01A2

		if (USB_DeviceState_LCL == DEVICE_STATE_Unattached)
     d1e:	88 23       	and	r24, r24
     d20:	39 f0       	breq	.+14     	; 0xd30 <Endpoint_Write_Control_PStream_LE+0xb8>
		  return ENDPOINT_RWCSTREAM_DeviceDisconnected;
		else if (USB_DeviceState_LCL == DEVICE_STATE_Suspended)
     d22:	85 30       	cpi	r24, 0x05	; 5
     d24:	39 f0       	breq	.+14     	; 0xd34 <Endpoint_Write_Control_PStream_LE+0xbc>
			 *  \return Boolean \c true if the selected endpoint has received a SETUP packet, \c false otherwise.
			 */
			static inline bool Endpoint_IsSETUPReceived(void) ATTR_WARN_UNUSED_RESULT ATTR_ALWAYS_INLINE;
			static inline bool Endpoint_IsSETUPReceived(void)
			{
				return ((UEINTX & (1 << RXSTPI)) ? true : false);
     d26:	80 91 e8 00 	lds	r24, 0x00E8
		  return ENDPOINT_RWCSTREAM_BusSuspended;
		else if (Endpoint_IsSETUPReceived())
     d2a:	83 ff       	sbrs	r24, 3
     d2c:	cb cf       	rjmp	.-106    	; 0xcc4 <Endpoint_Write_Control_PStream_LE+0x4c>
     d2e:	04 c0       	rjmp	.+8      	; 0xd38 <Endpoint_Write_Control_PStream_LE+0xc0>
	while (Length || LastPacketFull)
	{
		uint8_t USB_DeviceState_LCL = USB_DeviceState;

		if (USB_DeviceState_LCL == DEVICE_STATE_Unattached)
		  return ENDPOINT_RWCSTREAM_DeviceDisconnected;
     d30:	82 e0       	ldi	r24, 0x02	; 2
     d32:	08 95       	ret
		else if (USB_DeviceState_LCL == DEVICE_STATE_Suspended)
		  return ENDPOINT_RWCSTREAM_BusSuspended;
     d34:	83 e0       	ldi	r24, 0x03	; 3
     d36:	08 95       	ret
		else if (Endpoint_IsSETUPReceived())
		  return ENDPOINT_RWCSTREAM_HostAborted;
     d38:	81 e0       	ldi	r24, 0x01	; 1
		else if (Endpoint_IsSETUPReceived())
		  return ENDPOINT_RWCSTREAM_HostAborted;
	}

	return ENDPOINT_RWCSTREAM_NoError;
}
     d3a:	08 95       	ret

00000d3c <Endpoint_ConfigureEndpoint_Prv>:
		UEIENX  = 0;
		UEINTX  = 0;
		UECFG1X = 0;
		Endpoint_DisableEndpoint();
	}
}
     d3c:	98 2f       	mov	r25, r24
     d3e:	97 30       	cpi	r25, 0x07	; 7
     d40:	58 f5       	brcc	.+86     	; 0xd98 <Endpoint_ConfigureEndpoint_Prv+0x5c>
     d42:	90 93 e9 00 	sts	0x00E9, r25
     d46:	98 17       	cp	r25, r24
     d48:	39 f0       	breq	.+14     	; 0xd58 <Endpoint_ConfigureEndpoint_Prv+0x1c>
     d4a:	70 91 ec 00 	lds	r23, 0x00EC
     d4e:	20 91 ed 00 	lds	r18, 0x00ED
     d52:	50 91 f0 00 	lds	r21, 0x00F0
     d56:	03 c0       	rjmp	.+6      	; 0xd5e <Endpoint_ConfigureEndpoint_Prv+0x22>
     d58:	24 2f       	mov	r18, r20
     d5a:	76 2f       	mov	r23, r22
     d5c:	50 e0       	ldi	r21, 0x00	; 0
     d5e:	21 ff       	sbrs	r18, 1
     d60:	19 c0       	rjmp	.+50     	; 0xd94 <Endpoint_ConfigureEndpoint_Prv+0x58>
     d62:	30 91 eb 00 	lds	r19, 0x00EB
     d66:	3e 7f       	andi	r19, 0xFE	; 254
     d68:	30 93 eb 00 	sts	0x00EB, r19
     d6c:	30 91 ed 00 	lds	r19, 0x00ED
     d70:	3d 7f       	andi	r19, 0xFD	; 253
     d72:	30 93 ed 00 	sts	0x00ED, r19
     d76:	30 91 eb 00 	lds	r19, 0x00EB
     d7a:	31 60       	ori	r19, 0x01	; 1
     d7c:	30 93 eb 00 	sts	0x00EB, r19
     d80:	70 93 ec 00 	sts	0x00EC, r23
     d84:	20 93 ed 00 	sts	0x00ED, r18
     d88:	50 93 f0 00 	sts	0x00F0, r21
     d8c:	20 91 ee 00 	lds	r18, 0x00EE
     d90:	27 ff       	sbrs	r18, 7
     d92:	07 c0       	rjmp	.+14     	; 0xda2 <Endpoint_ConfigureEndpoint_Prv+0x66>
     d94:	9f 5f       	subi	r25, 0xFF	; 255
     d96:	d3 cf       	rjmp	.-90     	; 0xd3e <Endpoint_ConfigureEndpoint_Prv+0x2>
     d98:	8f 70       	andi	r24, 0x0F	; 15
     d9a:	80 93 e9 00 	sts	0x00E9, r24
     d9e:	81 e0       	ldi	r24, 0x01	; 1
     da0:	08 95       	ret
     da2:	80 e0       	ldi	r24, 0x00	; 0
     da4:	08 95       	ret

00000da6 <Endpoint_ConfigureEndpointTable>:
     da6:	0f 93       	push	r16
     da8:	1f 93       	push	r17
     daa:	cf 93       	push	r28
     dac:	df 93       	push	r29
     dae:	06 2f       	mov	r16, r22
     db0:	ec 01       	movw	r28, r24
     db2:	10 e0       	ldi	r17, 0x00	; 0
     db4:	10 17       	cp	r17, r16
     db6:	71 f1       	breq	.+92     	; 0xe14 <Endpoint_ConfigureEndpointTable+0x6e>
     db8:	98 81       	ld	r25, Y
     dba:	99 23       	and	r25, r25
     dbc:	41 f1       	breq	.+80     	; 0xe0e <Endpoint_ConfigureEndpointTable+0x68>
     dbe:	2c 81       	ldd	r18, Y+4	; 0x04
     dc0:	e9 81       	ldd	r30, Y+1	; 0x01
     dc2:	fa 81       	ldd	r31, Y+2	; 0x02
     dc4:	7b 81       	ldd	r23, Y+3	; 0x03
     dc6:	89 2f       	mov	r24, r25
     dc8:	8f 70       	andi	r24, 0x0F	; 15
     dca:	87 30       	cpi	r24, 0x07	; 7
     dcc:	10 f0       	brcs	.+4      	; 0xdd2 <Endpoint_ConfigureEndpointTable+0x2c>
     dce:	80 e0       	ldi	r24, 0x00	; 0
     dd0:	22 c0       	rjmp	.+68     	; 0xe16 <Endpoint_ConfigureEndpointTable+0x70>
     dd2:	22 30       	cpi	r18, 0x02	; 2
     dd4:	10 f0       	brcs	.+4      	; 0xdda <Endpoint_ConfigureEndpointTable+0x34>
     dd6:	56 e0       	ldi	r21, 0x06	; 6
     dd8:	01 c0       	rjmp	.+2      	; 0xddc <Endpoint_ConfigureEndpointTable+0x36>
     dda:	52 e0       	ldi	r21, 0x02	; 2
     ddc:	28 e0       	ldi	r18, 0x08	; 8
     dde:	30 e0       	ldi	r19, 0x00	; 0
     de0:	40 e0       	ldi	r20, 0x00	; 0
     de2:	2e 17       	cp	r18, r30
     de4:	3f 07       	cpc	r19, r31
     de6:	20 f4       	brcc	.+8      	; 0xdf0 <Endpoint_ConfigureEndpointTable+0x4a>
     de8:	4f 5f       	subi	r20, 0xFF	; 255
     dea:	22 0f       	add	r18, r18
     dec:	33 1f       	adc	r19, r19
     dee:	f9 cf       	rjmp	.-14     	; 0xde2 <Endpoint_ConfigureEndpointTable+0x3c>
     df0:	42 95       	swap	r20
     df2:	40 7f       	andi	r20, 0xF0	; 240
     df4:	45 2b       	or	r20, r21
     df6:	69 2f       	mov	r22, r25
     df8:	66 1f       	adc	r22, r22
     dfa:	66 27       	eor	r22, r22
     dfc:	66 1f       	adc	r22, r22
     dfe:	90 e4       	ldi	r25, 0x40	; 64
     e00:	79 9f       	mul	r23, r25
     e02:	90 01       	movw	r18, r0
     e04:	11 24       	eor	r1, r1
     e06:	62 2b       	or	r22, r18
     e08:	99 df       	rcall	.-206    	; 0xd3c <Endpoint_ConfigureEndpoint_Prv>
     e0a:	88 23       	and	r24, r24
     e0c:	01 f3       	breq	.-64     	; 0xdce <Endpoint_ConfigureEndpointTable+0x28>
     e0e:	1f 5f       	subi	r17, 0xFF	; 255
     e10:	25 96       	adiw	r28, 0x05	; 5
     e12:	d0 cf       	rjmp	.-96     	; 0xdb4 <Endpoint_ConfigureEndpointTable+0xe>
     e14:	81 e0       	ldi	r24, 0x01	; 1
     e16:	df 91       	pop	r29
     e18:	cf 91       	pop	r28
     e1a:	1f 91       	pop	r17
     e1c:	0f 91       	pop	r16
     e1e:	08 95       	ret

00000e20 <Endpoint_ClearStatusStage>:

void Endpoint_ClearStatusStage(void)
{
	if (USB_ControlRequest.bmRequestType & REQDIR_DEVICETOHOST)
     e20:	80 91 a3 01 	lds	r24, 0x01A3
     e24:	87 fd       	sbrc	r24, 7
     e26:	05 c0       	rjmp	.+10     	; 0xe32 <Endpoint_ClearStatusStage+0x12>
			 *  \return Boolean \c true if the current endpoint is ready for an IN packet, \c false otherwise.
			 */
			static inline bool Endpoint_IsINReady(void) ATTR_WARN_UNUSED_RESULT ATTR_ALWAYS_INLINE;
			static inline bool Endpoint_IsINReady(void)
			{
				return ((UEINTX & (1 << TXINI)) ? true : false);
     e28:	80 91 e8 00 	lds	r24, 0x00E8

		Endpoint_ClearOUT();
	}
	else
	{
		while (!(Endpoint_IsINReady()))
     e2c:	80 ff       	sbrs	r24, 0
     e2e:	0e c0       	rjmp	.+28     	; 0xe4c <Endpoint_ClearStatusStage+0x2c>
     e30:	12 c0       	rjmp	.+36     	; 0xe56 <Endpoint_ClearStatusStage+0x36>
			 *  \return Boolean \c true if current endpoint is has received an OUT packet, \c false otherwise.
			 */
			static inline bool Endpoint_IsOUTReceived(void) ATTR_WARN_UNUSED_RESULT ATTR_ALWAYS_INLINE;
			static inline bool Endpoint_IsOUTReceived(void)
			{
				return ((UEINTX & (1 << RXOUTI)) ? true : false);
     e32:	80 91 e8 00 	lds	r24, 0x00E8

void Endpoint_ClearStatusStage(void)
{
	if (USB_ControlRequest.bmRequestType & REQDIR_DEVICETOHOST)
	{
		while (!(Endpoint_IsOUTReceived()))
     e36:	82 fd       	sbrc	r24, 2
     e38:	05 c0       	rjmp	.+10     	; 0xe44 <Endpoint_ClearStatusStage+0x24>
		{
			if (USB_DeviceState == DEVICE_STATE_Unattached)
     e3a:	80 91 a2 01 	lds	r24, 0x01A2
     e3e:	81 11       	cpse	r24, r1
     e40:	f8 cf       	rjmp	.-16     	; 0xe32 <Endpoint_ClearStatusStage+0x12>
     e42:	08 95       	ret
			 */
			static inline void Endpoint_ClearOUT(void) ATTR_ALWAYS_INLINE;
			static inline void Endpoint_ClearOUT(void)
			{
				#if !defined(CONTROL_ONLY_DEVICE)
					UEINTX &= ~((1 << RXOUTI) | (1 << FIFOCON));
     e44:	80 91 e8 00 	lds	r24, 0x00E8
     e48:	8b 77       	andi	r24, 0x7B	; 123
     e4a:	08 c0       	rjmp	.+16     	; 0xe5c <Endpoint_ClearStatusStage+0x3c>
	}
	else
	{
		while (!(Endpoint_IsINReady()))
		{
			if (USB_DeviceState == DEVICE_STATE_Unattached)
     e4c:	80 91 a2 01 	lds	r24, 0x01A2
     e50:	81 11       	cpse	r24, r1
     e52:	ea cf       	rjmp	.-44     	; 0xe28 <Endpoint_ClearStatusStage+0x8>
     e54:	08 95       	ret
			 */
			static inline void Endpoint_ClearIN(void) ATTR_ALWAYS_INLINE;
			static inline void Endpoint_ClearIN(void)
			{
				#if !defined(CONTROL_ONLY_DEVICE)
					UEINTX &= ~((1 << TXINI) | (1 << FIFOCON));
     e56:	80 91 e8 00 	lds	r24, 0x00E8
     e5a:	8e 77       	andi	r24, 0x7E	; 126
     e5c:	80 93 e8 00 	sts	0x00E8, r24
     e60:	08 95       	ret

00000e62 <Endpoint_WaitUntilReady>:
			 *  \return Current USB frame number from the USB controller.
			 */
			static inline uint16_t USB_Device_GetFrameNumber(void) ATTR_ALWAYS_INLINE ATTR_WARN_UNUSED_RESULT;
			static inline uint16_t USB_Device_GetFrameNumber(void)
			{
				return UDFNUM;
     e62:	80 91 e4 00 	lds	r24, 0x00E4
     e66:	90 91 e5 00 	lds	r25, 0x00E5
     e6a:	45 e6       	ldi	r20, 0x65	; 101
			 *  \return The currently selected endpoint's direction, as a \c ENDPOINT_DIR_* mask.
			 */
			static inline uint8_t Endpoint_GetEndpointDirection(void) ATTR_WARN_UNUSED_RESULT ATTR_ALWAYS_INLINE;
			static inline uint8_t Endpoint_GetEndpointDirection(void)
			{
				return (UECFG0X & (1 << EPDIR)) ? ENDPOINT_DIR_IN : ENDPOINT_DIR_OUT;
     e6c:	20 91 ec 00 	lds	r18, 0x00EC
     e70:	20 ff       	sbrs	r18, 0
     e72:	21 c0       	rjmp	.+66     	; 0xeb6 <Endpoint_WaitUntilReady+0x54>
			 *  \return Boolean \c true if the current endpoint is ready for an IN packet, \c false otherwise.
			 */
			static inline bool Endpoint_IsINReady(void) ATTR_WARN_UNUSED_RESULT ATTR_ALWAYS_INLINE;
			static inline bool Endpoint_IsINReady(void)
			{
				return ((UEINTX & (1 << TXINI)) ? true : false);
     e74:	20 91 e8 00 	lds	r18, 0x00E8

	for (;;)
	{
		if (Endpoint_GetEndpointDirection() == ENDPOINT_DIR_IN)
		{
			if (Endpoint_IsINReady())
     e78:	20 fd       	sbrc	r18, 0
     e7a:	21 c0       	rjmp	.+66     	; 0xebe <Endpoint_WaitUntilReady+0x5c>
		{
			if (Endpoint_IsOUTReceived())
			  return ENDPOINT_READYWAIT_NoError;
		}

		uint8_t USB_DeviceState_LCL = USB_DeviceState;
     e7c:	20 91 a2 01 	lds	r18, 0x01A2

		if (USB_DeviceState_LCL == DEVICE_STATE_Unattached)
     e80:	22 23       	and	r18, r18
     e82:	89 f0       	breq	.+34     	; 0xea6 <Endpoint_WaitUntilReady+0x44>
		  return ENDPOINT_READYWAIT_DeviceDisconnected;
		else if (USB_DeviceState_LCL == DEVICE_STATE_Suspended)
     e84:	25 30       	cpi	r18, 0x05	; 5
     e86:	89 f0       	breq	.+34     	; 0xeaa <Endpoint_WaitUntilReady+0x48>
			 *  \return Boolean \c true if the currently selected endpoint is stalled, \c false otherwise.
			 */
			static inline bool Endpoint_IsStalled(void) ATTR_WARN_UNUSED_RESULT ATTR_ALWAYS_INLINE;
			static inline bool Endpoint_IsStalled(void)
			{
				return ((UECONX & (1 << STALLRQ)) ? true : false);
     e88:	20 91 eb 00 	lds	r18, 0x00EB
		  return ENDPOINT_READYWAIT_BusSuspended;
		else if (Endpoint_IsStalled())
     e8c:	25 fd       	sbrc	r18, 5
     e8e:	0f c0       	rjmp	.+30     	; 0xeae <Endpoint_WaitUntilReady+0x4c>
     e90:	20 91 e4 00 	lds	r18, 0x00E4
     e94:	30 91 e5 00 	lds	r19, 0x00E5
		  return ENDPOINT_READYWAIT_EndpointStalled;

		uint16_t CurrentFrameNumber = USB_Device_GetFrameNumber();

		if (CurrentFrameNumber != PreviousFrameNumber)
     e98:	28 17       	cp	r18, r24
     e9a:	39 07       	cpc	r19, r25
     e9c:	39 f3       	breq	.-50     	; 0xe6c <Endpoint_WaitUntilReady+0xa>
     e9e:	41 50       	subi	r20, 0x01	; 1
		{
			PreviousFrameNumber = CurrentFrameNumber;

			if (!(TimeoutMSRem--))
     ea0:	41 f0       	breq	.+16     	; 0xeb2 <Endpoint_WaitUntilReady+0x50>
     ea2:	c9 01       	movw	r24, r18
     ea4:	e3 cf       	rjmp	.-58     	; 0xe6c <Endpoint_WaitUntilReady+0xa>
		}

		uint8_t USB_DeviceState_LCL = USB_DeviceState;

		if (USB_DeviceState_LCL == DEVICE_STATE_Unattached)
		  return ENDPOINT_READYWAIT_DeviceDisconnected;
     ea6:	82 e0       	ldi	r24, 0x02	; 2
     ea8:	08 95       	ret
		else if (USB_DeviceState_LCL == DEVICE_STATE_Suspended)
		  return ENDPOINT_READYWAIT_BusSuspended;
     eaa:	83 e0       	ldi	r24, 0x03	; 3
     eac:	08 95       	ret
		else if (Endpoint_IsStalled())
		  return ENDPOINT_READYWAIT_EndpointStalled;
     eae:	81 e0       	ldi	r24, 0x01	; 1
     eb0:	08 95       	ret
		if (CurrentFrameNumber != PreviousFrameNumber)
		{
			PreviousFrameNumber = CurrentFrameNumber;

			if (!(TimeoutMSRem--))
			  return ENDPOINT_READYWAIT_Timeout;
     eb2:	84 e0       	ldi	r24, 0x04	; 4
     eb4:	08 95       	ret
			 *  \return Boolean \c true if current endpoint is has received an OUT packet, \c false otherwise.
			 */
			static inline bool Endpoint_IsOUTReceived(void) ATTR_WARN_UNUSED_RESULT ATTR_ALWAYS_INLINE;
			static inline bool Endpoint_IsOUTReceived(void)
			{
				return ((UEINTX & (1 << RXOUTI)) ? true : false);
     eb6:	20 91 e8 00 	lds	r18, 0x00E8
			if (Endpoint_IsINReady())
			  return ENDPOINT_READYWAIT_NoError;
		}
		else
		{
			if (Endpoint_IsOUTReceived())
     eba:	22 ff       	sbrs	r18, 2
     ebc:	df cf       	rjmp	.-66     	; 0xe7c <Endpoint_WaitUntilReady+0x1a>
	for (;;)
	{
		if (Endpoint_GetEndpointDirection() == ENDPOINT_DIR_IN)
		{
			if (Endpoint_IsINReady())
			  return ENDPOINT_READYWAIT_NoError;
     ebe:	80 e0       	ldi	r24, 0x00	; 0
     ec0:	08 95       	ret

00000ec2 <USB_ResetInterface>:

	USB_IsInitialized = false;
}

void USB_ResetInterface(void)
{
     ec2:	0f 93       	push	r16
     ec4:	1f 93       	push	r17
     ec6:	cf 93       	push	r28
     ec8:	df 93       	push	r29
	#if defined(USB_CAN_BE_BOTH)
	bool UIDModeSelectEnabled = ((UHWCON & (1 << UIDE)) != 0);
	#endif

	USB_INT_DisableAllInterrupts();
     eca:	4b d0       	rcall	.+150    	; 0xf62 <USB_INT_DisableAllInterrupts>
	USB_INT_ClearAllInterrupts();
     ecc:	52 d0       	rcall	.+164    	; 0xf72 <USB_INT_ClearAllInterrupts>
			}

			static inline void USB_Controller_Reset(void) ATTR_ALWAYS_INLINE;
			static inline void USB_Controller_Reset(void)
			{
				USBCON &= ~(1 << USBE);
     ece:	c8 ed       	ldi	r28, 0xD8	; 216
     ed0:	d0 e0       	ldi	r29, 0x00	; 0
     ed2:	88 81       	ld	r24, Y
     ed4:	8f 77       	andi	r24, 0x7F	; 127
     ed6:	88 83       	st	Y, r24
				USBCON |=  (1 << USBE);
     ed8:	88 81       	ld	r24, Y
     eda:	80 68       	ori	r24, 0x80	; 128
     edc:	88 83       	st	Y, r24
			}

			static inline void USB_CLK_Unfreeze(void) ATTR_ALWAYS_INLINE;
			static inline void USB_CLK_Unfreeze(void)
			{
				USBCON &= ~(1 << FRZCLK);
     ede:	88 81       	ld	r24, Y
     ee0:	8f 7d       	andi	r24, 0xDF	; 223
     ee2:	88 83       	st	Y, r24
			}

			static inline void USB_PLL_Off(void) ATTR_ALWAYS_INLINE;
			static inline void USB_PLL_Off(void)
			{
				PLLCSR = 0;
     ee4:	19 bc       	out	0x29, r1	; 41
}

#if defined(USB_CAN_BE_DEVICE)
static void USB_Init_Device(void)
{
	USB_DeviceState                 = DEVICE_STATE_Unattached;
     ee6:	10 92 a2 01 	sts	0x01A2, r1
	USB_Device_ConfigurationNumber  = 0;
     eea:	10 92 9e 01 	sts	0x019E, r1

	#if !defined(NO_DEVICE_REMOTE_WAKEUP)
	USB_Device_RemoteWakeupEnabled  = false;
     eee:	10 92 a0 01 	sts	0x01A0, r1
	#endif

	#if !defined(NO_DEVICE_SELF_POWER)
	USB_Device_CurrentlySelfPowered = false;
     ef2:	10 92 9f 01 	sts	0x019F, r1
			}

			static inline void USB_Device_SetFullSpeed(void) ATTR_ALWAYS_INLINE;
			static inline void USB_Device_SetFullSpeed(void)
			{
				UDCON &= ~(1 << LSM);
     ef6:	00 ee       	ldi	r16, 0xE0	; 224
     ef8:	10 e0       	ldi	r17, 0x00	; 0
     efa:	f8 01       	movw	r30, r16
     efc:	80 81       	ld	r24, Z
     efe:	8b 7f       	andi	r24, 0xFB	; 251
     f00:	80 83       	st	Z, r24
			{
				switch (Interrupt)
				{
					#if (defined(USB_SERIES_4_AVR) || defined(USB_SERIES_6_AVR) || defined(USB_SERIES_7_AVR))
					case USB_INT_VBUSTI:
						USBCON |= (1 << VBUSTE);
     f02:	88 81       	ld	r24, Y
     f04:	81 60       	ori	r24, 0x01	; 1
     f06:	88 83       	st	Y, r24
				uint8_t Number = (Address & ENDPOINT_EPNUM_MASK);

				if (Number >= ENDPOINT_TOTAL_ENDPOINTS)
				  return false;

				return Endpoint_ConfigureEndpoint_Prv(Number,
     f08:	42 e0       	ldi	r20, 0x02	; 2
     f0a:	60 e0       	ldi	r22, 0x00	; 0
     f0c:	80 e0       	ldi	r24, 0x00	; 0
     f0e:	16 df       	rcall	.-468    	; 0xd3c <Endpoint_ConfigureEndpoint_Prv>
					#if defined(USB_CAN_BE_DEVICE)
					case USB_INT_WAKEUPI:
						UDINT  &= ~(1 << WAKEUPI);
						break;
					case USB_INT_SUSPI:
						UDINT  &= ~(1 << SUSPI);
     f10:	e1 ee       	ldi	r30, 0xE1	; 225
     f12:	f0 e0       	ldi	r31, 0x00	; 0
     f14:	80 81       	ld	r24, Z
     f16:	8e 7f       	andi	r24, 0xFE	; 254
     f18:	80 83       	st	Z, r24
					#if defined(USB_CAN_BE_DEVICE)
					case USB_INT_WAKEUPI:
						UDIEN  |= (1 << WAKEUPE);
						break;
					case USB_INT_SUSPI:
						UDIEN  |= (1 << SUSPE);
     f1a:	e2 ee       	ldi	r30, 0xE2	; 226
     f1c:	f0 e0       	ldi	r31, 0x00	; 0
     f1e:	80 81       	ld	r24, Z
     f20:	81 60       	ori	r24, 0x01	; 1
     f22:	80 83       	st	Z, r24
						break;
					case USB_INT_EORSTI:
						UDIEN  |= (1 << EORSTE);
     f24:	80 81       	ld	r24, Z
     f26:	88 60       	ori	r24, 0x08	; 8
     f28:	80 83       	st	Z, r24
			 *  register and despite the datasheet making no mention of its requirement in host mode.
			 */
			static inline void USB_Attach(void) ATTR_ALWAYS_INLINE;
			static inline void USB_Attach(void)
			{
				UDCON  &= ~(1 << DETACH);
     f2a:	f8 01       	movw	r30, r16
     f2c:	80 81       	ld	r24, Z
     f2e:	8e 7f       	andi	r24, 0xFE	; 254
     f30:	80 83       	st	Z, r24

			#if defined(USB_SERIES_4_AVR) || defined(USB_SERIES_6_AVR) || defined(USB_SERIES_7_AVR)
			static inline void USB_OTGPAD_On(void) ATTR_ALWAYS_INLINE;
			static inline void USB_OTGPAD_On(void)
			{
				USBCON |=  (1 << OTGPADE);
     f32:	88 81       	ld	r24, Y
     f34:	80 61       	ori	r24, 0x10	; 16
     f36:	88 83       	st	Y, r24
	}

	#if (defined(USB_SERIES_4_AVR) || defined(USB_SERIES_6_AVR) || defined(USB_SERIES_7_AVR))
	USB_OTGPAD_On();
	#endif
}
     f38:	df 91       	pop	r29
     f3a:	cf 91       	pop	r28
     f3c:	1f 91       	pop	r17
     f3e:	0f 91       	pop	r16
     f40:	08 95       	ret

00000f42 <USB_Init>:
			}

			static inline void USB_OTGPAD_Off(void) ATTR_ALWAYS_INLINE;
			static inline void USB_OTGPAD_Off(void)
			{
				USBCON &= ~(1 << OTGPADE);
     f42:	e8 ed       	ldi	r30, 0xD8	; 216
     f44:	f0 e0       	ldi	r31, 0x00	; 0
     f46:	80 81       	ld	r24, Z
     f48:	8f 7e       	andi	r24, 0xEF	; 239
     f4a:	80 83       	st	Z, r24

			static inline void USB_REG_On(void) ATTR_ALWAYS_INLINE;
			static inline void USB_REG_On(void)
			{
			#if defined(USB_SERIES_4_AVR) || defined(USB_SERIES_6_AVR) || defined(USB_SERIES_7_AVR)
				UHWCON |=  (1 << UVREGE);
     f4c:	e7 ed       	ldi	r30, 0xD7	; 215
     f4e:	f0 e0       	ldi	r31, 0x00	; 0
     f50:	80 81       	ld	r24, Z
     f52:	81 60       	ori	r24, 0x01	; 1
     f54:	80 83       	st	Z, r24
	  USB_REG_Off();

	if (!(USB_Options & USB_OPT_MANUAL_PLL))
	{
		#if defined(USB_SERIES_4_AVR)
		PLLFRQ = (1 << PDIV2);
     f56:	84 e0       	ldi	r24, 0x04	; 4
     f58:	82 bf       	out	0x32, r24	; 50
		UHWCON &= ~(1 << UIDE);
		USB_CurrentMode = Mode;
	}
	#endif

	USB_IsInitialized = true;
     f5a:	81 e0       	ldi	r24, 0x01	; 1
     f5c:	80 93 a1 01 	sts	0x01A1, r24

	USB_ResetInterface();
     f60:	b0 cf       	rjmp	.-160    	; 0xec2 <USB_ResetInterface>

00000f62 <USB_INT_DisableAllInterrupts>:
void USB_INT_DisableAllInterrupts(void)
{
	#if defined(USB_SERIES_6_AVR) || defined(USB_SERIES_7_AVR)
	USBCON &= ~((1 << VBUSTE) | (1 << IDTE));
	#elif defined(USB_SERIES_4_AVR)
	USBCON &= ~(1 << VBUSTE);
     f62:	e8 ed       	ldi	r30, 0xD8	; 216
     f64:	f0 e0       	ldi	r31, 0x00	; 0
     f66:	80 81       	ld	r24, Z
     f68:	8e 7f       	andi	r24, 0xFE	; 254
     f6a:	80 83       	st	Z, r24
	#if defined(USB_CAN_BE_HOST)
	UHIEN   = 0;
	#endif

	#if defined(USB_CAN_BE_DEVICE)
	UDIEN   = 0;
     f6c:	10 92 e2 00 	sts	0x00E2, r1
     f70:	08 95       	ret

00000f72 <USB_INT_ClearAllInterrupts>:
}

void USB_INT_ClearAllInterrupts(void)
{
	#if defined(USB_SERIES_4_AVR) || defined(USB_SERIES_6_AVR) || defined(USB_SERIES_7_AVR)
	USBINT = 0;
     f72:	10 92 da 00 	sts	0x00DA, r1
	#if defined(USB_CAN_BE_HOST)
	UHINT  = 0;
	#endif

	#if defined(USB_CAN_BE_DEVICE)
	UDINT  = 0;
     f76:	10 92 e1 00 	sts	0x00E1, r1
     f7a:	08 95       	ret

00000f7c <__vector_10>:
	#endif
}

ISR(USB_GEN_vect, ISR_BLOCK)
{
     f7c:	1f 92       	push	r1
     f7e:	0f 92       	push	r0
     f80:	0f b6       	in	r0, 0x3f	; 63
     f82:	0f 92       	push	r0
     f84:	11 24       	eor	r1, r1
     f86:	2f 93       	push	r18
     f88:	3f 93       	push	r19
     f8a:	4f 93       	push	r20
     f8c:	5f 93       	push	r21
     f8e:	6f 93       	push	r22
     f90:	7f 93       	push	r23
     f92:	8f 93       	push	r24
     f94:	9f 93       	push	r25
     f96:	af 93       	push	r26
     f98:	bf 93       	push	r27
     f9a:	ef 93       	push	r30
     f9c:	ff 93       	push	r31
					case USB_INT_SUSPI:
						return (UDINT  & (1 << SUSPI));
					case USB_INT_EORSTI:
						return (UDINT  & (1 << EORSTI));
					case USB_INT_SOFI:
						return (UDINT  & (1 << SOFI));
     f9e:	80 91 e1 00 	lds	r24, 0x00E1
	#if defined(USB_CAN_BE_DEVICE)
	#if !defined(NO_SOF_EVENTS)
	if (USB_INT_HasOccurred(USB_INT_SOFI) && USB_INT_IsEnabled(USB_INT_SOFI))
     fa2:	82 ff       	sbrs	r24, 2
     fa4:	0a c0       	rjmp	.+20     	; 0xfba <__vector_10+0x3e>
					case USB_INT_SUSPI:
						return (UDIEN  & (1 << SUSPE));
					case USB_INT_EORSTI:
						return (UDIEN  & (1 << EORSTE));
					case USB_INT_SOFI:
						return (UDIEN  & (1 << SOFE));
     fa6:	80 91 e2 00 	lds	r24, 0x00E2
     faa:	82 ff       	sbrs	r24, 2
     fac:	06 c0       	rjmp	.+12     	; 0xfba <__vector_10+0x3e>
						break;
					case USB_INT_EORSTI:
						UDINT  &= ~(1 << EORSTI);
						break;
					case USB_INT_SOFI:
						UDINT  &= ~(1 << SOFI);
     fae:	80 91 e1 00 	lds	r24, 0x00E1
     fb2:	8b 7f       	andi	r24, 0xFB	; 251
     fb4:	80 93 e1 00 	sts	0x00E1, r24
	{
		USB_INT_Clear(USB_INT_SOFI);

		EVENT_USB_Device_StartOfFrame();
     fb8:	38 d2       	rcall	.+1136   	; 0x142a <USB_Event_Stub>
			{
				switch (Interrupt)
				{
					#if (defined(USB_SERIES_4_AVR) || defined(USB_SERIES_6_AVR) || defined(USB_SERIES_7_AVR))
					case USB_INT_VBUSTI:
						return (USBINT & (1 << VBUSTI));
     fba:	80 91 da 00 	lds	r24, 0x00DA
	}
	#endif

	#if defined(USB_SERIES_4_AVR) || defined(USB_SERIES_6_AVR) || defined(USB_SERIES_7_AVR)
	if (USB_INT_HasOccurred(USB_INT_VBUSTI) && USB_INT_IsEnabled(USB_INT_VBUSTI))
     fbe:	80 ff       	sbrs	r24, 0
     fc0:	1d c0       	rjmp	.+58     	; 0xffc <__vector_10+0x80>
			{
				switch (Interrupt)
				{
					#if (defined(USB_SERIES_4_AVR) || defined(USB_SERIES_6_AVR) || defined(USB_SERIES_7_AVR))
					case USB_INT_VBUSTI:
						return (USBCON & (1 << VBUSTE));
     fc2:	80 91 d8 00 	lds	r24, 0x00D8
     fc6:	80 ff       	sbrs	r24, 0
     fc8:	19 c0       	rjmp	.+50     	; 0xffc <__vector_10+0x80>
			{
				switch (Interrupt)
				{
					#if (defined(USB_SERIES_4_AVR) || defined(USB_SERIES_6_AVR) || defined(USB_SERIES_7_AVR))
					case USB_INT_VBUSTI:
						USBINT &= ~(1 << VBUSTI);
     fca:	80 91 da 00 	lds	r24, 0x00DA
     fce:	8e 7f       	andi	r24, 0xFE	; 254
     fd0:	80 93 da 00 	sts	0x00DA, r24
				 *  \return Boolean \c true if the VBUS line is currently detecting power from a host, \c false otherwise.
				 */
				static inline bool USB_VBUS_GetStatus(void) ATTR_WARN_UNUSED_RESULT ATTR_ALWAYS_INLINE;
				static inline bool USB_VBUS_GetStatus(void)
				{
					return ((USBSTA & (1 << VBUS)) ? true : false);
     fd4:	80 91 d9 00 	lds	r24, 0x00D9
	{
		USB_INT_Clear(USB_INT_VBUSTI);

		if (USB_VBUS_GetStatus())
     fd8:	80 ff       	sbrs	r24, 0
     fda:	0c c0       	rjmp	.+24     	; 0xff4 <__vector_10+0x78>

		/* Inline Functions: */
			static inline void USB_PLL_On(void) ATTR_ALWAYS_INLINE;
			static inline void USB_PLL_On(void)
			{
				PLLCSR = USB_PLL_PSC;
     fdc:	80 e1       	ldi	r24, 0x10	; 16
     fde:	89 bd       	out	0x29, r24	; 41
				PLLCSR = (USB_PLL_PSC | (1 << PLLE));
     fe0:	82 e1       	ldi	r24, 0x12	; 18
     fe2:	89 bd       	out	0x29, r24	; 41
		{
			if (!(USB_Options & USB_OPT_MANUAL_PLL))
			{
				USB_PLL_On();
				while (!(USB_PLL_IsReady()));
     fe4:	09 b4       	in	r0, 0x29	; 41
     fe6:	00 fe       	sbrs	r0, 0
     fe8:	fd cf       	rjmp	.-6      	; 0xfe4 <__vector_10+0x68>
			}

			USB_DeviceState = DEVICE_STATE_Powered;
     fea:	81 e0       	ldi	r24, 0x01	; 1
     fec:	80 93 a2 01 	sts	0x01A2, r24
			EVENT_USB_Device_Connect();
     ff0:	7c d3       	rcall	.+1784   	; 0x16ea <EVENT_USB_Device_Connect>
     ff2:	04 c0       	rjmp	.+8      	; 0xffc <__vector_10+0x80>
			}

			static inline void USB_PLL_Off(void) ATTR_ALWAYS_INLINE;
			static inline void USB_PLL_Off(void)
			{
				PLLCSR = 0;
     ff4:	19 bc       	out	0x29, r1	; 41
		else
		{
			if (!(USB_Options & USB_OPT_MANUAL_PLL))
			  USB_PLL_Off();

			USB_DeviceState = DEVICE_STATE_Unattached;
     ff6:	10 92 a2 01 	sts	0x01A2, r1
			EVENT_USB_Device_Disconnect();
     ffa:	84 d3       	rcall	.+1800   	; 0x1704 <EVENT_USB_Device_Disconnect>
					#endif
					#if defined(USB_CAN_BE_DEVICE)
					case USB_INT_WAKEUPI:
						return (UDINT  & (1 << WAKEUPI));
					case USB_INT_SUSPI:
						return (UDINT  & (1 << SUSPI));
     ffc:	80 91 e1 00 	lds	r24, 0x00E1
		}
	}
	#endif

	if (USB_INT_HasOccurred(USB_INT_SUSPI) && USB_INT_IsEnabled(USB_INT_SUSPI))
    1000:	80 ff       	sbrs	r24, 0
    1002:	18 c0       	rjmp	.+48     	; 0x1034 <__vector_10+0xb8>
					#endif
					#if defined(USB_CAN_BE_DEVICE)
					case USB_INT_WAKEUPI:
						return (UDIEN  & (1 << WAKEUPE));
					case USB_INT_SUSPI:
						return (UDIEN  & (1 << SUSPE));
    1004:	80 91 e2 00 	lds	r24, 0x00E2
    1008:	80 ff       	sbrs	r24, 0
    100a:	14 c0       	rjmp	.+40     	; 0x1034 <__vector_10+0xb8>
					#if defined(USB_CAN_BE_DEVICE)
					case USB_INT_WAKEUPI:
						UDIEN  &= ~(1 << WAKEUPE);
						break;
					case USB_INT_SUSPI:
						UDIEN  &= ~(1 << SUSPE);
    100c:	80 91 e2 00 	lds	r24, 0x00E2
    1010:	8e 7f       	andi	r24, 0xFE	; 254
    1012:	80 93 e2 00 	sts	0x00E2, r24
						USBCON |= (1 << IDTE);
						break;
					#endif
					#if defined(USB_CAN_BE_DEVICE)
					case USB_INT_WAKEUPI:
						UDIEN  |= (1 << WAKEUPE);
    1016:	80 91 e2 00 	lds	r24, 0x00E2
    101a:	80 61       	ori	r24, 0x10	; 16
    101c:	80 93 e2 00 	sts	0x00E2, r24
			#endif

			static inline void USB_CLK_Freeze(void) ATTR_ALWAYS_INLINE;
			static inline void USB_CLK_Freeze(void)
			{
				USBCON |=  (1 << FRZCLK);
    1020:	80 91 d8 00 	lds	r24, 0x00D8
    1024:	80 62       	ori	r24, 0x20	; 32
    1026:	80 93 d8 00 	sts	0x00D8, r24
			}

			static inline void USB_PLL_Off(void) ATTR_ALWAYS_INLINE;
			static inline void USB_PLL_Off(void)
			{
				PLLCSR = 0;
    102a:	19 bc       	out	0x29, r1	; 41

		#if defined(USB_SERIES_2_AVR) && !defined(NO_LIMITED_CONTROLLER_CONNECT)
		USB_DeviceState = DEVICE_STATE_Unattached;
		EVENT_USB_Device_Disconnect();
		#else
		USB_DeviceState = DEVICE_STATE_Suspended;
    102c:	85 e0       	ldi	r24, 0x05	; 5
    102e:	80 93 a2 01 	sts	0x01A2, r24
		EVENT_USB_Device_Suspend();
    1032:	fb d1       	rcall	.+1014   	; 0x142a <USB_Event_Stub>
					case USB_INT_IDTI:
						return (USBINT & (1 << IDTI));
					#endif
					#if defined(USB_CAN_BE_DEVICE)
					case USB_INT_WAKEUPI:
						return (UDINT  & (1 << WAKEUPI));
    1034:	80 91 e1 00 	lds	r24, 0x00E1
		#endif
	}

	if (USB_INT_HasOccurred(USB_INT_WAKEUPI) && USB_INT_IsEnabled(USB_INT_WAKEUPI))
    1038:	84 ff       	sbrs	r24, 4
    103a:	2f c0       	rjmp	.+94     	; 0x109a <__vector_10+0x11e>
					case USB_INT_IDTI:
						return (USBCON & (1 << IDTE));
					#endif
					#if defined(USB_CAN_BE_DEVICE)
					case USB_INT_WAKEUPI:
						return (UDIEN  & (1 << WAKEUPE));
    103c:	80 91 e2 00 	lds	r24, 0x00E2
    1040:	84 ff       	sbrs	r24, 4
    1042:	2b c0       	rjmp	.+86     	; 0x109a <__vector_10+0x11e>

		/* Inline Functions: */
			static inline void USB_PLL_On(void) ATTR_ALWAYS_INLINE;
			static inline void USB_PLL_On(void)
			{
				PLLCSR = USB_PLL_PSC;
    1044:	80 e1       	ldi	r24, 0x10	; 16
    1046:	89 bd       	out	0x29, r24	; 41
				PLLCSR = (USB_PLL_PSC | (1 << PLLE));
    1048:	82 e1       	ldi	r24, 0x12	; 18
    104a:	89 bd       	out	0x29, r24	; 41
	{
		if (!(USB_Options & USB_OPT_MANUAL_PLL))
		{
			USB_PLL_On();
			while (!(USB_PLL_IsReady()));
    104c:	09 b4       	in	r0, 0x29	; 41
    104e:	00 fe       	sbrs	r0, 0
    1050:	fd cf       	rjmp	.-6      	; 0x104c <__vector_10+0xd0>
			}

			static inline void USB_CLK_Unfreeze(void) ATTR_ALWAYS_INLINE;
			static inline void USB_CLK_Unfreeze(void)
			{
				USBCON &= ~(1 << FRZCLK);
    1052:	80 91 d8 00 	lds	r24, 0x00D8
    1056:	8f 7d       	andi	r24, 0xDF	; 223
    1058:	80 93 d8 00 	sts	0x00D8, r24
						USBINT &= ~(1 << IDTI);
						break;
					#endif
					#if defined(USB_CAN_BE_DEVICE)
					case USB_INT_WAKEUPI:
						UDINT  &= ~(1 << WAKEUPI);
    105c:	80 91 e1 00 	lds	r24, 0x00E1
    1060:	8f 7e       	andi	r24, 0xEF	; 239
    1062:	80 93 e1 00 	sts	0x00E1, r24
						USBCON &= ~(1 << IDTE);
						break;
					#endif
					#if defined(USB_CAN_BE_DEVICE)
					case USB_INT_WAKEUPI:
						UDIEN  &= ~(1 << WAKEUPE);
    1066:	80 91 e2 00 	lds	r24, 0x00E2
    106a:	8f 7e       	andi	r24, 0xEF	; 239
    106c:	80 93 e2 00 	sts	0x00E2, r24
					#if defined(USB_CAN_BE_DEVICE)
					case USB_INT_WAKEUPI:
						UDIEN  |= (1 << WAKEUPE);
						break;
					case USB_INT_SUSPI:
						UDIEN  |= (1 << SUSPE);
    1070:	80 91 e2 00 	lds	r24, 0x00E2
    1074:	81 60       	ori	r24, 0x01	; 1
    1076:	80 93 e2 00 	sts	0x00E2, r24
		USB_INT_Clear(USB_INT_WAKEUPI);

		USB_INT_Disable(USB_INT_WAKEUPI);
		USB_INT_Enable(USB_INT_SUSPI);

		if (USB_Device_ConfigurationNumber)
    107a:	80 91 9e 01 	lds	r24, 0x019E
    107e:	88 23       	and	r24, r24
    1080:	11 f0       	breq	.+4      	; 0x1086 <__vector_10+0x10a>
		  USB_DeviceState = DEVICE_STATE_Configured;
    1082:	84 e0       	ldi	r24, 0x04	; 4
    1084:	07 c0       	rjmp	.+14     	; 0x1094 <__vector_10+0x118>
			}

			static inline bool USB_Device_IsAddressSet(void) ATTR_ALWAYS_INLINE ATTR_WARN_UNUSED_RESULT;
			static inline bool USB_Device_IsAddressSet(void)
			{
				return (UDADDR & (1 << ADDEN));
    1086:	80 91 e3 00 	lds	r24, 0x00E3
		else
		  USB_DeviceState = (USB_Device_IsAddressSet()) ? DEVICE_STATE_Addressed : DEVICE_STATE_Powered;
    108a:	87 ff       	sbrs	r24, 7
    108c:	02 c0       	rjmp	.+4      	; 0x1092 <__vector_10+0x116>
    108e:	83 e0       	ldi	r24, 0x03	; 3
    1090:	01 c0       	rjmp	.+2      	; 0x1094 <__vector_10+0x118>
    1092:	81 e0       	ldi	r24, 0x01	; 1
    1094:	80 93 a2 01 	sts	0x01A2, r24

		#if defined(USB_SERIES_2_AVR) && !defined(NO_LIMITED_CONTROLLER_CONNECT)
		EVENT_USB_Device_Connect();
		#else
		EVENT_USB_Device_WakeUp();
    1098:	c8 d1       	rcall	.+912    	; 0x142a <USB_Event_Stub>
					case USB_INT_WAKEUPI:
						return (UDINT  & (1 << WAKEUPI));
					case USB_INT_SUSPI:
						return (UDINT  & (1 << SUSPI));
					case USB_INT_EORSTI:
						return (UDINT  & (1 << EORSTI));
    109a:	80 91 e1 00 	lds	r24, 0x00E1
		#endif
	}

	if (USB_INT_HasOccurred(USB_INT_EORSTI) && USB_INT_IsEnabled(USB_INT_EORSTI))
    109e:	83 ff       	sbrs	r24, 3
    10a0:	27 c0       	rjmp	.+78     	; 0x10f0 <__vector_10+0x174>
					case USB_INT_WAKEUPI:
						return (UDIEN  & (1 << WAKEUPE));
					case USB_INT_SUSPI:
						return (UDIEN  & (1 << SUSPE));
					case USB_INT_EORSTI:
						return (UDIEN  & (1 << EORSTE));
    10a2:	80 91 e2 00 	lds	r24, 0x00E2
    10a6:	83 ff       	sbrs	r24, 3
    10a8:	23 c0       	rjmp	.+70     	; 0x10f0 <__vector_10+0x174>
						break;
					case USB_INT_SUSPI:
						UDINT  &= ~(1 << SUSPI);
						break;
					case USB_INT_EORSTI:
						UDINT  &= ~(1 << EORSTI);
    10aa:	80 91 e1 00 	lds	r24, 0x00E1
    10ae:	87 7f       	andi	r24, 0xF7	; 247
    10b0:	80 93 e1 00 	sts	0x00E1, r24
	{
		USB_INT_Clear(USB_INT_EORSTI);

		USB_DeviceState                = DEVICE_STATE_Default;
    10b4:	82 e0       	ldi	r24, 0x02	; 2
    10b6:	80 93 a2 01 	sts	0x01A2, r24
		USB_Device_ConfigurationNumber = 0;
    10ba:	10 92 9e 01 	sts	0x019E, r1
					#if defined(USB_CAN_BE_DEVICE)
					case USB_INT_WAKEUPI:
						UDINT  &= ~(1 << WAKEUPI);
						break;
					case USB_INT_SUSPI:
						UDINT  &= ~(1 << SUSPI);
    10be:	80 91 e1 00 	lds	r24, 0x00E1
    10c2:	8e 7f       	andi	r24, 0xFE	; 254
    10c4:	80 93 e1 00 	sts	0x00E1, r24
					#if defined(USB_CAN_BE_DEVICE)
					case USB_INT_WAKEUPI:
						UDIEN  &= ~(1 << WAKEUPE);
						break;
					case USB_INT_SUSPI:
						UDIEN  &= ~(1 << SUSPE);
    10c8:	80 91 e2 00 	lds	r24, 0x00E2
    10cc:	8e 7f       	andi	r24, 0xFE	; 254
    10ce:	80 93 e2 00 	sts	0x00E2, r24
						USBCON |= (1 << IDTE);
						break;
					#endif
					#if defined(USB_CAN_BE_DEVICE)
					case USB_INT_WAKEUPI:
						UDIEN  |= (1 << WAKEUPE);
    10d2:	80 91 e2 00 	lds	r24, 0x00E2
    10d6:	80 61       	ori	r24, 0x10	; 16
    10d8:	80 93 e2 00 	sts	0x00E2, r24
				uint8_t Number = (Address & ENDPOINT_EPNUM_MASK);

				if (Number >= ENDPOINT_TOTAL_ENDPOINTS)
				  return false;

				return Endpoint_ConfigureEndpoint_Prv(Number,
    10dc:	42 e0       	ldi	r20, 0x02	; 2
    10de:	60 e0       	ldi	r22, 0x00	; 0
    10e0:	80 e0       	ldi	r24, 0x00	; 0
    10e2:	2c de       	rcall	.-936    	; 0xd3c <Endpoint_ConfigureEndpoint_Prv>
						break;
					case USB_INT_SOFI:
						UDIEN  |= (1 << SOFE);
						break;
					case USB_INT_RXSTPI:
						UEIENX |= (1 << RXSTPE);
    10e4:	80 91 f0 00 	lds	r24, 0x00F0
    10e8:	88 60       	ori	r24, 0x08	; 8
    10ea:	80 93 f0 00 	sts	0x00F0, r24

		#if defined(INTERRUPT_CONTROL_ENDPOINT)
		USB_INT_Enable(USB_INT_RXSTPI);
		#endif

		EVENT_USB_Device_Reset();
    10ee:	9d d1       	rcall	.+826    	; 0x142a <USB_Event_Stub>
		USB_ResetInterface();

		EVENT_USB_UIDChange();
	}
	#endif
}
    10f0:	ff 91       	pop	r31
    10f2:	ef 91       	pop	r30
    10f4:	bf 91       	pop	r27
    10f6:	af 91       	pop	r26
    10f8:	9f 91       	pop	r25
    10fa:	8f 91       	pop	r24
    10fc:	7f 91       	pop	r23
    10fe:	6f 91       	pop	r22
    1100:	5f 91       	pop	r21
    1102:	4f 91       	pop	r20
    1104:	3f 91       	pop	r19
    1106:	2f 91       	pop	r18
    1108:	0f 90       	pop	r0
    110a:	0f be       	out	0x3f, r0	; 63
    110c:	0f 90       	pop	r0
    110e:	1f 90       	pop	r1
    1110:	18 95       	reti

00001112 <__vector_11>:

#if defined(INTERRUPT_CONTROL_ENDPOINT) && defined(USB_CAN_BE_DEVICE)
ISR(USB_COM_vect, ISR_BLOCK)
{
    1112:	1f 92       	push	r1
    1114:	0f 92       	push	r0
    1116:	0f b6       	in	r0, 0x3f	; 63
    1118:	0f 92       	push	r0
    111a:	11 24       	eor	r1, r1
    111c:	2f 93       	push	r18
    111e:	3f 93       	push	r19
    1120:	4f 93       	push	r20
    1122:	5f 93       	push	r21
    1124:	6f 93       	push	r22
    1126:	7f 93       	push	r23
    1128:	8f 93       	push	r24
    112a:	9f 93       	push	r25
    112c:	af 93       	push	r26
    112e:	bf 93       	push	r27
    1130:	cf 93       	push	r28
    1132:	ef 93       	push	r30
    1134:	ff 93       	push	r31
			 */
			static inline uint8_t Endpoint_GetCurrentEndpoint(void) ATTR_WARN_UNUSED_RESULT ATTR_ALWAYS_INLINE;
			static inline uint8_t Endpoint_GetCurrentEndpoint(void)
			{
				#if !defined(CONTROL_ONLY_DEVICE)
					return ((UENUM & ENDPOINT_EPNUM_MASK) | Endpoint_GetEndpointDirection());
    1136:	c0 91 e9 00 	lds	r28, 0x00E9
    113a:	cf 70       	andi	r28, 0x0F	; 15
			 *  \return The currently selected endpoint's direction, as a \c ENDPOINT_DIR_* mask.
			 */
			static inline uint8_t Endpoint_GetEndpointDirection(void) ATTR_WARN_UNUSED_RESULT ATTR_ALWAYS_INLINE;
			static inline uint8_t Endpoint_GetEndpointDirection(void)
			{
				return (UECFG0X & (1 << EPDIR)) ? ENDPOINT_DIR_IN : ENDPOINT_DIR_OUT;
    113c:	80 91 ec 00 	lds	r24, 0x00EC
			 */
			static inline void Endpoint_SelectEndpoint(const uint8_t Address) ATTR_ALWAYS_INLINE;
			static inline void Endpoint_SelectEndpoint(const uint8_t Address)
			{
				#if !defined(CONTROL_ONLY_DEVICE)
					UENUM = (Address & ENDPOINT_EPNUM_MASK);
    1140:	10 92 e9 00 	sts	0x00E9, r1
						break;
					case USB_INT_SOFI:
						UDIEN  &= ~(1 << SOFE);
						break;
					case USB_INT_RXSTPI:
						UEIENX &= ~(1 << RXSTPE);
    1144:	80 91 f0 00 	lds	r24, 0x00F0
    1148:	87 7f       	andi	r24, 0xF7	; 247
    114a:	80 93 f0 00 	sts	0x00F0, r24
			static inline void GlobalInterruptEnable(void)
			{
				GCC_MEMORY_BARRIER();

				#if (ARCH == ARCH_AVR8)
				sei();
    114e:	78 94       	sei
	Endpoint_SelectEndpoint(ENDPOINT_CONTROLEP);
	USB_INT_Disable(USB_INT_RXSTPI);

	GlobalInterruptEnable();

	USB_Device_ProcessControlRequest();
    1150:	1b d0       	rcall	.+54     	; 0x1188 <USB_Device_ProcessControlRequest>
    1152:	10 92 e9 00 	sts	0x00E9, r1
						break;
					case USB_INT_SOFI:
						UDIEN  |= (1 << SOFE);
						break;
					case USB_INT_RXSTPI:
						UEIENX |= (1 << RXSTPE);
    1156:	80 91 f0 00 	lds	r24, 0x00F0
    115a:	88 60       	ori	r24, 0x08	; 8
    115c:	80 93 f0 00 	sts	0x00F0, r24
    1160:	c0 93 e9 00 	sts	0x00E9, r28

	Endpoint_SelectEndpoint(ENDPOINT_CONTROLEP);
	USB_INT_Enable(USB_INT_RXSTPI);
	Endpoint_SelectEndpoint(PrevSelectedEndpoint);
}
    1164:	ff 91       	pop	r31
    1166:	ef 91       	pop	r30
    1168:	cf 91       	pop	r28
    116a:	bf 91       	pop	r27
    116c:	af 91       	pop	r26
    116e:	9f 91       	pop	r25
    1170:	8f 91       	pop	r24
    1172:	7f 91       	pop	r23
    1174:	6f 91       	pop	r22
    1176:	5f 91       	pop	r21
    1178:	4f 91       	pop	r20
    117a:	3f 91       	pop	r19
    117c:	2f 91       	pop	r18
    117e:	0f 90       	pop	r0
    1180:	0f be       	out	0x3f, r0	; 63
    1182:	0f 90       	pop	r0
    1184:	1f 90       	pop	r1
    1186:	18 95       	reti

00001188 <USB_Device_ProcessControlRequest>:
#if !defined(NO_DEVICE_REMOTE_WAKEUP)
bool    USB_Device_RemoteWakeupEnabled;
#endif

void USB_Device_ProcessControlRequest(void)
{
    1188:	1f 93       	push	r17
    118a:	cf 93       	push	r28
    118c:	df 93       	push	r29
    118e:	cd b7       	in	r28, 0x3d	; 61
    1190:	de b7       	in	r29, 0x3e	; 62
    1192:	aa 97       	sbiw	r28, 0x2a	; 42
    1194:	0f b6       	in	r0, 0x3f	; 63
    1196:	f8 94       	cli
    1198:	de bf       	out	0x3e, r29	; 62
    119a:	0f be       	out	0x3f, r0	; 63
    119c:	cd bf       	out	0x3d, r28	; 61
    119e:	e3 ea       	ldi	r30, 0xA3	; 163
    11a0:	f1 e0       	ldi	r31, 0x01	; 1
			 *  \return Next byte in the currently selected endpoint's FIFO buffer.
			 */
			static inline uint8_t Endpoint_Read_8(void) ATTR_WARN_UNUSED_RESULT ATTR_ALWAYS_INLINE;
			static inline uint8_t Endpoint_Read_8(void)
			{
				return UEDATX;
    11a2:	80 91 f1 00 	lds	r24, 0x00F1
	USB_ControlRequest.wLength       = Endpoint_Read_16_LE();
	#else
	uint8_t* RequestHeader = (uint8_t*)&USB_ControlRequest;

	for (uint8_t RequestHeaderByte = 0; RequestHeaderByte < sizeof(USB_Request_Header_t); RequestHeaderByte++)
	  *(RequestHeader++) = Endpoint_Read_8();
    11a6:	81 93       	st	Z+, r24
	USB_ControlRequest.wIndex        = Endpoint_Read_16_LE();
	USB_ControlRequest.wLength       = Endpoint_Read_16_LE();
	#else
	uint8_t* RequestHeader = (uint8_t*)&USB_ControlRequest;

	for (uint8_t RequestHeaderByte = 0; RequestHeaderByte < sizeof(USB_Request_Header_t); RequestHeaderByte++)
    11a8:	21 e0       	ldi	r18, 0x01	; 1
    11aa:	eb 3a       	cpi	r30, 0xAB	; 171
    11ac:	f2 07       	cpc	r31, r18
    11ae:	c9 f7       	brne	.-14     	; 0x11a2 <USB_Device_ProcessControlRequest+0x1a>
	  *(RequestHeader++) = Endpoint_Read_8();
	#endif

	EVENT_USB_Device_ControlRequest();
    11b0:	c6 d2       	rcall	.+1420   	; 0x173e <EVENT_USB_Device_ControlRequest>
			 *  \return Boolean \c true if the selected endpoint has received a SETUP packet, \c false otherwise.
			 */
			static inline bool Endpoint_IsSETUPReceived(void) ATTR_WARN_UNUSED_RESULT ATTR_ALWAYS_INLINE;
			static inline bool Endpoint_IsSETUPReceived(void)
			{
				return ((UEINTX & (1 << RXSTPI)) ? true : false);
    11b2:	80 91 e8 00 	lds	r24, 0x00E8

	if (Endpoint_IsSETUPReceived())
    11b6:	83 ff       	sbrs	r24, 3
    11b8:	20 c1       	rjmp	.+576    	; 0x13fa <USB_Device_ProcessControlRequest+0x272>
	{
		uint8_t bmRequestType = USB_ControlRequest.bmRequestType;
    11ba:	90 91 a3 01 	lds	r25, 0x01A3

		switch (USB_ControlRequest.bRequest)
    11be:	80 91 a4 01 	lds	r24, 0x01A4
    11c2:	85 30       	cpi	r24, 0x05	; 5
    11c4:	09 f4       	brne	.+2      	; 0x11c8 <USB_Device_ProcessControlRequest+0x40>
    11c6:	77 c0       	rjmp	.+238    	; 0x12b6 <USB_Device_ProcessControlRequest+0x12e>
    11c8:	30 f4       	brcc	.+12     	; 0x11d6 <USB_Device_ProcessControlRequest+0x4e>
    11ca:	81 30       	cpi	r24, 0x01	; 1
    11cc:	81 f1       	breq	.+96     	; 0x122e <USB_Device_ProcessControlRequest+0xa6>
    11ce:	68 f0       	brcs	.+26     	; 0x11ea <USB_Device_ProcessControlRequest+0x62>
    11d0:	83 30       	cpi	r24, 0x03	; 3
    11d2:	69 f1       	breq	.+90     	; 0x122e <USB_Device_ProcessControlRequest+0xa6>
    11d4:	12 c1       	rjmp	.+548    	; 0x13fa <USB_Device_ProcessControlRequest+0x272>
    11d6:	88 30       	cpi	r24, 0x08	; 8
    11d8:	09 f4       	brne	.+2      	; 0x11dc <USB_Device_ProcessControlRequest+0x54>
    11da:	e1 c0       	rjmp	.+450    	; 0x139e <USB_Device_ProcessControlRequest+0x216>
    11dc:	89 30       	cpi	r24, 0x09	; 9
    11de:	09 f4       	brne	.+2      	; 0x11e2 <USB_Device_ProcessControlRequest+0x5a>
    11e0:	f0 c0       	rjmp	.+480    	; 0x13c2 <USB_Device_ProcessControlRequest+0x23a>
    11e2:	86 30       	cpi	r24, 0x06	; 6
    11e4:	09 f0       	breq	.+2      	; 0x11e8 <USB_Device_ProcessControlRequest+0x60>
    11e6:	09 c1       	rjmp	.+530    	; 0x13fa <USB_Device_ProcessControlRequest+0x272>
    11e8:	88 c0       	rjmp	.+272    	; 0x12fa <USB_Device_ProcessControlRequest+0x172>
		{
			case REQ_GetStatus:
				if ((bmRequestType == (REQDIR_DEVICETOHOST | REQTYPE_STANDARD | REQREC_DEVICE)) ||
    11ea:	90 38       	cpi	r25, 0x80	; 128
    11ec:	81 f0       	breq	.+32     	; 0x120e <USB_Device_ProcessControlRequest+0x86>
    11ee:	92 38       	cpi	r25, 0x82	; 130
    11f0:	09 f0       	breq	.+2      	; 0x11f4 <USB_Device_ProcessControlRequest+0x6c>
    11f2:	03 c1       	rjmp	.+518    	; 0x13fa <USB_Device_ProcessControlRequest+0x272>
			 */
			static inline void Endpoint_SelectEndpoint(const uint8_t Address) ATTR_ALWAYS_INLINE;
			static inline void Endpoint_SelectEndpoint(const uint8_t Address)
			{
				#if !defined(CONTROL_ONLY_DEVICE)
					UENUM = (Address & ENDPOINT_EPNUM_MASK);
    11f4:	80 91 a7 01 	lds	r24, 0x01A7
    11f8:	8f 70       	andi	r24, 0x0F	; 15
    11fa:	80 93 e9 00 	sts	0x00E9, r24
			 *  \return Boolean \c true if the currently selected endpoint is stalled, \c false otherwise.
			 */
			static inline bool Endpoint_IsStalled(void) ATTR_WARN_UNUSED_RESULT ATTR_ALWAYS_INLINE;
			static inline bool Endpoint_IsStalled(void)
			{
				return ((UECONX & (1 << STALLRQ)) ? true : false);
    11fe:	80 91 eb 00 	lds	r24, 0x00EB
    1202:	85 fb       	bst	r24, 5
    1204:	88 27       	eor	r24, r24
    1206:	80 f9       	bld	r24, 0
			 */
			static inline void Endpoint_SelectEndpoint(const uint8_t Address) ATTR_ALWAYS_INLINE;
			static inline void Endpoint_SelectEndpoint(const uint8_t Address)
			{
				#if !defined(CONTROL_ONLY_DEVICE)
					UENUM = (Address & ENDPOINT_EPNUM_MASK);
    1208:	10 92 e9 00 	sts	0x00E9, r1
    120c:	06 c0       	rjmp	.+12     	; 0x121a <USB_Device_ProcessControlRequest+0x92>
	Endpoint_ClearOUT();
}

static void USB_Device_GetStatus(void)
{
	uint8_t CurrentStatus = 0;
    120e:	80 91 9f 01 	lds	r24, 0x019F
			if (USB_Device_CurrentlySelfPowered)
			  CurrentStatus |= FEATURE_SELFPOWERED_ENABLED;
			#endif

			#if !defined(NO_DEVICE_REMOTE_WAKEUP)
			if (USB_Device_RemoteWakeupEnabled)
    1212:	90 91 a0 01 	lds	r25, 0x01A0
    1216:	91 11       	cpse	r25, r1
			  CurrentStatus |= FEATURE_REMOTE_WAKEUP_ENABLED;
    1218:	82 60       	ori	r24, 0x02	; 2
			 *  \note This is not applicable for non CONTROL type endpoints.
			 */
			static inline void Endpoint_ClearSETUP(void) ATTR_ALWAYS_INLINE;
			static inline void Endpoint_ClearSETUP(void)
			{
				UEINTX &= ~(1 << RXSTPI);
    121a:	90 91 e8 00 	lds	r25, 0x00E8
    121e:	97 7f       	andi	r25, 0xF7	; 247
    1220:	90 93 e8 00 	sts	0x00E8, r25
			 *  \param[in] Data  Data to write to the currently selected endpoint's FIFO buffer.
			 */
			static inline void Endpoint_Write_16_LE(const uint16_t Data) ATTR_ALWAYS_INLINE;
			static inline void Endpoint_Write_16_LE(const uint16_t Data)
			{
				UEDATX = (Data & 0xFF);
    1224:	80 93 f1 00 	sts	0x00F1, r24
				UEDATX = (Data >> 8);
    1228:	10 92 f1 00 	sts	0x00F1, r1
    122c:	c3 c0       	rjmp	.+390    	; 0x13b4 <USB_Device_ProcessControlRequest+0x22c>
				}

				break;
			case REQ_ClearFeature:
			case REQ_SetFeature:
				if ((bmRequestType == (REQDIR_HOSTTODEVICE | REQTYPE_STANDARD | REQREC_DEVICE)) ||
    122e:	29 2f       	mov	r18, r25
    1230:	2d 7f       	andi	r18, 0xFD	; 253
    1232:	09 f0       	breq	.+2      	; 0x1236 <USB_Device_ProcessControlRequest+0xae>
    1234:	e2 c0       	rjmp	.+452    	; 0x13fa <USB_Device_ProcessControlRequest+0x272>
	Endpoint_ClearStatusStage();
}

static void USB_Device_ClearSetFeature(void)
{
	switch (USB_ControlRequest.bmRequestType & CONTROL_REQTYPE_RECIPIENT)
    1236:	99 23       	and	r25, r25
    1238:	19 f0       	breq	.+6      	; 0x1240 <USB_Device_ProcessControlRequest+0xb8>
    123a:	92 30       	cpi	r25, 0x02	; 2
    123c:	61 f0       	breq	.+24     	; 0x1256 <USB_Device_ProcessControlRequest+0xce>
    123e:	dd c0       	rjmp	.+442    	; 0x13fa <USB_Device_ProcessControlRequest+0x272>
	{
		#if !defined(NO_DEVICE_REMOTE_WAKEUP)
		case REQREC_DEVICE:
			if ((uint8_t)USB_ControlRequest.wValue == FEATURE_SEL_DeviceRemoteWakeup)
    1240:	90 91 a5 01 	lds	r25, 0x01A5
    1244:	91 30       	cpi	r25, 0x01	; 1
    1246:	09 f0       	breq	.+2      	; 0x124a <USB_Device_ProcessControlRequest+0xc2>
    1248:	d8 c0       	rjmp	.+432    	; 0x13fa <USB_Device_ProcessControlRequest+0x272>
			  USB_Device_RemoteWakeupEnabled = (USB_ControlRequest.bRequest == REQ_SetFeature);
    124a:	83 30       	cpi	r24, 0x03	; 3
    124c:	09 f0       	breq	.+2      	; 0x1250 <USB_Device_ProcessControlRequest+0xc8>
    124e:	90 e0       	ldi	r25, 0x00	; 0
    1250:	90 93 a0 01 	sts	0x01A0, r25
    1254:	2a c0       	rjmp	.+84     	; 0x12aa <USB_Device_ProcessControlRequest+0x122>

			break;
		#endif
		#if !defined(CONTROL_ONLY_DEVICE)
		case REQREC_ENDPOINT:
			if ((uint8_t)USB_ControlRequest.wValue == FEATURE_SEL_EndpointHalt)
    1256:	90 91 a5 01 	lds	r25, 0x01A5
    125a:	91 11       	cpse	r25, r1
    125c:	26 c0       	rjmp	.+76     	; 0x12aa <USB_Device_ProcessControlRequest+0x122>
			{
				uint8_t EndpointIndex = ((uint8_t)USB_ControlRequest.wIndex & ENDPOINT_EPNUM_MASK);
    125e:	20 91 a7 01 	lds	r18, 0x01A7
    1262:	2f 70       	andi	r18, 0x0F	; 15

				if (EndpointIndex == ENDPOINT_CONTROLEP)
    1264:	09 f4       	brne	.+2      	; 0x1268 <USB_Device_ProcessControlRequest+0xe0>
    1266:	c9 c0       	rjmp	.+402    	; 0x13fa <USB_Device_ProcessControlRequest+0x272>
			 */
			static inline void Endpoint_SelectEndpoint(const uint8_t Address) ATTR_ALWAYS_INLINE;
			static inline void Endpoint_SelectEndpoint(const uint8_t Address)
			{
				#if !defined(CONTROL_ONLY_DEVICE)
					UENUM = (Address & ENDPOINT_EPNUM_MASK);
    1268:	20 93 e9 00 	sts	0x00E9, r18
			 * \return Boolean \c true if the currently selected endpoint is enabled, \c false otherwise.
			 */
			static inline bool Endpoint_IsEnabled(void) ATTR_WARN_UNUSED_RESULT ATTR_ALWAYS_INLINE;
			static inline bool Endpoint_IsEnabled(void)
			{
				return ((UECONX & (1 << EPEN)) ? true : false);
    126c:	90 91 eb 00 	lds	r25, 0x00EB
				  return;

				Endpoint_SelectEndpoint(EndpointIndex);

				if (Endpoint_IsEnabled())
    1270:	90 ff       	sbrs	r25, 0
    1272:	1b c0       	rjmp	.+54     	; 0x12aa <USB_Device_ProcessControlRequest+0x122>
				{
					if (USB_ControlRequest.bRequest == REQ_SetFeature)
    1274:	83 30       	cpi	r24, 0x03	; 3
    1276:	21 f4       	brne	.+8      	; 0x1280 <USB_Device_ProcessControlRequest+0xf8>
			 *  \ingroup Group_EndpointPacketManagement_AVR8
			 */
			static inline void Endpoint_StallTransaction(void) ATTR_ALWAYS_INLINE;
			static inline void Endpoint_StallTransaction(void)
			{
				UECONX |= (1 << STALLRQ);
    1278:	80 91 eb 00 	lds	r24, 0x00EB
    127c:	80 62       	ori	r24, 0x20	; 32
    127e:	13 c0       	rjmp	.+38     	; 0x12a6 <USB_Device_ProcessControlRequest+0x11e>
			 *  \ingroup Group_EndpointPacketManagement_AVR8
			 */
			static inline void Endpoint_ClearStall(void) ATTR_ALWAYS_INLINE;
			static inline void Endpoint_ClearStall(void)
			{
				UECONX |= (1 << STALLRQC);
    1280:	80 91 eb 00 	lds	r24, 0x00EB
    1284:	80 61       	ori	r24, 0x10	; 16
    1286:	80 93 eb 00 	sts	0x00EB, r24
			 *  \param[in] Address  Endpoint address whose FIFO buffers are to be reset.
			 */
			static inline void Endpoint_ResetEndpoint(const uint8_t Address) ATTR_ALWAYS_INLINE;
			static inline void Endpoint_ResetEndpoint(const uint8_t Address)
			{
				UERST = (1 << (Address & ENDPOINT_EPNUM_MASK));
    128a:	81 e0       	ldi	r24, 0x01	; 1
    128c:	90 e0       	ldi	r25, 0x00	; 0
    128e:	02 2e       	mov	r0, r18
    1290:	01 c0       	rjmp	.+2      	; 0x1294 <USB_Device_ProcessControlRequest+0x10c>
    1292:	88 0f       	add	r24, r24
    1294:	0a 94       	dec	r0
    1296:	ea f7       	brpl	.-6      	; 0x1292 <USB_Device_ProcessControlRequest+0x10a>
    1298:	80 93 ea 00 	sts	0x00EA, r24
				UERST = 0;
    129c:	10 92 ea 00 	sts	0x00EA, r1

			/** Resets the data toggle of the currently selected endpoint. */
			static inline void Endpoint_ResetDataToggle(void) ATTR_ALWAYS_INLINE;
			static inline void Endpoint_ResetDataToggle(void)
			{
				UECONX |= (1 << RSTDT);
    12a0:	80 91 eb 00 	lds	r24, 0x00EB
    12a4:	88 60       	ori	r24, 0x08	; 8
    12a6:	80 93 eb 00 	sts	0x00EB, r24
			 */
			static inline void Endpoint_SelectEndpoint(const uint8_t Address) ATTR_ALWAYS_INLINE;
			static inline void Endpoint_SelectEndpoint(const uint8_t Address)
			{
				#if !defined(CONTROL_ONLY_DEVICE)
					UENUM = (Address & ENDPOINT_EPNUM_MASK);
    12aa:	10 92 e9 00 	sts	0x00E9, r1
			 *  \note This is not applicable for non CONTROL type endpoints.
			 */
			static inline void Endpoint_ClearSETUP(void) ATTR_ALWAYS_INLINE;
			static inline void Endpoint_ClearSETUP(void)
			{
				UEINTX &= ~(1 << RXSTPI);
    12ae:	80 91 e8 00 	lds	r24, 0x00E8
    12b2:	87 7f       	andi	r24, 0xF7	; 247
    12b4:	82 c0       	rjmp	.+260    	; 0x13ba <USB_Device_ProcessControlRequest+0x232>
					USB_Device_ClearSetFeature();
				}

				break;
			case REQ_SetAddress:
				if (bmRequestType == (REQDIR_HOSTTODEVICE | REQTYPE_STANDARD | REQREC_DEVICE))
    12b6:	91 11       	cpse	r25, r1
    12b8:	a0 c0       	rjmp	.+320    	; 0x13fa <USB_Device_ProcessControlRequest+0x272>
	}
}

static void USB_Device_SetAddress(void)
{
	uint8_t DeviceAddress = (USB_ControlRequest.wValue & 0x7F);
    12ba:	10 91 a5 01 	lds	r17, 0x01A5
    12be:	1f 77       	andi	r17, 0x7F	; 127
			#endif

			static inline void USB_Device_SetDeviceAddress(const uint8_t Address) ATTR_ALWAYS_INLINE;
			static inline void USB_Device_SetDeviceAddress(const uint8_t Address)
			{
				UDADDR = (UDADDR & (1 << ADDEN)) | (Address & 0x7F);
    12c0:	80 91 e3 00 	lds	r24, 0x00E3
    12c4:	80 78       	andi	r24, 0x80	; 128
    12c6:	81 2b       	or	r24, r17
    12c8:	80 93 e3 00 	sts	0x00E3, r24
    12cc:	80 91 e8 00 	lds	r24, 0x00E8
    12d0:	87 7f       	andi	r24, 0xF7	; 247
    12d2:	80 93 e8 00 	sts	0x00E8, r24

	USB_Device_SetDeviceAddress(DeviceAddress);

	Endpoint_ClearSETUP();

	Endpoint_ClearStatusStage();
    12d6:	a4 dd       	rcall	.-1208   	; 0xe20 <Endpoint_ClearStatusStage>
			 *  \return Boolean \c true if the current endpoint is ready for an IN packet, \c false otherwise.
			 */
			static inline bool Endpoint_IsINReady(void) ATTR_WARN_UNUSED_RESULT ATTR_ALWAYS_INLINE;
			static inline bool Endpoint_IsINReady(void)
			{
				return ((UEINTX & (1 << TXINI)) ? true : false);
    12d8:	80 91 e8 00 	lds	r24, 0x00E8

	while (!(Endpoint_IsINReady()));
    12dc:	80 ff       	sbrs	r24, 0
    12de:	fc cf       	rjmp	.-8      	; 0x12d8 <USB_Device_ProcessControlRequest+0x150>
			static inline void USB_Device_EnableDeviceAddress(const uint8_t Address) ATTR_ALWAYS_INLINE;
			static inline void USB_Device_EnableDeviceAddress(const uint8_t Address)
			{
				(void)Address;

				UDADDR |= (1 << ADDEN);
    12e0:	80 91 e3 00 	lds	r24, 0x00E3
    12e4:	80 68       	ori	r24, 0x80	; 128
    12e6:	80 93 e3 00 	sts	0x00E3, r24

	USB_Device_EnableDeviceAddress(DeviceAddress);

	USB_DeviceState = (DeviceAddress) ? DEVICE_STATE_Addressed : DEVICE_STATE_Default;
    12ea:	11 23       	and	r17, r17
    12ec:	11 f0       	breq	.+4      	; 0x12f2 <USB_Device_ProcessControlRequest+0x16a>
    12ee:	83 e0       	ldi	r24, 0x03	; 3
    12f0:	01 c0       	rjmp	.+2      	; 0x12f4 <USB_Device_ProcessControlRequest+0x16c>
    12f2:	82 e0       	ldi	r24, 0x02	; 2
    12f4:	80 93 a2 01 	sts	0x01A2, r24
    12f8:	80 c0       	rjmp	.+256    	; 0x13fa <USB_Device_ProcessControlRequest+0x272>
				if (bmRequestType == (REQDIR_HOSTTODEVICE | REQTYPE_STANDARD | REQREC_DEVICE))
				  USB_Device_SetAddress();

				break;
			case REQ_GetDescriptor:
				if ((bmRequestType == (REQDIR_DEVICETOHOST | REQTYPE_STANDARD | REQREC_DEVICE)) ||
    12fa:	90 58       	subi	r25, 0x80	; 128
    12fc:	92 30       	cpi	r25, 0x02	; 2
    12fe:	08 f0       	brcs	.+2      	; 0x1302 <USB_Device_ProcessControlRequest+0x17a>
    1300:	7c c0       	rjmp	.+248    	; 0x13fa <USB_Device_ProcessControlRequest+0x272>
	    !(defined(USE_FLASH_DESCRIPTORS) || defined(USE_EEPROM_DESCRIPTORS) || defined(USE_RAM_DESCRIPTORS))
	uint8_t DescriptorAddressSpace;
	#endif

	#if !defined(NO_INTERNAL_SERIAL) && (USE_INTERNAL_SERIAL != NO_DESCRIPTOR)
	if (USB_ControlRequest.wValue == ((DTYPE_String << 8) | USE_INTERNAL_SERIAL))
    1302:	80 91 a5 01 	lds	r24, 0x01A5
    1306:	90 91 a6 01 	lds	r25, 0x01A6
    130a:	8c 3d       	cpi	r24, 0xDC	; 220
    130c:	23 e0       	ldi	r18, 0x03	; 3
    130e:	92 07       	cpc	r25, r18
    1310:	71 f5       	brne	.+92     	; 0x136e <USB_Device_ProcessControlRequest+0x1e6>
	{
		USB_Descriptor_Header_t Header;
		uint16_t                UnicodeString[INTERNAL_SERIAL_LENGTH_BITS / 4];
	} SignatureDescriptor;

	SignatureDescriptor.Header.Type = DTYPE_String;
    1312:	83 e0       	ldi	r24, 0x03	; 3
    1314:	8a 83       	std	Y+2, r24	; 0x02
	SignatureDescriptor.Header.Size = USB_STRING_LEN(INTERNAL_SERIAL_LENGTH_BITS / 4);
    1316:	8a e2       	ldi	r24, 0x2A	; 42
    1318:	89 83       	std	Y+1, r24	; 0x01
			static inline uint_reg_t GetGlobalInterruptMask(void)
			{
				GCC_MEMORY_BARRIER();

				#if (ARCH == ARCH_AVR8)
				return SREG;
    131a:	4f b7       	in	r20, 0x3f	; 63
			static inline void GlobalInterruptDisable(void)
			{
				GCC_MEMORY_BARRIER();

				#if (ARCH == ARCH_AVR8)
				cli();
    131c:	f8 94       	cli
				__builtin_ssrf(AVR32_SR_GM_OFFSET);
				#elif (ARCH == ARCH_XMEGA)
				cli();
				#endif

				GCC_MEMORY_BARRIER();
    131e:	de 01       	movw	r26, r28
    1320:	13 96       	adiw	r26, 0x03	; 3
				uint_reg_t CurrentGlobalInt = GetGlobalInterruptMask();
				GlobalInterruptDisable();

				uint8_t SigReadAddress = INTERNAL_SERIAL_START_ADDRESS;

				for (uint8_t SerialCharNum = 0; SerialCharNum < (INTERNAL_SERIAL_LENGTH_BITS / 4); SerialCharNum++)
    1322:	20 e0       	ldi	r18, 0x00	; 0
			static inline void USB_Device_GetSerialString(uint16_t* const UnicodeString)
			{
				uint_reg_t CurrentGlobalInt = GetGlobalInterruptMask();
				GlobalInterruptDisable();

				uint8_t SigReadAddress = INTERNAL_SERIAL_START_ADDRESS;
    1324:	3e e0       	ldi	r19, 0x0E	; 14

				for (uint8_t SerialCharNum = 0; SerialCharNum < (INTERNAL_SERIAL_LENGTH_BITS / 4); SerialCharNum++)
				{
					uint8_t SerialByte = boot_signature_byte_get(SigReadAddress);
    1326:	51 e2       	ldi	r21, 0x21	; 33
    1328:	e3 2f       	mov	r30, r19
    132a:	f0 e0       	ldi	r31, 0x00	; 0
    132c:	50 93 57 00 	sts	0x0057, r21
    1330:	e4 91       	lpm	r30, Z

					if (SerialCharNum & 0x01)
    1332:	20 ff       	sbrs	r18, 0
    1334:	03 c0       	rjmp	.+6      	; 0x133c <USB_Device_ProcessControlRequest+0x1b4>
					{
						SerialByte >>= 4;
    1336:	e2 95       	swap	r30
    1338:	ef 70       	andi	r30, 0x0F	; 15
						SigReadAddress++;
    133a:	3f 5f       	subi	r19, 0xFF	; 255
					}

					SerialByte &= 0x0F;
    133c:	ef 70       	andi	r30, 0x0F	; 15
    133e:	8e 2f       	mov	r24, r30
    1340:	90 e0       	ldi	r25, 0x00	; 0

					UnicodeString[SerialCharNum] = cpu_to_le16((SerialByte >= 10) ?
    1342:	ea 30       	cpi	r30, 0x0A	; 10
    1344:	10 f0       	brcs	.+4      	; 0x134a <USB_Device_ProcessControlRequest+0x1c2>
    1346:	c7 96       	adiw	r24, 0x37	; 55
    1348:	01 c0       	rjmp	.+2      	; 0x134c <USB_Device_ProcessControlRequest+0x1c4>
    134a:	c0 96       	adiw	r24, 0x30	; 48
    134c:	8d 93       	st	X+, r24
    134e:	9d 93       	st	X+, r25
				uint_reg_t CurrentGlobalInt = GetGlobalInterruptMask();
				GlobalInterruptDisable();

				uint8_t SigReadAddress = INTERNAL_SERIAL_START_ADDRESS;

				for (uint8_t SerialCharNum = 0; SerialCharNum < (INTERNAL_SERIAL_LENGTH_BITS / 4); SerialCharNum++)
    1350:	2f 5f       	subi	r18, 0xFF	; 255
    1352:	24 31       	cpi	r18, 0x14	; 20
    1354:	49 f7       	brne	.-46     	; 0x1328 <USB_Device_ProcessControlRequest+0x1a0>
			static inline void SetGlobalInterruptMask(const uint_reg_t GlobalIntState)
			{
				GCC_MEMORY_BARRIER();

				#if (ARCH == ARCH_AVR8)
				SREG = GlobalIntState;
    1356:	4f bf       	out	0x3f, r20	; 63
			 *  \note This is not applicable for non CONTROL type endpoints.
			 */
			static inline void Endpoint_ClearSETUP(void) ATTR_ALWAYS_INLINE;
			static inline void Endpoint_ClearSETUP(void)
			{
				UEINTX &= ~(1 << RXSTPI);
    1358:	80 91 e8 00 	lds	r24, 0x00E8
    135c:	87 7f       	andi	r24, 0xF7	; 247
    135e:	80 93 e8 00 	sts	0x00E8, r24

	USB_Device_GetSerialString(SignatureDescriptor.UnicodeString);

	Endpoint_ClearSETUP();

	Endpoint_Write_Control_Stream_LE(&SignatureDescriptor, sizeof(SignatureDescriptor));
    1362:	6a e2       	ldi	r22, 0x2A	; 42
    1364:	70 e0       	ldi	r23, 0x00	; 0
    1366:	ce 01       	movw	r24, r28
    1368:	01 96       	adiw	r24, 0x01	; 1
    136a:	25 dc       	rcall	.-1974   	; 0xbb6 <Endpoint_Write_Control_Stream_LE>
    136c:	12 c0       	rjmp	.+36     	; 0x1392 <USB_Device_ProcessControlRequest+0x20a>
		USB_Device_GetInternalSerialDescriptor();
		return;
	}
	#endif

	if ((DescriptorSize = CALLBACK_USB_GetDescriptor(USB_ControlRequest.wValue, USB_ControlRequest.wIndex,
    136e:	ae 01       	movw	r20, r28
    1370:	4f 5f       	subi	r20, 0xFF	; 255
    1372:	5f 4f       	sbci	r21, 0xFF	; 255
    1374:	60 91 a7 01 	lds	r22, 0x01A7
    1378:	c2 d8       	rcall	.-3708   	; 0x4fe <CALLBACK_USB_GetDescriptor>
    137a:	00 97       	sbiw	r24, 0x00	; 0
    137c:	09 f4       	brne	.+2      	; 0x1380 <USB_Device_ProcessControlRequest+0x1f8>
    137e:	3d c0       	rjmp	.+122    	; 0x13fa <USB_Device_ProcessControlRequest+0x272>
    1380:	20 91 e8 00 	lds	r18, 0x00E8
    1384:	27 7f       	andi	r18, 0xF7	; 247
    1386:	20 93 e8 00 	sts	0x00E8, r18
	#if defined(USE_RAM_DESCRIPTORS) || !defined(ARCH_HAS_MULTI_ADDRESS_SPACE)
	Endpoint_Write_Control_Stream_LE(DescriptorPointer, DescriptorSize);
	#elif defined(USE_EEPROM_DESCRIPTORS)
	Endpoint_Write_Control_EStream_LE(DescriptorPointer, DescriptorSize);
	#elif defined(USE_FLASH_DESCRIPTORS)
	Endpoint_Write_Control_PStream_LE(DescriptorPointer, DescriptorSize);
    138a:	bc 01       	movw	r22, r24
    138c:	89 81       	ldd	r24, Y+1	; 0x01
    138e:	9a 81       	ldd	r25, Y+2	; 0x02
    1390:	73 dc       	rcall	.-1818   	; 0xc78 <Endpoint_Write_Control_PStream_LE>
			 */
			static inline void Endpoint_ClearOUT(void) ATTR_ALWAYS_INLINE;
			static inline void Endpoint_ClearOUT(void)
			{
				#if !defined(CONTROL_ONLY_DEVICE)
					UEINTX &= ~((1 << RXOUTI) | (1 << FIFOCON));
    1392:	80 91 e8 00 	lds	r24, 0x00E8
    1396:	8b 77       	andi	r24, 0x7B	; 123
    1398:	80 93 e8 00 	sts	0x00E8, r24
    139c:	2e c0       	rjmp	.+92     	; 0x13fa <USB_Device_ProcessControlRequest+0x272>
					USB_Device_GetDescriptor();
				}

				break;
			case REQ_GetConfiguration:
				if (bmRequestType == (REQDIR_DEVICETOHOST | REQTYPE_STANDARD | REQREC_DEVICE))
    139e:	90 38       	cpi	r25, 0x80	; 128
    13a0:	61 f5       	brne	.+88     	; 0x13fa <USB_Device_ProcessControlRequest+0x272>
			 *  \note This is not applicable for non CONTROL type endpoints.
			 */
			static inline void Endpoint_ClearSETUP(void) ATTR_ALWAYS_INLINE;
			static inline void Endpoint_ClearSETUP(void)
			{
				UEINTX &= ~(1 << RXSTPI);
    13a2:	80 91 e8 00 	lds	r24, 0x00E8
    13a6:	87 7f       	andi	r24, 0xF7	; 247
    13a8:	80 93 e8 00 	sts	0x00E8, r24

static void USB_Device_GetConfiguration(void)
{
	Endpoint_ClearSETUP();

	Endpoint_Write_8(USB_Device_ConfigurationNumber);
    13ac:	80 91 9e 01 	lds	r24, 0x019E
			 *  \param[in] Data  Data to write into the the currently selected endpoint's FIFO buffer.
			 */
			static inline void Endpoint_Write_8(const uint8_t Data) ATTR_ALWAYS_INLINE;
			static inline void Endpoint_Write_8(const uint8_t Data)
			{
				UEDATX = Data;
    13b0:	80 93 f1 00 	sts	0x00F1, r24
			 */
			static inline void Endpoint_ClearIN(void) ATTR_ALWAYS_INLINE;
			static inline void Endpoint_ClearIN(void)
			{
				#if !defined(CONTROL_ONLY_DEVICE)
					UEINTX &= ~((1 << TXINI) | (1 << FIFOCON));
    13b4:	80 91 e8 00 	lds	r24, 0x00E8
    13b8:	8e 77       	andi	r24, 0x7E	; 126
    13ba:	80 93 e8 00 	sts	0x00E8, r24
	Endpoint_ClearIN();

	Endpoint_ClearStatusStage();
    13be:	30 dd       	rcall	.-1440   	; 0xe20 <Endpoint_ClearStatusStage>
    13c0:	1c c0       	rjmp	.+56     	; 0x13fa <USB_Device_ProcessControlRequest+0x272>
				if (bmRequestType == (REQDIR_DEVICETOHOST | REQTYPE_STANDARD | REQREC_DEVICE))
				  USB_Device_GetConfiguration();

				break;
			case REQ_SetConfiguration:
				if (bmRequestType == (REQDIR_HOSTTODEVICE | REQTYPE_STANDARD | REQREC_DEVICE))
    13c2:	91 11       	cpse	r25, r1
    13c4:	1a c0       	rjmp	.+52     	; 0x13fa <USB_Device_ProcessControlRequest+0x272>
}

static void USB_Device_SetConfiguration(void)
{
	#if defined(FIXED_NUM_CONFIGURATIONS)
	if ((uint8_t)USB_ControlRequest.wValue > FIXED_NUM_CONFIGURATIONS)
    13c6:	90 91 a5 01 	lds	r25, 0x01A5
    13ca:	92 30       	cpi	r25, 0x02	; 2
    13cc:	b0 f4       	brcc	.+44     	; 0x13fa <USB_Device_ProcessControlRequest+0x272>
			 *  \note This is not applicable for non CONTROL type endpoints.
			 */
			static inline void Endpoint_ClearSETUP(void) ATTR_ALWAYS_INLINE;
			static inline void Endpoint_ClearSETUP(void)
			{
				UEINTX &= ~(1 << RXSTPI);
    13ce:	80 91 e8 00 	lds	r24, 0x00E8
    13d2:	87 7f       	andi	r24, 0xF7	; 247
    13d4:	80 93 e8 00 	sts	0x00E8, r24
	#endif
	#endif

	Endpoint_ClearSETUP();

	USB_Device_ConfigurationNumber = (uint8_t)USB_ControlRequest.wValue;
    13d8:	90 93 9e 01 	sts	0x019E, r25

	Endpoint_ClearStatusStage();
    13dc:	21 dd       	rcall	.-1470   	; 0xe20 <Endpoint_ClearStatusStage>

	if (USB_Device_ConfigurationNumber)
    13de:	80 91 9e 01 	lds	r24, 0x019E
    13e2:	81 11       	cpse	r24, r1
    13e4:	04 c0       	rjmp	.+8      	; 0x13ee <USB_Device_ProcessControlRequest+0x266>
			}

			static inline bool USB_Device_IsAddressSet(void) ATTR_ALWAYS_INLINE ATTR_WARN_UNUSED_RESULT;
			static inline bool USB_Device_IsAddressSet(void)
			{
				return (UDADDR & (1 << ADDEN));
    13e6:	80 91 e3 00 	lds	r24, 0x00E3
	  USB_DeviceState = DEVICE_STATE_Configured;
	else
	  USB_DeviceState = (USB_Device_IsAddressSet()) ? DEVICE_STATE_Configured : DEVICE_STATE_Powered;
    13ea:	87 ff       	sbrs	r24, 7
    13ec:	02 c0       	rjmp	.+4      	; 0x13f2 <USB_Device_ProcessControlRequest+0x26a>
    13ee:	84 e0       	ldi	r24, 0x04	; 4
    13f0:	01 c0       	rjmp	.+2      	; 0x13f4 <USB_Device_ProcessControlRequest+0x26c>
    13f2:	81 e0       	ldi	r24, 0x01	; 1
    13f4:	80 93 a2 01 	sts	0x01A2, r24

	EVENT_USB_Device_ConfigurationChanged();
    13f8:	92 d1       	rcall	.+804    	; 0x171e <EVENT_USB_Device_ConfigurationChanged>
			 *  \return Boolean \c true if the selected endpoint has received a SETUP packet, \c false otherwise.
			 */
			static inline bool Endpoint_IsSETUPReceived(void) ATTR_WARN_UNUSED_RESULT ATTR_ALWAYS_INLINE;
			static inline bool Endpoint_IsSETUPReceived(void)
			{
				return ((UEINTX & (1 << RXSTPI)) ? true : false);
    13fa:	80 91 e8 00 	lds	r24, 0x00E8
			default:
				break;
		}
	}

	if (Endpoint_IsSETUPReceived())
    13fe:	83 ff       	sbrs	r24, 3
    1400:	0a c0       	rjmp	.+20     	; 0x1416 <USB_Device_ProcessControlRequest+0x28e>
			 *  \note This is not applicable for non CONTROL type endpoints.
			 */
			static inline void Endpoint_ClearSETUP(void) ATTR_ALWAYS_INLINE;
			static inline void Endpoint_ClearSETUP(void)
			{
				UEINTX &= ~(1 << RXSTPI);
    1402:	80 91 e8 00 	lds	r24, 0x00E8
    1406:	87 7f       	andi	r24, 0xF7	; 247
    1408:	80 93 e8 00 	sts	0x00E8, r24
			 *  \ingroup Group_EndpointPacketManagement_AVR8
			 */
			static inline void Endpoint_StallTransaction(void) ATTR_ALWAYS_INLINE;
			static inline void Endpoint_StallTransaction(void)
			{
				UECONX |= (1 << STALLRQ);
    140c:	80 91 eb 00 	lds	r24, 0x00EB
    1410:	80 62       	ori	r24, 0x20	; 32
    1412:	80 93 eb 00 	sts	0x00EB, r24
	{
		Endpoint_ClearSETUP();
		Endpoint_StallTransaction();
	}
}
    1416:	aa 96       	adiw	r28, 0x2a	; 42
    1418:	0f b6       	in	r0, 0x3f	; 63
    141a:	f8 94       	cli
    141c:	de bf       	out	0x3e, r29	; 62
    141e:	0f be       	out	0x3f, r0	; 63
    1420:	cd bf       	out	0x3d, r28	; 61
    1422:	df 91       	pop	r29
    1424:	cf 91       	pop	r28
    1426:	1f 91       	pop	r17
    1428:	08 95       	ret

0000142a <USB_Event_Stub>:
#define  __INCLUDE_FROM_EVENTS_C
#define  __INCLUDE_FROM_USB_DRIVER
#include "Events.h"

void USB_Event_Stub(void)
{
    142a:	08 95       	ret

0000142c <USB_USBTask>:
#if defined(USB_CAN_BE_DEVICE) && !defined(DEVICE_STATE_AS_GPIOR)
volatile uint8_t     USB_DeviceState;
#endif

void USB_USBTask(void)
{
    142c:	cf 93       	push	r28
}

#if defined(USB_CAN_BE_DEVICE)
static void USB_DeviceTask(void)
{
	if (USB_DeviceState == DEVICE_STATE_Unattached)
    142e:	80 91 a2 01 	lds	r24, 0x01A2
    1432:	88 23       	and	r24, r24
    1434:	a9 f0       	breq	.+42     	; 0x1460 <USB_USBTask+0x34>
			 */
			static inline uint8_t Endpoint_GetCurrentEndpoint(void) ATTR_WARN_UNUSED_RESULT ATTR_ALWAYS_INLINE;
			static inline uint8_t Endpoint_GetCurrentEndpoint(void)
			{
				#if !defined(CONTROL_ONLY_DEVICE)
					return ((UENUM & ENDPOINT_EPNUM_MASK) | Endpoint_GetEndpointDirection());
    1436:	80 91 e9 00 	lds	r24, 0x00E9
    143a:	8f 70       	andi	r24, 0x0F	; 15
			 *  \return The currently selected endpoint's direction, as a \c ENDPOINT_DIR_* mask.
			 */
			static inline uint8_t Endpoint_GetEndpointDirection(void) ATTR_WARN_UNUSED_RESULT ATTR_ALWAYS_INLINE;
			static inline uint8_t Endpoint_GetEndpointDirection(void)
			{
				return (UECFG0X & (1 << EPDIR)) ? ENDPOINT_DIR_IN : ENDPOINT_DIR_OUT;
    143c:	90 91 ec 00 	lds	r25, 0x00EC
    1440:	90 ff       	sbrs	r25, 0
    1442:	02 c0       	rjmp	.+4      	; 0x1448 <USB_USBTask+0x1c>
    1444:	90 e8       	ldi	r25, 0x80	; 128
    1446:	01 c0       	rjmp	.+2      	; 0x144a <USB_USBTask+0x1e>
    1448:	90 e0       	ldi	r25, 0x00	; 0
			 */
			static inline uint8_t Endpoint_GetCurrentEndpoint(void) ATTR_WARN_UNUSED_RESULT ATTR_ALWAYS_INLINE;
			static inline uint8_t Endpoint_GetCurrentEndpoint(void)
			{
				#if !defined(CONTROL_ONLY_DEVICE)
					return ((UENUM & ENDPOINT_EPNUM_MASK) | Endpoint_GetEndpointDirection());
    144a:	c9 2f       	mov	r28, r25
    144c:	c8 2b       	or	r28, r24
			 */
			static inline void Endpoint_SelectEndpoint(const uint8_t Address) ATTR_ALWAYS_INLINE;
			static inline void Endpoint_SelectEndpoint(const uint8_t Address)
			{
				#if !defined(CONTROL_ONLY_DEVICE)
					UENUM = (Address & ENDPOINT_EPNUM_MASK);
    144e:	10 92 e9 00 	sts	0x00E9, r1
			 *  \return Boolean \c true if the selected endpoint has received a SETUP packet, \c false otherwise.
			 */
			static inline bool Endpoint_IsSETUPReceived(void) ATTR_WARN_UNUSED_RESULT ATTR_ALWAYS_INLINE;
			static inline bool Endpoint_IsSETUPReceived(void)
			{
				return ((UEINTX & (1 << RXSTPI)) ? true : false);
    1452:	80 91 e8 00 	lds	r24, 0x00E8

	uint8_t PrevEndpoint = Endpoint_GetCurrentEndpoint();

	Endpoint_SelectEndpoint(ENDPOINT_CONTROLEP);

	if (Endpoint_IsSETUPReceived())
    1456:	83 fd       	sbrc	r24, 3
	  USB_Device_ProcessControlRequest();
    1458:	97 de       	rcall	.-722    	; 0x1188 <USB_Device_ProcessControlRequest>
			 */
			static inline void Endpoint_SelectEndpoint(const uint8_t Address) ATTR_ALWAYS_INLINE;
			static inline void Endpoint_SelectEndpoint(const uint8_t Address)
			{
				#if !defined(CONTROL_ONLY_DEVICE)
					UENUM = (Address & ENDPOINT_EPNUM_MASK);
    145a:	cf 70       	andi	r28, 0x0F	; 15
    145c:	c0 93 e9 00 	sts	0x00E9, r28
	#elif defined(USB_CAN_BE_HOST)
		USB_HostTask();
	#elif defined(USB_CAN_BE_DEVICE)
		USB_DeviceTask();
	#endif
}
    1460:	cf 91       	pop	r28
    1462:	08 95       	ret

00001464 <SetupHardware>:
void settingsHandle()
{
	
}
void testHandle()
{
    1464:	84 b7       	in	r24, 0x34	; 52
    1466:	87 7f       	andi	r24, 0xF7	; 247
    1468:	84 bf       	out	0x34, r24	; 52
    146a:	88 e1       	ldi	r24, 0x18	; 24
    146c:	0f b6       	in	r0, 0x3f	; 63
    146e:	f8 94       	cli
    1470:	80 93 60 00 	sts	0x0060, r24
    1474:	10 92 60 00 	sts	0x0060, r1
    1478:	0f be       	out	0x3f, r0	; 63
    147a:	90 e0       	ldi	r25, 0x00	; 0
    147c:	80 e8       	ldi	r24, 0x80	; 128
    147e:	0f b6       	in	r0, 0x3f	; 63
    1480:	f8 94       	cli
    1482:	80 93 61 00 	sts	0x0061, r24
    1486:	90 93 61 00 	sts	0x0061, r25
    148a:	0f be       	out	0x3f, r0	; 63
    148c:	d2 d8       	rcall	.-3676   	; 0x632 <LCD_Init>
    148e:	53 9a       	sbi	0x0a, 3	; 10
    1490:	3e 98       	cbi	0x07, 6	; 7
    1492:	46 9a       	sbi	0x08, 6	; 8
    1494:	3f 98       	cbi	0x07, 7	; 7
    1496:	47 9a       	sbi	0x08, 7	; 8
    1498:	26 98       	cbi	0x04, 6	; 4
    149a:	2e 9a       	sbi	0x05, 6	; 5
    149c:	0e 94 3b 01 	call	0x276	; 0x276 <ADC_Init>
    14a0:	0e 94 ff 01 	call	0x3fe	; 0x3fe <clock_init>
    14a4:	4e cd       	rjmp	.-1380   	; 0xf42 <USB_Init>

000014a6 <normalHandle>:
    14a6:	0f 93       	push	r16
    14a8:	1f 93       	push	r17
    14aa:	cf 93       	push	r28
    14ac:	df 93       	push	r29
    14ae:	cd b7       	in	r28, 0x3d	; 61
    14b0:	de b7       	in	r29, 0x3e	; 62
    14b2:	6e 97       	sbiw	r28, 0x1e	; 30
    14b4:	0f b6       	in	r0, 0x3f	; 63
    14b6:	f8 94       	cli
    14b8:	de bf       	out	0x3e, r29	; 62
    14ba:	0f be       	out	0x3f, r0	; 63
    14bc:	cd bf       	out	0x3d, r28	; 61
    14be:	80 91 8f 01 	lds	r24, 0x018F
    14c2:	90 91 00 01 	lds	r25, 0x0100
    14c6:	98 17       	cp	r25, r24
    14c8:	d9 f0       	breq	.+54     	; 0x1500 <normalHandle+0x5a>
    14ca:	80 93 00 01 	sts	0x0100, r24
    14ce:	0e 94 fc 01 	call	0x3f8	; 0x3f8 <Ok_clearPress>
    14d2:	0e 94 f6 01 	call	0x3ec	; 0x3ec <Plus_clearPress>
    14d6:	0e 94 f9 01 	call	0x3f2	; 0x3f2 <Minus_clearPress>
    14da:	80 91 82 01 	lds	r24, 0x0182
    14de:	90 91 83 01 	lds	r25, 0x0183
    14e2:	a0 91 84 01 	lds	r26, 0x0184
    14e6:	b0 91 85 01 	lds	r27, 0x0185
    14ea:	80 93 86 01 	sts	0x0186, r24
    14ee:	90 93 87 01 	sts	0x0187, r25
    14f2:	a0 93 88 01 	sts	0x0188, r26
    14f6:	b0 93 89 01 	sts	0x0189, r27
    14fa:	5b 98       	cbi	0x0b, 3	; 11
    14fc:	11 e0       	ldi	r17, 0x01	; 1
    14fe:	01 c0       	rjmp	.+2      	; 0x1502 <normalHandle+0x5c>
    1500:	10 e0       	ldi	r17, 0x00	; 0
    1502:	0e 94 e2 01 	call	0x3c4	; 0x3c4 <Plus_isShortPress>
    1506:	88 23       	and	r24, r24
    1508:	49 f0       	breq	.+18     	; 0x151c <normalHandle+0x76>
    150a:	80 91 81 01 	lds	r24, 0x0181
    150e:	8f 5f       	subi	r24, 0xFF	; 255
    1510:	80 93 81 01 	sts	0x0181, r24
    1514:	84 30       	cpi	r24, 0x04	; 4
    1516:	14 f0       	brlt	.+4      	; 0x151c <normalHandle+0x76>
    1518:	10 92 81 01 	sts	0x0181, r1
    151c:	0e 94 ec 01 	call	0x3d8	; 0x3d8 <Ok_isShortPress>
    1520:	88 23       	and	r24, r24
    1522:	31 f0       	breq	.+12     	; 0x1530 <normalHandle+0x8a>
    1524:	80 91 81 01 	lds	r24, 0x0181
    1528:	81 30       	cpi	r24, 0x01	; 1
    152a:	11 f4       	brne	.+4      	; 0x1530 <normalHandle+0x8a>
    152c:	80 93 8f 01 	sts	0x018F, r24
    1530:	80 91 82 01 	lds	r24, 0x0182
    1534:	90 91 83 01 	lds	r25, 0x0183
    1538:	a0 91 84 01 	lds	r26, 0x0184
    153c:	b0 91 85 01 	lds	r27, 0x0185
    1540:	40 91 8a 01 	lds	r20, 0x018A
    1544:	50 91 8b 01 	lds	r21, 0x018B
    1548:	60 91 8c 01 	lds	r22, 0x018C
    154c:	70 91 8d 01 	lds	r23, 0x018D
    1550:	84 1b       	sub	r24, r20
    1552:	95 0b       	sbc	r25, r21
    1554:	a6 0b       	sbc	r26, r22
    1556:	b7 0b       	sbc	r27, r23
    1558:	85 3f       	cpi	r24, 0xF5	; 245
    155a:	91 40       	sbci	r25, 0x01	; 1
    155c:	a1 05       	cpc	r26, r1
    155e:	b1 05       	cpc	r27, r1
    1560:	cc f0       	brlt	.+50     	; 0x1594 <normalHandle+0xee>
    1562:	80 91 82 01 	lds	r24, 0x0182
    1566:	90 91 83 01 	lds	r25, 0x0183
    156a:	a0 91 84 01 	lds	r26, 0x0184
    156e:	b0 91 85 01 	lds	r27, 0x0185
    1572:	40 91 86 01 	lds	r20, 0x0186
    1576:	50 91 87 01 	lds	r21, 0x0187
    157a:	60 91 88 01 	lds	r22, 0x0188
    157e:	70 91 89 01 	lds	r23, 0x0189
    1582:	84 1b       	sub	r24, r20
    1584:	95 0b       	sbc	r25, r21
    1586:	a6 0b       	sbc	r26, r22
    1588:	b7 0b       	sbc	r27, r23
    158a:	89 3e       	cpi	r24, 0xE9	; 233
    158c:	93 40       	sbci	r25, 0x03	; 3
    158e:	a1 05       	cpc	r26, r1
    1590:	b1 05       	cpc	r27, r1
    1592:	1c f4       	brge	.+6      	; 0x159a <normalHandle+0xf4>
    1594:	11 23       	and	r17, r17
    1596:	09 f4       	brne	.+2      	; 0x159a <normalHandle+0xf4>
    1598:	6c c0       	rjmp	.+216    	; 0x1672 <normalHandle+0x1cc>
    159a:	80 91 82 01 	lds	r24, 0x0182
    159e:	90 91 83 01 	lds	r25, 0x0183
    15a2:	a0 91 84 01 	lds	r26, 0x0184
    15a6:	b0 91 85 01 	lds	r27, 0x0185
    15aa:	80 93 8a 01 	sts	0x018A, r24
    15ae:	90 93 8b 01 	sts	0x018B, r25
    15b2:	a0 93 8c 01 	sts	0x018C, r26
    15b6:	b0 93 8d 01 	sts	0x018D, r27
    15ba:	81 e0       	ldi	r24, 0x01	; 1
    15bc:	2e d8       	rcall	.-4004   	; 0x61a <LCD_WriteCom>
    15be:	8f e3       	ldi	r24, 0x3F	; 63
    15c0:	9f e1       	ldi	r25, 0x1F	; 31
    15c2:	01 97       	sbiw	r24, 0x01	; 1
    15c4:	f1 f7       	brne	.-4      	; 0x15c2 <normalHandle+0x11c>
    15c6:	00 c0       	rjmp	.+0      	; 0x15c8 <normalHandle+0x122>
    15c8:	00 00       	nop
    15ca:	80 91 81 01 	lds	r24, 0x0181
    15ce:	81 30       	cpi	r24, 0x01	; 1
    15d0:	09 f4       	brne	.+2      	; 0x15d4 <normalHandle+0x12e>
    15d2:	43 c0       	rjmp	.+134    	; 0x165a <normalHandle+0x1b4>
    15d4:	82 30       	cpi	r24, 0x02	; 2
    15d6:	09 f4       	brne	.+2      	; 0x15da <normalHandle+0x134>
    15d8:	46 c0       	rjmp	.+140    	; 0x1666 <normalHandle+0x1c0>
    15da:	81 11       	cpse	r24, r1
    15dc:	4a c0       	rjmp	.+148    	; 0x1672 <normalHandle+0x1cc>
    15de:	8e d8       	rcall	.-3812   	; 0x6fc <pressure_midle>
    15e0:	90 93 b0 01 	sts	0x01B0, r25
    15e4:	80 93 af 01 	sts	0x01AF, r24
    15e8:	bc 01       	movw	r22, r24
    15ea:	80 e0       	ldi	r24, 0x00	; 0
    15ec:	90 e0       	ldi	r25, 0x00	; 0
    15ee:	77 d1       	rcall	.+750    	; 0x18de <__floatunsisf>
    15f0:	2d ec       	ldi	r18, 0xCD	; 205
    15f2:	3c ec       	ldi	r19, 0xCC	; 204
    15f4:	4c e4       	ldi	r20, 0x4C	; 76
    15f6:	53 e4       	ldi	r21, 0x43	; 67
    15f8:	0a d1       	rcall	.+532    	; 0x180e <__divsf3>
    15fa:	2d ec       	ldi	r18, 0xCD	; 205
    15fc:	3c ec       	ldi	r19, 0xCC	; 204
    15fe:	4c e4       	ldi	r20, 0x4C	; 76
    1600:	5e e3       	ldi	r21, 0x3E	; 62
    1602:	a0 d0       	rcall	.+320    	; 0x1744 <__subsf3>
    1604:	2c e5       	ldi	r18, 0x5C	; 92
    1606:	3a ea       	ldi	r19, 0xAA	; 170
    1608:	42 ed       	ldi	r20, 0xD2	; 210
    160a:	5b e3       	ldi	r21, 0x3B	; 59
    160c:	00 d1       	rcall	.+512    	; 0x180e <__divsf3>
    160e:	20 e9       	ldi	r18, 0x90	; 144
    1610:	32 eb       	ldi	r19, 0xB2	; 178
    1612:	41 e2       	ldi	r20, 0x21	; 33
    1614:	5c e3       	ldi	r21, 0x3C	; 60
    1616:	f1 d1       	rcall	.+994    	; 0x19fa <__mulsf3>
    1618:	9f 93       	push	r25
    161a:	8f 93       	push	r24
    161c:	7f 93       	push	r23
    161e:	6f 93       	push	r22
    1620:	8c e1       	ldi	r24, 0x1C	; 28
    1622:	91 e0       	ldi	r25, 0x01	; 1
    1624:	9f 93       	push	r25
    1626:	8f 93       	push	r24
    1628:	8e 01       	movw	r16, r28
    162a:	0f 5f       	subi	r16, 0xFF	; 255
    162c:	1f 4f       	sbci	r17, 0xFF	; 255
    162e:	1f 93       	push	r17
    1630:	0f 93       	push	r16
    1632:	9e d7       	rcall	.+3900   	; 0x2570 <sprintf>
    1634:	80 e8       	ldi	r24, 0x80	; 128
    1636:	0e 94 0d 03 	call	0x61a	; 0x61a <LCD_WriteCom>
    163a:	c8 01       	movw	r24, r16
    163c:	2b d8       	rcall	.-4010   	; 0x694 <LCD_SendStr>
    163e:	0f b6       	in	r0, 0x3f	; 63
    1640:	f8 94       	cli
    1642:	de bf       	out	0x3e, r29	; 62
    1644:	0f be       	out	0x3f, r0	; 63
    1646:	cd bf       	out	0x3d, r28	; 61
    1648:	80 91 8e 01 	lds	r24, 0x018E
    164c:	88 23       	and	r24, r24
    164e:	89 f0       	breq	.+34     	; 0x1672 <normalHandle+0x1cc>
    1650:	b8 01       	movw	r22, r16
    1652:	81 e0       	ldi	r24, 0x01	; 1
    1654:	91 e0       	ldi	r25, 0x01	; 1
    1656:	ca d8       	rcall	.-3692   	; 0x7ec <CDC_Device_SendString>
    1658:	0c c0       	rjmp	.+24     	; 0x1672 <normalHandle+0x1cc>
    165a:	80 e8       	ldi	r24, 0x80	; 128
    165c:	0e 94 0d 03 	call	0x61a	; 0x61a <LCD_WriteCom>
    1660:	8c e2       	ldi	r24, 0x2C	; 44
    1662:	91 e0       	ldi	r25, 0x01	; 1
    1664:	05 c0       	rjmp	.+10     	; 0x1670 <normalHandle+0x1ca>
    1666:	80 e8       	ldi	r24, 0x80	; 128
    1668:	0e 94 0d 03 	call	0x61a	; 0x61a <LCD_WriteCom>
    166c:	86 e3       	ldi	r24, 0x36	; 54
    166e:	91 e0       	ldi	r25, 0x01	; 1
    1670:	11 d8       	rcall	.-4062   	; 0x694 <LCD_SendStr>
    1672:	6e 96       	adiw	r28, 0x1e	; 30
    1674:	0f b6       	in	r0, 0x3f	; 63
    1676:	f8 94       	cli
    1678:	de bf       	out	0x3e, r29	; 62
    167a:	0f be       	out	0x3f, r0	; 63
    167c:	cd bf       	out	0x3d, r28	; 61
    167e:	df 91       	pop	r29
    1680:	cf 91       	pop	r28
    1682:	1f 91       	pop	r17
    1684:	0f 91       	pop	r16
    1686:	08 95       	ret

00001688 <loop>:
    1688:	80 91 8f 01 	lds	r24, 0x018F
    168c:	81 11       	cpse	r24, r1
    168e:	01 c0       	rjmp	.+2      	; 0x1692 <loop+0xa>
    1690:	0a cf       	rjmp	.-492    	; 0x14a6 <normalHandle>
    1692:	08 95       	ret

00001694 <main>:
    1694:	e7 de       	rcall	.-562    	; 0x1464 <SetupHardware>
    1696:	60 e9       	ldi	r22, 0x90	; 144
    1698:	71 e0       	ldi	r23, 0x01	; 1
    169a:	81 e0       	ldi	r24, 0x01	; 1
    169c:	91 e0       	ldi	r25, 0x01	; 1
    169e:	80 d9       	rcall	.-3328   	; 0x9a0 <CDC_Device_CreateStream>
    16a0:	78 94       	sei
    16a2:	0e 94 50 02 	call	0x4a0	; 0x4a0 <millis>
    16a6:	60 93 86 01 	sts	0x0186, r22
    16aa:	70 93 87 01 	sts	0x0187, r23
    16ae:	80 93 88 01 	sts	0x0188, r24
    16b2:	90 93 89 01 	sts	0x0189, r25
    16b6:	60 93 8a 01 	sts	0x018A, r22
    16ba:	70 93 8b 01 	sts	0x018B, r23
    16be:	80 93 8c 01 	sts	0x018C, r24
    16c2:	90 93 8d 01 	sts	0x018D, r25
    16c6:	0e 94 50 02 	call	0x4a0	; 0x4a0 <millis>
    16ca:	60 93 82 01 	sts	0x0182, r22
    16ce:	70 93 83 01 	sts	0x0183, r23
    16d2:	80 93 84 01 	sts	0x0184, r24
    16d6:	90 93 85 01 	sts	0x0185, r25
    16da:	0e 94 47 01 	call	0x28e	; 0x28e <buttonHandle>
    16de:	d4 df       	rcall	.-88     	; 0x1688 <loop>
    16e0:	81 e0       	ldi	r24, 0x01	; 1
    16e2:	91 e0       	ldi	r25, 0x01	; 1
    16e4:	09 d9       	rcall	.-3566   	; 0x8f8 <CDC_Device_USBTask>
    16e6:	a2 de       	rcall	.-700    	; 0x142c <USB_USBTask>
    16e8:	ee cf       	rjmp	.-36     	; 0x16c6 <main+0x32>

000016ea <EVENT_USB_Device_Connect>:


/** Event handler for the library USB Connection event. */
void EVENT_USB_Device_Connect(void)
{
	LCD_Clear();
    16ea:	81 e0       	ldi	r24, 0x01	; 1
    16ec:	0e 94 0d 03 	call	0x61a	; 0x61a <LCD_WriteCom>
    16f0:	8f e3       	ldi	r24, 0x3F	; 63
    16f2:	9f e1       	ldi	r25, 0x1F	; 31
    16f4:	01 97       	sbiw	r24, 0x01	; 1
    16f6:	f1 f7       	brne	.-4      	; 0x16f4 <EVENT_USB_Device_Connect+0xa>
    16f8:	00 c0       	rjmp	.+0      	; 0x16fa <EVENT_USB_Device_Connect+0x10>
    16fa:	00 00       	nop
	LCD_SendStr((char*)"USB connect");
    16fc:	8b e3       	ldi	r24, 0x3B	; 59
    16fe:	91 e0       	ldi	r25, 0x01	; 1
    1700:	0c 94 4a 03 	jmp	0x694	; 0x694 <LCD_SendStr>

00001704 <EVENT_USB_Device_Disconnect>:
}

/** Event handler for the library USB Disconnection event. */
void EVENT_USB_Device_Disconnect(void)
{
	LCD_Clear();
    1704:	81 e0       	ldi	r24, 0x01	; 1
    1706:	0e 94 0d 03 	call	0x61a	; 0x61a <LCD_WriteCom>
    170a:	8f e3       	ldi	r24, 0x3F	; 63
    170c:	9f e1       	ldi	r25, 0x1F	; 31
    170e:	01 97       	sbiw	r24, 0x01	; 1
    1710:	f1 f7       	brne	.-4      	; 0x170e <EVENT_USB_Device_Disconnect+0xa>
    1712:	00 c0       	rjmp	.+0      	; 0x1714 <EVENT_USB_Device_Disconnect+0x10>
    1714:	00 00       	nop
	LCD_SendStr((char*)"USB disconnect");
    1716:	87 e4       	ldi	r24, 0x47	; 71
    1718:	91 e0       	ldi	r25, 0x01	; 1
    171a:	0c 94 4a 03 	jmp	0x694	; 0x694 <LCD_SendStr>

0000171e <EVENT_USB_Device_ConfigurationChanged>:
/** Event handler for the library USB Configuration Changed event. */
void EVENT_USB_Device_ConfigurationChanged(void)
{
	bool ConfigSuccess = true;

	ConfigSuccess &= CDC_Device_ConfigureEndpoints(&VirtualSerial_CDC_Interface);
    171e:	81 e0       	ldi	r24, 0x01	; 1
    1720:	91 e0       	ldi	r25, 0x01	; 1
    1722:	3f d8       	rcall	.-3970   	; 0x7a2 <CDC_Device_ConfigureEndpoints>
	LCD_Clear();
    1724:	81 e0       	ldi	r24, 0x01	; 1
    1726:	0e 94 0d 03 	call	0x61a	; 0x61a <LCD_WriteCom>
    172a:	8f e3       	ldi	r24, 0x3F	; 63
    172c:	9f e1       	ldi	r25, 0x1F	; 31
    172e:	01 97       	sbiw	r24, 0x01	; 1
    1730:	f1 f7       	brne	.-4      	; 0x172e <EVENT_USB_Device_ConfigurationChanged+0x10>
    1732:	00 c0       	rjmp	.+0      	; 0x1734 <EVENT_USB_Device_ConfigurationChanged+0x16>
    1734:	00 00       	nop
	LCD_SendStr((char*)"USB config ok");
    1736:	86 e5       	ldi	r24, 0x56	; 86
    1738:	91 e0       	ldi	r25, 0x01	; 1
    173a:	0c 94 4a 03 	jmp	0x694	; 0x694 <LCD_SendStr>

0000173e <EVENT_USB_Device_ControlRequest>:
}

/** Event handler for the library USB Control Request reception event. */
void EVENT_USB_Device_ControlRequest(void)
{
	CDC_Device_ProcessControlRequest(&VirtualSerial_CDC_Interface);
    173e:	81 e0       	ldi	r24, 0x01	; 1
    1740:	91 e0       	ldi	r25, 0x01	; 1
    1742:	42 c9       	rjmp	.-3452   	; 0x9c8 <CDC_Device_ProcessControlRequest>

00001744 <__subsf3>:
    1744:	50 58       	subi	r21, 0x80	; 128

00001746 <__addsf3>:
    1746:	bb 27       	eor	r27, r27
    1748:	aa 27       	eor	r26, r26
    174a:	0e d0       	rcall	.+28     	; 0x1768 <__addsf3x>
    174c:	1c c1       	rjmp	.+568    	; 0x1986 <__fp_round>
    174e:	0d d1       	rcall	.+538    	; 0x196a <__fp_pscA>
    1750:	30 f0       	brcs	.+12     	; 0x175e <__addsf3+0x18>
    1752:	12 d1       	rcall	.+548    	; 0x1978 <__fp_pscB>
    1754:	20 f0       	brcs	.+8      	; 0x175e <__addsf3+0x18>
    1756:	31 f4       	brne	.+12     	; 0x1764 <__addsf3+0x1e>
    1758:	9f 3f       	cpi	r25, 0xFF	; 255
    175a:	11 f4       	brne	.+4      	; 0x1760 <__addsf3+0x1a>
    175c:	1e f4       	brtc	.+6      	; 0x1764 <__addsf3+0x1e>
    175e:	02 c1       	rjmp	.+516    	; 0x1964 <__fp_nan>
    1760:	0e f4       	brtc	.+2      	; 0x1764 <__addsf3+0x1e>
    1762:	e0 95       	com	r30
    1764:	e7 fb       	bst	r30, 7
    1766:	f8 c0       	rjmp	.+496    	; 0x1958 <__fp_inf>

00001768 <__addsf3x>:
    1768:	e9 2f       	mov	r30, r25
    176a:	1e d1       	rcall	.+572    	; 0x19a8 <__fp_split3>
    176c:	80 f3       	brcs	.-32     	; 0x174e <__addsf3+0x8>
    176e:	ba 17       	cp	r27, r26
    1770:	62 07       	cpc	r22, r18
    1772:	73 07       	cpc	r23, r19
    1774:	84 07       	cpc	r24, r20
    1776:	95 07       	cpc	r25, r21
    1778:	18 f0       	brcs	.+6      	; 0x1780 <__addsf3x+0x18>
    177a:	71 f4       	brne	.+28     	; 0x1798 <__addsf3x+0x30>
    177c:	9e f5       	brtc	.+102    	; 0x17e4 <__addsf3x+0x7c>
    177e:	36 c1       	rjmp	.+620    	; 0x19ec <__fp_zero>
    1780:	0e f4       	brtc	.+2      	; 0x1784 <__addsf3x+0x1c>
    1782:	e0 95       	com	r30
    1784:	0b 2e       	mov	r0, r27
    1786:	ba 2f       	mov	r27, r26
    1788:	a0 2d       	mov	r26, r0
    178a:	0b 01       	movw	r0, r22
    178c:	b9 01       	movw	r22, r18
    178e:	90 01       	movw	r18, r0
    1790:	0c 01       	movw	r0, r24
    1792:	ca 01       	movw	r24, r20
    1794:	a0 01       	movw	r20, r0
    1796:	11 24       	eor	r1, r1
    1798:	ff 27       	eor	r31, r31
    179a:	59 1b       	sub	r21, r25
    179c:	99 f0       	breq	.+38     	; 0x17c4 <__addsf3x+0x5c>
    179e:	59 3f       	cpi	r21, 0xF9	; 249
    17a0:	50 f4       	brcc	.+20     	; 0x17b6 <__addsf3x+0x4e>
    17a2:	50 3e       	cpi	r21, 0xE0	; 224
    17a4:	68 f1       	brcs	.+90     	; 0x1800 <__addsf3x+0x98>
    17a6:	1a 16       	cp	r1, r26
    17a8:	f0 40       	sbci	r31, 0x00	; 0
    17aa:	a2 2f       	mov	r26, r18
    17ac:	23 2f       	mov	r18, r19
    17ae:	34 2f       	mov	r19, r20
    17b0:	44 27       	eor	r20, r20
    17b2:	58 5f       	subi	r21, 0xF8	; 248
    17b4:	f3 cf       	rjmp	.-26     	; 0x179c <__addsf3x+0x34>
    17b6:	46 95       	lsr	r20
    17b8:	37 95       	ror	r19
    17ba:	27 95       	ror	r18
    17bc:	a7 95       	ror	r26
    17be:	f0 40       	sbci	r31, 0x00	; 0
    17c0:	53 95       	inc	r21
    17c2:	c9 f7       	brne	.-14     	; 0x17b6 <__addsf3x+0x4e>
    17c4:	7e f4       	brtc	.+30     	; 0x17e4 <__addsf3x+0x7c>
    17c6:	1f 16       	cp	r1, r31
    17c8:	ba 0b       	sbc	r27, r26
    17ca:	62 0b       	sbc	r22, r18
    17cc:	73 0b       	sbc	r23, r19
    17ce:	84 0b       	sbc	r24, r20
    17d0:	ba f0       	brmi	.+46     	; 0x1800 <__addsf3x+0x98>
    17d2:	91 50       	subi	r25, 0x01	; 1
    17d4:	a1 f0       	breq	.+40     	; 0x17fe <__addsf3x+0x96>
    17d6:	ff 0f       	add	r31, r31
    17d8:	bb 1f       	adc	r27, r27
    17da:	66 1f       	adc	r22, r22
    17dc:	77 1f       	adc	r23, r23
    17de:	88 1f       	adc	r24, r24
    17e0:	c2 f7       	brpl	.-16     	; 0x17d2 <__addsf3x+0x6a>
    17e2:	0e c0       	rjmp	.+28     	; 0x1800 <__addsf3x+0x98>
    17e4:	ba 0f       	add	r27, r26
    17e6:	62 1f       	adc	r22, r18
    17e8:	73 1f       	adc	r23, r19
    17ea:	84 1f       	adc	r24, r20
    17ec:	48 f4       	brcc	.+18     	; 0x1800 <__addsf3x+0x98>
    17ee:	87 95       	ror	r24
    17f0:	77 95       	ror	r23
    17f2:	67 95       	ror	r22
    17f4:	b7 95       	ror	r27
    17f6:	f7 95       	ror	r31
    17f8:	9e 3f       	cpi	r25, 0xFE	; 254
    17fa:	08 f0       	brcs	.+2      	; 0x17fe <__addsf3x+0x96>
    17fc:	b3 cf       	rjmp	.-154    	; 0x1764 <__addsf3+0x1e>
    17fe:	93 95       	inc	r25
    1800:	88 0f       	add	r24, r24
    1802:	08 f0       	brcs	.+2      	; 0x1806 <__addsf3x+0x9e>
    1804:	99 27       	eor	r25, r25
    1806:	ee 0f       	add	r30, r30
    1808:	97 95       	ror	r25
    180a:	87 95       	ror	r24
    180c:	08 95       	ret

0000180e <__divsf3>:
    180e:	0c d0       	rcall	.+24     	; 0x1828 <__divsf3x>
    1810:	ba c0       	rjmp	.+372    	; 0x1986 <__fp_round>
    1812:	b2 d0       	rcall	.+356    	; 0x1978 <__fp_pscB>
    1814:	40 f0       	brcs	.+16     	; 0x1826 <__divsf3+0x18>
    1816:	a9 d0       	rcall	.+338    	; 0x196a <__fp_pscA>
    1818:	30 f0       	brcs	.+12     	; 0x1826 <__divsf3+0x18>
    181a:	21 f4       	brne	.+8      	; 0x1824 <__divsf3+0x16>
    181c:	5f 3f       	cpi	r21, 0xFF	; 255
    181e:	19 f0       	breq	.+6      	; 0x1826 <__divsf3+0x18>
    1820:	9b c0       	rjmp	.+310    	; 0x1958 <__fp_inf>
    1822:	51 11       	cpse	r21, r1
    1824:	e4 c0       	rjmp	.+456    	; 0x19ee <__fp_szero>
    1826:	9e c0       	rjmp	.+316    	; 0x1964 <__fp_nan>

00001828 <__divsf3x>:
    1828:	bf d0       	rcall	.+382    	; 0x19a8 <__fp_split3>
    182a:	98 f3       	brcs	.-26     	; 0x1812 <__divsf3+0x4>

0000182c <__divsf3_pse>:
    182c:	99 23       	and	r25, r25
    182e:	c9 f3       	breq	.-14     	; 0x1822 <__divsf3+0x14>
    1830:	55 23       	and	r21, r21
    1832:	b1 f3       	breq	.-20     	; 0x1820 <__divsf3+0x12>
    1834:	95 1b       	sub	r25, r21
    1836:	55 0b       	sbc	r21, r21
    1838:	bb 27       	eor	r27, r27
    183a:	aa 27       	eor	r26, r26
    183c:	62 17       	cp	r22, r18
    183e:	73 07       	cpc	r23, r19
    1840:	84 07       	cpc	r24, r20
    1842:	38 f0       	brcs	.+14     	; 0x1852 <__divsf3_pse+0x26>
    1844:	9f 5f       	subi	r25, 0xFF	; 255
    1846:	5f 4f       	sbci	r21, 0xFF	; 255
    1848:	22 0f       	add	r18, r18
    184a:	33 1f       	adc	r19, r19
    184c:	44 1f       	adc	r20, r20
    184e:	aa 1f       	adc	r26, r26
    1850:	a9 f3       	breq	.-22     	; 0x183c <__divsf3_pse+0x10>
    1852:	33 d0       	rcall	.+102    	; 0x18ba <__divsf3_pse+0x8e>
    1854:	0e 2e       	mov	r0, r30
    1856:	3a f0       	brmi	.+14     	; 0x1866 <__divsf3_pse+0x3a>
    1858:	e0 e8       	ldi	r30, 0x80	; 128
    185a:	30 d0       	rcall	.+96     	; 0x18bc <__divsf3_pse+0x90>
    185c:	91 50       	subi	r25, 0x01	; 1
    185e:	50 40       	sbci	r21, 0x00	; 0
    1860:	e6 95       	lsr	r30
    1862:	00 1c       	adc	r0, r0
    1864:	ca f7       	brpl	.-14     	; 0x1858 <__divsf3_pse+0x2c>
    1866:	29 d0       	rcall	.+82     	; 0x18ba <__divsf3_pse+0x8e>
    1868:	fe 2f       	mov	r31, r30
    186a:	27 d0       	rcall	.+78     	; 0x18ba <__divsf3_pse+0x8e>
    186c:	66 0f       	add	r22, r22
    186e:	77 1f       	adc	r23, r23
    1870:	88 1f       	adc	r24, r24
    1872:	bb 1f       	adc	r27, r27
    1874:	26 17       	cp	r18, r22
    1876:	37 07       	cpc	r19, r23
    1878:	48 07       	cpc	r20, r24
    187a:	ab 07       	cpc	r26, r27
    187c:	b0 e8       	ldi	r27, 0x80	; 128
    187e:	09 f0       	breq	.+2      	; 0x1882 <__divsf3_pse+0x56>
    1880:	bb 0b       	sbc	r27, r27
    1882:	80 2d       	mov	r24, r0
    1884:	bf 01       	movw	r22, r30
    1886:	ff 27       	eor	r31, r31
    1888:	93 58       	subi	r25, 0x83	; 131
    188a:	5f 4f       	sbci	r21, 0xFF	; 255
    188c:	2a f0       	brmi	.+10     	; 0x1898 <__divsf3_pse+0x6c>
    188e:	9e 3f       	cpi	r25, 0xFE	; 254
    1890:	51 05       	cpc	r21, r1
    1892:	68 f0       	brcs	.+26     	; 0x18ae <__divsf3_pse+0x82>
    1894:	61 c0       	rjmp	.+194    	; 0x1958 <__fp_inf>
    1896:	ab c0       	rjmp	.+342    	; 0x19ee <__fp_szero>
    1898:	5f 3f       	cpi	r21, 0xFF	; 255
    189a:	ec f3       	brlt	.-6      	; 0x1896 <__divsf3_pse+0x6a>
    189c:	98 3e       	cpi	r25, 0xE8	; 232
    189e:	dc f3       	brlt	.-10     	; 0x1896 <__divsf3_pse+0x6a>
    18a0:	86 95       	lsr	r24
    18a2:	77 95       	ror	r23
    18a4:	67 95       	ror	r22
    18a6:	b7 95       	ror	r27
    18a8:	f7 95       	ror	r31
    18aa:	9f 5f       	subi	r25, 0xFF	; 255
    18ac:	c9 f7       	brne	.-14     	; 0x18a0 <__divsf3_pse+0x74>
    18ae:	88 0f       	add	r24, r24
    18b0:	91 1d       	adc	r25, r1
    18b2:	96 95       	lsr	r25
    18b4:	87 95       	ror	r24
    18b6:	97 f9       	bld	r25, 7
    18b8:	08 95       	ret
    18ba:	e1 e0       	ldi	r30, 0x01	; 1
    18bc:	66 0f       	add	r22, r22
    18be:	77 1f       	adc	r23, r23
    18c0:	88 1f       	adc	r24, r24
    18c2:	bb 1f       	adc	r27, r27
    18c4:	62 17       	cp	r22, r18
    18c6:	73 07       	cpc	r23, r19
    18c8:	84 07       	cpc	r24, r20
    18ca:	ba 07       	cpc	r27, r26
    18cc:	20 f0       	brcs	.+8      	; 0x18d6 <__divsf3_pse+0xaa>
    18ce:	62 1b       	sub	r22, r18
    18d0:	73 0b       	sbc	r23, r19
    18d2:	84 0b       	sbc	r24, r20
    18d4:	ba 0b       	sbc	r27, r26
    18d6:	ee 1f       	adc	r30, r30
    18d8:	88 f7       	brcc	.-30     	; 0x18bc <__divsf3_pse+0x90>
    18da:	e0 95       	com	r30
    18dc:	08 95       	ret

000018de <__floatunsisf>:
    18de:	e8 94       	clt
    18e0:	09 c0       	rjmp	.+18     	; 0x18f4 <__floatsisf+0x12>

000018e2 <__floatsisf>:
    18e2:	97 fb       	bst	r25, 7
    18e4:	3e f4       	brtc	.+14     	; 0x18f4 <__floatsisf+0x12>
    18e6:	90 95       	com	r25
    18e8:	80 95       	com	r24
    18ea:	70 95       	com	r23
    18ec:	61 95       	neg	r22
    18ee:	7f 4f       	sbci	r23, 0xFF	; 255
    18f0:	8f 4f       	sbci	r24, 0xFF	; 255
    18f2:	9f 4f       	sbci	r25, 0xFF	; 255
    18f4:	99 23       	and	r25, r25
    18f6:	a9 f0       	breq	.+42     	; 0x1922 <__floatsisf+0x40>
    18f8:	f9 2f       	mov	r31, r25
    18fa:	96 e9       	ldi	r25, 0x96	; 150
    18fc:	bb 27       	eor	r27, r27
    18fe:	93 95       	inc	r25
    1900:	f6 95       	lsr	r31
    1902:	87 95       	ror	r24
    1904:	77 95       	ror	r23
    1906:	67 95       	ror	r22
    1908:	b7 95       	ror	r27
    190a:	f1 11       	cpse	r31, r1
    190c:	f8 cf       	rjmp	.-16     	; 0x18fe <__floatsisf+0x1c>
    190e:	fa f4       	brpl	.+62     	; 0x194e <__floatsisf+0x6c>
    1910:	bb 0f       	add	r27, r27
    1912:	11 f4       	brne	.+4      	; 0x1918 <__floatsisf+0x36>
    1914:	60 ff       	sbrs	r22, 0
    1916:	1b c0       	rjmp	.+54     	; 0x194e <__floatsisf+0x6c>
    1918:	6f 5f       	subi	r22, 0xFF	; 255
    191a:	7f 4f       	sbci	r23, 0xFF	; 255
    191c:	8f 4f       	sbci	r24, 0xFF	; 255
    191e:	9f 4f       	sbci	r25, 0xFF	; 255
    1920:	16 c0       	rjmp	.+44     	; 0x194e <__floatsisf+0x6c>
    1922:	88 23       	and	r24, r24
    1924:	11 f0       	breq	.+4      	; 0x192a <__floatsisf+0x48>
    1926:	96 e9       	ldi	r25, 0x96	; 150
    1928:	11 c0       	rjmp	.+34     	; 0x194c <__floatsisf+0x6a>
    192a:	77 23       	and	r23, r23
    192c:	21 f0       	breq	.+8      	; 0x1936 <__floatsisf+0x54>
    192e:	9e e8       	ldi	r25, 0x8E	; 142
    1930:	87 2f       	mov	r24, r23
    1932:	76 2f       	mov	r23, r22
    1934:	05 c0       	rjmp	.+10     	; 0x1940 <__floatsisf+0x5e>
    1936:	66 23       	and	r22, r22
    1938:	71 f0       	breq	.+28     	; 0x1956 <__floatsisf+0x74>
    193a:	96 e8       	ldi	r25, 0x86	; 134
    193c:	86 2f       	mov	r24, r22
    193e:	70 e0       	ldi	r23, 0x00	; 0
    1940:	60 e0       	ldi	r22, 0x00	; 0
    1942:	2a f0       	brmi	.+10     	; 0x194e <__floatsisf+0x6c>
    1944:	9a 95       	dec	r25
    1946:	66 0f       	add	r22, r22
    1948:	77 1f       	adc	r23, r23
    194a:	88 1f       	adc	r24, r24
    194c:	da f7       	brpl	.-10     	; 0x1944 <__floatsisf+0x62>
    194e:	88 0f       	add	r24, r24
    1950:	96 95       	lsr	r25
    1952:	87 95       	ror	r24
    1954:	97 f9       	bld	r25, 7
    1956:	08 95       	ret

00001958 <__fp_inf>:
    1958:	97 f9       	bld	r25, 7
    195a:	9f 67       	ori	r25, 0x7F	; 127
    195c:	80 e8       	ldi	r24, 0x80	; 128
    195e:	70 e0       	ldi	r23, 0x00	; 0
    1960:	60 e0       	ldi	r22, 0x00	; 0
    1962:	08 95       	ret

00001964 <__fp_nan>:
    1964:	9f ef       	ldi	r25, 0xFF	; 255
    1966:	80 ec       	ldi	r24, 0xC0	; 192
    1968:	08 95       	ret

0000196a <__fp_pscA>:
    196a:	00 24       	eor	r0, r0
    196c:	0a 94       	dec	r0
    196e:	16 16       	cp	r1, r22
    1970:	17 06       	cpc	r1, r23
    1972:	18 06       	cpc	r1, r24
    1974:	09 06       	cpc	r0, r25
    1976:	08 95       	ret

00001978 <__fp_pscB>:
    1978:	00 24       	eor	r0, r0
    197a:	0a 94       	dec	r0
    197c:	12 16       	cp	r1, r18
    197e:	13 06       	cpc	r1, r19
    1980:	14 06       	cpc	r1, r20
    1982:	05 06       	cpc	r0, r21
    1984:	08 95       	ret

00001986 <__fp_round>:
    1986:	09 2e       	mov	r0, r25
    1988:	03 94       	inc	r0
    198a:	00 0c       	add	r0, r0
    198c:	11 f4       	brne	.+4      	; 0x1992 <__fp_round+0xc>
    198e:	88 23       	and	r24, r24
    1990:	52 f0       	brmi	.+20     	; 0x19a6 <__fp_round+0x20>
    1992:	bb 0f       	add	r27, r27
    1994:	40 f4       	brcc	.+16     	; 0x19a6 <__fp_round+0x20>
    1996:	bf 2b       	or	r27, r31
    1998:	11 f4       	brne	.+4      	; 0x199e <__fp_round+0x18>
    199a:	60 ff       	sbrs	r22, 0
    199c:	04 c0       	rjmp	.+8      	; 0x19a6 <__fp_round+0x20>
    199e:	6f 5f       	subi	r22, 0xFF	; 255
    19a0:	7f 4f       	sbci	r23, 0xFF	; 255
    19a2:	8f 4f       	sbci	r24, 0xFF	; 255
    19a4:	9f 4f       	sbci	r25, 0xFF	; 255
    19a6:	08 95       	ret

000019a8 <__fp_split3>:
    19a8:	57 fd       	sbrc	r21, 7
    19aa:	90 58       	subi	r25, 0x80	; 128
    19ac:	44 0f       	add	r20, r20
    19ae:	55 1f       	adc	r21, r21
    19b0:	59 f0       	breq	.+22     	; 0x19c8 <__fp_splitA+0x10>
    19b2:	5f 3f       	cpi	r21, 0xFF	; 255
    19b4:	71 f0       	breq	.+28     	; 0x19d2 <__fp_splitA+0x1a>
    19b6:	47 95       	ror	r20

000019b8 <__fp_splitA>:
    19b8:	88 0f       	add	r24, r24
    19ba:	97 fb       	bst	r25, 7
    19bc:	99 1f       	adc	r25, r25
    19be:	61 f0       	breq	.+24     	; 0x19d8 <__fp_splitA+0x20>
    19c0:	9f 3f       	cpi	r25, 0xFF	; 255
    19c2:	79 f0       	breq	.+30     	; 0x19e2 <__fp_splitA+0x2a>
    19c4:	87 95       	ror	r24
    19c6:	08 95       	ret
    19c8:	12 16       	cp	r1, r18
    19ca:	13 06       	cpc	r1, r19
    19cc:	14 06       	cpc	r1, r20
    19ce:	55 1f       	adc	r21, r21
    19d0:	f2 cf       	rjmp	.-28     	; 0x19b6 <__fp_split3+0xe>
    19d2:	46 95       	lsr	r20
    19d4:	f1 df       	rcall	.-30     	; 0x19b8 <__fp_splitA>
    19d6:	08 c0       	rjmp	.+16     	; 0x19e8 <__fp_splitA+0x30>
    19d8:	16 16       	cp	r1, r22
    19da:	17 06       	cpc	r1, r23
    19dc:	18 06       	cpc	r1, r24
    19de:	99 1f       	adc	r25, r25
    19e0:	f1 cf       	rjmp	.-30     	; 0x19c4 <__fp_splitA+0xc>
    19e2:	86 95       	lsr	r24
    19e4:	71 05       	cpc	r23, r1
    19e6:	61 05       	cpc	r22, r1
    19e8:	08 94       	sec
    19ea:	08 95       	ret

000019ec <__fp_zero>:
    19ec:	e8 94       	clt

000019ee <__fp_szero>:
    19ee:	bb 27       	eor	r27, r27
    19f0:	66 27       	eor	r22, r22
    19f2:	77 27       	eor	r23, r23
    19f4:	cb 01       	movw	r24, r22
    19f6:	97 f9       	bld	r25, 7
    19f8:	08 95       	ret

000019fa <__mulsf3>:
    19fa:	0b d0       	rcall	.+22     	; 0x1a12 <__mulsf3x>
    19fc:	c4 cf       	rjmp	.-120    	; 0x1986 <__fp_round>
    19fe:	b5 df       	rcall	.-150    	; 0x196a <__fp_pscA>
    1a00:	28 f0       	brcs	.+10     	; 0x1a0c <__mulsf3+0x12>
    1a02:	ba df       	rcall	.-140    	; 0x1978 <__fp_pscB>
    1a04:	18 f0       	brcs	.+6      	; 0x1a0c <__mulsf3+0x12>
    1a06:	95 23       	and	r25, r21
    1a08:	09 f0       	breq	.+2      	; 0x1a0c <__mulsf3+0x12>
    1a0a:	a6 cf       	rjmp	.-180    	; 0x1958 <__fp_inf>
    1a0c:	ab cf       	rjmp	.-170    	; 0x1964 <__fp_nan>
    1a0e:	11 24       	eor	r1, r1
    1a10:	ee cf       	rjmp	.-36     	; 0x19ee <__fp_szero>

00001a12 <__mulsf3x>:
    1a12:	ca df       	rcall	.-108    	; 0x19a8 <__fp_split3>
    1a14:	a0 f3       	brcs	.-24     	; 0x19fe <__mulsf3+0x4>

00001a16 <__mulsf3_pse>:
    1a16:	95 9f       	mul	r25, r21
    1a18:	d1 f3       	breq	.-12     	; 0x1a0e <__mulsf3+0x14>
    1a1a:	95 0f       	add	r25, r21
    1a1c:	50 e0       	ldi	r21, 0x00	; 0
    1a1e:	55 1f       	adc	r21, r21
    1a20:	62 9f       	mul	r22, r18
    1a22:	f0 01       	movw	r30, r0
    1a24:	72 9f       	mul	r23, r18
    1a26:	bb 27       	eor	r27, r27
    1a28:	f0 0d       	add	r31, r0
    1a2a:	b1 1d       	adc	r27, r1
    1a2c:	63 9f       	mul	r22, r19
    1a2e:	aa 27       	eor	r26, r26
    1a30:	f0 0d       	add	r31, r0
    1a32:	b1 1d       	adc	r27, r1
    1a34:	aa 1f       	adc	r26, r26
    1a36:	64 9f       	mul	r22, r20
    1a38:	66 27       	eor	r22, r22
    1a3a:	b0 0d       	add	r27, r0
    1a3c:	a1 1d       	adc	r26, r1
    1a3e:	66 1f       	adc	r22, r22
    1a40:	82 9f       	mul	r24, r18
    1a42:	22 27       	eor	r18, r18
    1a44:	b0 0d       	add	r27, r0
    1a46:	a1 1d       	adc	r26, r1
    1a48:	62 1f       	adc	r22, r18
    1a4a:	73 9f       	mul	r23, r19
    1a4c:	b0 0d       	add	r27, r0
    1a4e:	a1 1d       	adc	r26, r1
    1a50:	62 1f       	adc	r22, r18
    1a52:	83 9f       	mul	r24, r19
    1a54:	a0 0d       	add	r26, r0
    1a56:	61 1d       	adc	r22, r1
    1a58:	22 1f       	adc	r18, r18
    1a5a:	74 9f       	mul	r23, r20
    1a5c:	33 27       	eor	r19, r19
    1a5e:	a0 0d       	add	r26, r0
    1a60:	61 1d       	adc	r22, r1
    1a62:	23 1f       	adc	r18, r19
    1a64:	84 9f       	mul	r24, r20
    1a66:	60 0d       	add	r22, r0
    1a68:	21 1d       	adc	r18, r1
    1a6a:	82 2f       	mov	r24, r18
    1a6c:	76 2f       	mov	r23, r22
    1a6e:	6a 2f       	mov	r22, r26
    1a70:	11 24       	eor	r1, r1
    1a72:	9f 57       	subi	r25, 0x7F	; 127
    1a74:	50 40       	sbci	r21, 0x00	; 0
    1a76:	8a f0       	brmi	.+34     	; 0x1a9a <__mulsf3_pse+0x84>
    1a78:	e1 f0       	breq	.+56     	; 0x1ab2 <__mulsf3_pse+0x9c>
    1a7a:	88 23       	and	r24, r24
    1a7c:	4a f0       	brmi	.+18     	; 0x1a90 <__mulsf3_pse+0x7a>
    1a7e:	ee 0f       	add	r30, r30
    1a80:	ff 1f       	adc	r31, r31
    1a82:	bb 1f       	adc	r27, r27
    1a84:	66 1f       	adc	r22, r22
    1a86:	77 1f       	adc	r23, r23
    1a88:	88 1f       	adc	r24, r24
    1a8a:	91 50       	subi	r25, 0x01	; 1
    1a8c:	50 40       	sbci	r21, 0x00	; 0
    1a8e:	a9 f7       	brne	.-22     	; 0x1a7a <__mulsf3_pse+0x64>
    1a90:	9e 3f       	cpi	r25, 0xFE	; 254
    1a92:	51 05       	cpc	r21, r1
    1a94:	70 f0       	brcs	.+28     	; 0x1ab2 <__mulsf3_pse+0x9c>
    1a96:	60 cf       	rjmp	.-320    	; 0x1958 <__fp_inf>
    1a98:	aa cf       	rjmp	.-172    	; 0x19ee <__fp_szero>
    1a9a:	5f 3f       	cpi	r21, 0xFF	; 255
    1a9c:	ec f3       	brlt	.-6      	; 0x1a98 <__mulsf3_pse+0x82>
    1a9e:	98 3e       	cpi	r25, 0xE8	; 232
    1aa0:	dc f3       	brlt	.-10     	; 0x1a98 <__mulsf3_pse+0x82>
    1aa2:	86 95       	lsr	r24
    1aa4:	77 95       	ror	r23
    1aa6:	67 95       	ror	r22
    1aa8:	b7 95       	ror	r27
    1aaa:	f7 95       	ror	r31
    1aac:	e7 95       	ror	r30
    1aae:	9f 5f       	subi	r25, 0xFF	; 255
    1ab0:	c1 f7       	brne	.-16     	; 0x1aa2 <__mulsf3_pse+0x8c>
    1ab2:	fe 2b       	or	r31, r30
    1ab4:	88 0f       	add	r24, r24
    1ab6:	91 1d       	adc	r25, r1
    1ab8:	96 95       	lsr	r25
    1aba:	87 95       	ror	r24
    1abc:	97 f9       	bld	r25, 7
    1abe:	08 95       	ret

00001ac0 <vfprintf>:
    1ac0:	a3 e1       	ldi	r26, 0x13	; 19
    1ac2:	b0 e0       	ldi	r27, 0x00	; 0
    1ac4:	e5 e6       	ldi	r30, 0x65	; 101
    1ac6:	fd e0       	ldi	r31, 0x0D	; 13
    1ac8:	f0 c3       	rjmp	.+2016   	; 0x22aa <__prologue_saves__>
    1aca:	7c 01       	movw	r14, r24
    1acc:	1b 01       	movw	r2, r22
    1ace:	6a 01       	movw	r12, r20
    1ad0:	fc 01       	movw	r30, r24
    1ad2:	17 82       	std	Z+7, r1	; 0x07
    1ad4:	16 82       	std	Z+6, r1	; 0x06
    1ad6:	83 81       	ldd	r24, Z+3	; 0x03
    1ad8:	81 ff       	sbrs	r24, 1
    1ada:	49 c3       	rjmp	.+1682   	; 0x216e <vfprintf+0x6ae>
    1adc:	be 01       	movw	r22, r28
    1ade:	6f 5f       	subi	r22, 0xFF	; 255
    1ae0:	7f 4f       	sbci	r23, 0xFF	; 255
    1ae2:	4b 01       	movw	r8, r22
    1ae4:	f7 01       	movw	r30, r14
    1ae6:	93 81       	ldd	r25, Z+3	; 0x03
    1ae8:	f1 01       	movw	r30, r2
    1aea:	93 fd       	sbrc	r25, 3
    1aec:	85 91       	lpm	r24, Z+
    1aee:	93 ff       	sbrs	r25, 3
    1af0:	81 91       	ld	r24, Z+
    1af2:	1f 01       	movw	r2, r30
    1af4:	88 23       	and	r24, r24
    1af6:	09 f4       	brne	.+2      	; 0x1afa <vfprintf+0x3a>
    1af8:	36 c3       	rjmp	.+1644   	; 0x2166 <vfprintf+0x6a6>
    1afa:	85 32       	cpi	r24, 0x25	; 37
    1afc:	39 f4       	brne	.+14     	; 0x1b0c <vfprintf+0x4c>
    1afe:	93 fd       	sbrc	r25, 3
    1b00:	85 91       	lpm	r24, Z+
    1b02:	93 ff       	sbrs	r25, 3
    1b04:	81 91       	ld	r24, Z+
    1b06:	1f 01       	movw	r2, r30
    1b08:	85 32       	cpi	r24, 0x25	; 37
    1b0a:	31 f4       	brne	.+12     	; 0x1b18 <vfprintf+0x58>
    1b0c:	b7 01       	movw	r22, r14
    1b0e:	90 e0       	ldi	r25, 0x00	; 0
    1b10:	fd d4       	rcall	.+2554   	; 0x250c <fputc>
    1b12:	56 01       	movw	r10, r12
    1b14:	65 01       	movw	r12, r10
    1b16:	e6 cf       	rjmp	.-52     	; 0x1ae4 <vfprintf+0x24>
    1b18:	10 e0       	ldi	r17, 0x00	; 0
    1b1a:	51 2c       	mov	r5, r1
    1b1c:	20 e0       	ldi	r18, 0x00	; 0
    1b1e:	20 32       	cpi	r18, 0x20	; 32
    1b20:	a0 f4       	brcc	.+40     	; 0x1b4a <vfprintf+0x8a>
    1b22:	8b 32       	cpi	r24, 0x2B	; 43
    1b24:	69 f0       	breq	.+26     	; 0x1b40 <vfprintf+0x80>
    1b26:	30 f4       	brcc	.+12     	; 0x1b34 <vfprintf+0x74>
    1b28:	80 32       	cpi	r24, 0x20	; 32
    1b2a:	59 f0       	breq	.+22     	; 0x1b42 <vfprintf+0x82>
    1b2c:	83 32       	cpi	r24, 0x23	; 35
    1b2e:	69 f4       	brne	.+26     	; 0x1b4a <vfprintf+0x8a>
    1b30:	20 61       	ori	r18, 0x10	; 16
    1b32:	2c c0       	rjmp	.+88     	; 0x1b8c <vfprintf+0xcc>
    1b34:	8d 32       	cpi	r24, 0x2D	; 45
    1b36:	39 f0       	breq	.+14     	; 0x1b46 <vfprintf+0x86>
    1b38:	80 33       	cpi	r24, 0x30	; 48
    1b3a:	39 f4       	brne	.+14     	; 0x1b4a <vfprintf+0x8a>
    1b3c:	21 60       	ori	r18, 0x01	; 1
    1b3e:	26 c0       	rjmp	.+76     	; 0x1b8c <vfprintf+0xcc>
    1b40:	22 60       	ori	r18, 0x02	; 2
    1b42:	24 60       	ori	r18, 0x04	; 4
    1b44:	23 c0       	rjmp	.+70     	; 0x1b8c <vfprintf+0xcc>
    1b46:	28 60       	ori	r18, 0x08	; 8
    1b48:	21 c0       	rjmp	.+66     	; 0x1b8c <vfprintf+0xcc>
    1b4a:	27 fd       	sbrc	r18, 7
    1b4c:	27 c0       	rjmp	.+78     	; 0x1b9c <vfprintf+0xdc>
    1b4e:	30 ed       	ldi	r19, 0xD0	; 208
    1b50:	38 0f       	add	r19, r24
    1b52:	3a 30       	cpi	r19, 0x0A	; 10
    1b54:	78 f4       	brcc	.+30     	; 0x1b74 <vfprintf+0xb4>
    1b56:	26 ff       	sbrs	r18, 6
    1b58:	06 c0       	rjmp	.+12     	; 0x1b66 <vfprintf+0xa6>
    1b5a:	fa e0       	ldi	r31, 0x0A	; 10
    1b5c:	1f 9f       	mul	r17, r31
    1b5e:	30 0d       	add	r19, r0
    1b60:	11 24       	eor	r1, r1
    1b62:	13 2f       	mov	r17, r19
    1b64:	13 c0       	rjmp	.+38     	; 0x1b8c <vfprintf+0xcc>
    1b66:	6a e0       	ldi	r22, 0x0A	; 10
    1b68:	56 9e       	mul	r5, r22
    1b6a:	30 0d       	add	r19, r0
    1b6c:	11 24       	eor	r1, r1
    1b6e:	53 2e       	mov	r5, r19
    1b70:	20 62       	ori	r18, 0x20	; 32
    1b72:	0c c0       	rjmp	.+24     	; 0x1b8c <vfprintf+0xcc>
    1b74:	8e 32       	cpi	r24, 0x2E	; 46
    1b76:	21 f4       	brne	.+8      	; 0x1b80 <vfprintf+0xc0>
    1b78:	26 fd       	sbrc	r18, 6
    1b7a:	f5 c2       	rjmp	.+1514   	; 0x2166 <vfprintf+0x6a6>
    1b7c:	20 64       	ori	r18, 0x40	; 64
    1b7e:	06 c0       	rjmp	.+12     	; 0x1b8c <vfprintf+0xcc>
    1b80:	8c 36       	cpi	r24, 0x6C	; 108
    1b82:	11 f4       	brne	.+4      	; 0x1b88 <vfprintf+0xc8>
    1b84:	20 68       	ori	r18, 0x80	; 128
    1b86:	02 c0       	rjmp	.+4      	; 0x1b8c <vfprintf+0xcc>
    1b88:	88 36       	cpi	r24, 0x68	; 104
    1b8a:	41 f4       	brne	.+16     	; 0x1b9c <vfprintf+0xdc>
    1b8c:	f1 01       	movw	r30, r2
    1b8e:	93 fd       	sbrc	r25, 3
    1b90:	85 91       	lpm	r24, Z+
    1b92:	93 ff       	sbrs	r25, 3
    1b94:	81 91       	ld	r24, Z+
    1b96:	1f 01       	movw	r2, r30
    1b98:	81 11       	cpse	r24, r1
    1b9a:	c1 cf       	rjmp	.-126    	; 0x1b1e <vfprintf+0x5e>
    1b9c:	9b eb       	ldi	r25, 0xBB	; 187
    1b9e:	98 0f       	add	r25, r24
    1ba0:	93 30       	cpi	r25, 0x03	; 3
    1ba2:	18 f4       	brcc	.+6      	; 0x1baa <vfprintf+0xea>
    1ba4:	20 61       	ori	r18, 0x10	; 16
    1ba6:	80 5e       	subi	r24, 0xE0	; 224
    1ba8:	06 c0       	rjmp	.+12     	; 0x1bb6 <vfprintf+0xf6>
    1baa:	9b e9       	ldi	r25, 0x9B	; 155
    1bac:	98 0f       	add	r25, r24
    1bae:	93 30       	cpi	r25, 0x03	; 3
    1bb0:	08 f0       	brcs	.+2      	; 0x1bb4 <vfprintf+0xf4>
    1bb2:	9a c1       	rjmp	.+820    	; 0x1ee8 <vfprintf+0x428>
    1bb4:	2f 7e       	andi	r18, 0xEF	; 239
    1bb6:	26 ff       	sbrs	r18, 6
    1bb8:	16 e0       	ldi	r17, 0x06	; 6
    1bba:	2f 73       	andi	r18, 0x3F	; 63
    1bbc:	72 2e       	mov	r7, r18
    1bbe:	85 36       	cpi	r24, 0x65	; 101
    1bc0:	21 f4       	brne	.+8      	; 0x1bca <vfprintf+0x10a>
    1bc2:	f2 2f       	mov	r31, r18
    1bc4:	f0 64       	ori	r31, 0x40	; 64
    1bc6:	7f 2e       	mov	r7, r31
    1bc8:	08 c0       	rjmp	.+16     	; 0x1bda <vfprintf+0x11a>
    1bca:	86 36       	cpi	r24, 0x66	; 102
    1bcc:	21 f4       	brne	.+8      	; 0x1bd6 <vfprintf+0x116>
    1bce:	62 2f       	mov	r22, r18
    1bd0:	60 68       	ori	r22, 0x80	; 128
    1bd2:	76 2e       	mov	r7, r22
    1bd4:	02 c0       	rjmp	.+4      	; 0x1bda <vfprintf+0x11a>
    1bd6:	11 11       	cpse	r17, r1
    1bd8:	11 50       	subi	r17, 0x01	; 1
    1bda:	77 fe       	sbrs	r7, 7
    1bdc:	07 c0       	rjmp	.+14     	; 0x1bec <vfprintf+0x12c>
    1bde:	1c 33       	cpi	r17, 0x3C	; 60
    1be0:	48 f4       	brcc	.+18     	; 0x1bf4 <vfprintf+0x134>
    1be2:	44 24       	eor	r4, r4
    1be4:	43 94       	inc	r4
    1be6:	41 0e       	add	r4, r17
    1be8:	27 e0       	ldi	r18, 0x07	; 7
    1bea:	0b c0       	rjmp	.+22     	; 0x1c02 <vfprintf+0x142>
    1bec:	18 30       	cpi	r17, 0x08	; 8
    1bee:	30 f4       	brcc	.+12     	; 0x1bfc <vfprintf+0x13c>
    1bf0:	21 2f       	mov	r18, r17
    1bf2:	06 c0       	rjmp	.+12     	; 0x1c00 <vfprintf+0x140>
    1bf4:	27 e0       	ldi	r18, 0x07	; 7
    1bf6:	4c e3       	ldi	r20, 0x3C	; 60
    1bf8:	44 2e       	mov	r4, r20
    1bfa:	03 c0       	rjmp	.+6      	; 0x1c02 <vfprintf+0x142>
    1bfc:	27 e0       	ldi	r18, 0x07	; 7
    1bfe:	17 e0       	ldi	r17, 0x07	; 7
    1c00:	41 2c       	mov	r4, r1
    1c02:	56 01       	movw	r10, r12
    1c04:	74 e0       	ldi	r23, 0x04	; 4
    1c06:	a7 0e       	add	r10, r23
    1c08:	b1 1c       	adc	r11, r1
    1c0a:	f6 01       	movw	r30, r12
    1c0c:	60 81       	ld	r22, Z
    1c0e:	71 81       	ldd	r23, Z+1	; 0x01
    1c10:	82 81       	ldd	r24, Z+2	; 0x02
    1c12:	93 81       	ldd	r25, Z+3	; 0x03
    1c14:	04 2d       	mov	r16, r4
    1c16:	a4 01       	movw	r20, r8
    1c18:	8b d3       	rcall	.+1814   	; 0x2330 <__ftoa_engine>
    1c1a:	6c 01       	movw	r12, r24
    1c1c:	09 81       	ldd	r16, Y+1	; 0x01
    1c1e:	00 ff       	sbrs	r16, 0
    1c20:	02 c0       	rjmp	.+4      	; 0x1c26 <vfprintf+0x166>
    1c22:	03 ff       	sbrs	r16, 3
    1c24:	06 c0       	rjmp	.+12     	; 0x1c32 <vfprintf+0x172>
    1c26:	71 fc       	sbrc	r7, 1
    1c28:	07 c0       	rjmp	.+14     	; 0x1c38 <vfprintf+0x178>
    1c2a:	72 fc       	sbrc	r7, 2
    1c2c:	08 c0       	rjmp	.+16     	; 0x1c3e <vfprintf+0x17e>
    1c2e:	61 2c       	mov	r6, r1
    1c30:	08 c0       	rjmp	.+16     	; 0x1c42 <vfprintf+0x182>
    1c32:	3d e2       	ldi	r19, 0x2D	; 45
    1c34:	63 2e       	mov	r6, r19
    1c36:	05 c0       	rjmp	.+10     	; 0x1c42 <vfprintf+0x182>
    1c38:	2b e2       	ldi	r18, 0x2B	; 43
    1c3a:	62 2e       	mov	r6, r18
    1c3c:	02 c0       	rjmp	.+4      	; 0x1c42 <vfprintf+0x182>
    1c3e:	90 e2       	ldi	r25, 0x20	; 32
    1c40:	69 2e       	mov	r6, r25
    1c42:	80 2f       	mov	r24, r16
    1c44:	8c 70       	andi	r24, 0x0C	; 12
    1c46:	81 f1       	breq	.+96     	; 0x1ca8 <vfprintf+0x1e8>
    1c48:	66 20       	and	r6, r6
    1c4a:	11 f0       	breq	.+4      	; 0x1c50 <vfprintf+0x190>
    1c4c:	84 e0       	ldi	r24, 0x04	; 4
    1c4e:	01 c0       	rjmp	.+2      	; 0x1c52 <vfprintf+0x192>
    1c50:	83 e0       	ldi	r24, 0x03	; 3
    1c52:	85 15       	cp	r24, r5
    1c54:	10 f0       	brcs	.+4      	; 0x1c5a <vfprintf+0x19a>
    1c56:	51 2c       	mov	r5, r1
    1c58:	0a c0       	rjmp	.+20     	; 0x1c6e <vfprintf+0x1ae>
    1c5a:	58 1a       	sub	r5, r24
    1c5c:	73 fc       	sbrc	r7, 3
    1c5e:	07 c0       	rjmp	.+14     	; 0x1c6e <vfprintf+0x1ae>
    1c60:	b7 01       	movw	r22, r14
    1c62:	80 e2       	ldi	r24, 0x20	; 32
    1c64:	90 e0       	ldi	r25, 0x00	; 0
    1c66:	52 d4       	rcall	.+2212   	; 0x250c <fputc>
    1c68:	5a 94       	dec	r5
    1c6a:	d1 f7       	brne	.-12     	; 0x1c60 <vfprintf+0x1a0>
    1c6c:	f4 cf       	rjmp	.-24     	; 0x1c56 <vfprintf+0x196>
    1c6e:	66 20       	and	r6, r6
    1c70:	21 f0       	breq	.+8      	; 0x1c7a <vfprintf+0x1ba>
    1c72:	b7 01       	movw	r22, r14
    1c74:	86 2d       	mov	r24, r6
    1c76:	90 e0       	ldi	r25, 0x00	; 0
    1c78:	49 d4       	rcall	.+2194   	; 0x250c <fputc>
    1c7a:	03 fd       	sbrc	r16, 3
    1c7c:	03 c0       	rjmp	.+6      	; 0x1c84 <vfprintf+0x1c4>
    1c7e:	0c e3       	ldi	r16, 0x3C	; 60
    1c80:	11 e0       	ldi	r17, 0x01	; 1
    1c82:	02 c0       	rjmp	.+4      	; 0x1c88 <vfprintf+0x1c8>
    1c84:	08 e3       	ldi	r16, 0x38	; 56
    1c86:	11 e0       	ldi	r17, 0x01	; 1
    1c88:	f7 2d       	mov	r31, r7
    1c8a:	f0 71       	andi	r31, 0x10	; 16
    1c8c:	7f 2e       	mov	r7, r31
    1c8e:	f8 01       	movw	r30, r16
    1c90:	84 91       	lpm	r24, Z
    1c92:	88 23       	and	r24, r24
    1c94:	09 f4       	brne	.+2      	; 0x1c98 <vfprintf+0x1d8>
    1c96:	5e c2       	rjmp	.+1212   	; 0x2154 <vfprintf+0x694>
    1c98:	71 10       	cpse	r7, r1
    1c9a:	80 52       	subi	r24, 0x20	; 32
    1c9c:	b7 01       	movw	r22, r14
    1c9e:	90 e0       	ldi	r25, 0x00	; 0
    1ca0:	35 d4       	rcall	.+2154   	; 0x250c <fputc>
    1ca2:	0f 5f       	subi	r16, 0xFF	; 255
    1ca4:	1f 4f       	sbci	r17, 0xFF	; 255
    1ca6:	f3 cf       	rjmp	.-26     	; 0x1c8e <vfprintf+0x1ce>
    1ca8:	77 fe       	sbrs	r7, 7
    1caa:	0f c0       	rjmp	.+30     	; 0x1cca <vfprintf+0x20a>
    1cac:	4c 0c       	add	r4, r12
    1cae:	04 ff       	sbrs	r16, 4
    1cb0:	04 c0       	rjmp	.+8      	; 0x1cba <vfprintf+0x1fa>
    1cb2:	8a 81       	ldd	r24, Y+2	; 0x02
    1cb4:	81 33       	cpi	r24, 0x31	; 49
    1cb6:	09 f4       	brne	.+2      	; 0x1cba <vfprintf+0x1fa>
    1cb8:	4a 94       	dec	r4
    1cba:	14 14       	cp	r1, r4
    1cbc:	74 f5       	brge	.+92     	; 0x1d1a <vfprintf+0x25a>
    1cbe:	f8 e0       	ldi	r31, 0x08	; 8
    1cc0:	f4 15       	cp	r31, r4
    1cc2:	78 f5       	brcc	.+94     	; 0x1d22 <vfprintf+0x262>
    1cc4:	88 e0       	ldi	r24, 0x08	; 8
    1cc6:	48 2e       	mov	r4, r24
    1cc8:	2c c0       	rjmp	.+88     	; 0x1d22 <vfprintf+0x262>
    1cca:	76 fc       	sbrc	r7, 6
    1ccc:	2a c0       	rjmp	.+84     	; 0x1d22 <vfprintf+0x262>
    1cce:	81 2f       	mov	r24, r17
    1cd0:	90 e0       	ldi	r25, 0x00	; 0
    1cd2:	8c 15       	cp	r24, r12
    1cd4:	9d 05       	cpc	r25, r13
    1cd6:	9c f0       	brlt	.+38     	; 0x1cfe <vfprintf+0x23e>
    1cd8:	6c ef       	ldi	r22, 0xFC	; 252
    1cda:	c6 16       	cp	r12, r22
    1cdc:	6f ef       	ldi	r22, 0xFF	; 255
    1cde:	d6 06       	cpc	r13, r22
    1ce0:	74 f0       	brlt	.+28     	; 0x1cfe <vfprintf+0x23e>
    1ce2:	77 2d       	mov	r23, r7
    1ce4:	70 68       	ori	r23, 0x80	; 128
    1ce6:	77 2e       	mov	r7, r23
    1ce8:	0a c0       	rjmp	.+20     	; 0x1cfe <vfprintf+0x23e>
    1cea:	e2 e0       	ldi	r30, 0x02	; 2
    1cec:	f0 e0       	ldi	r31, 0x00	; 0
    1cee:	ec 0f       	add	r30, r28
    1cf0:	fd 1f       	adc	r31, r29
    1cf2:	e1 0f       	add	r30, r17
    1cf4:	f1 1d       	adc	r31, r1
    1cf6:	80 81       	ld	r24, Z
    1cf8:	80 33       	cpi	r24, 0x30	; 48
    1cfa:	19 f4       	brne	.+6      	; 0x1d02 <vfprintf+0x242>
    1cfc:	11 50       	subi	r17, 0x01	; 1
    1cfe:	11 11       	cpse	r17, r1
    1d00:	f4 cf       	rjmp	.-24     	; 0x1cea <vfprintf+0x22a>
    1d02:	77 fe       	sbrs	r7, 7
    1d04:	0e c0       	rjmp	.+28     	; 0x1d22 <vfprintf+0x262>
    1d06:	44 24       	eor	r4, r4
    1d08:	43 94       	inc	r4
    1d0a:	41 0e       	add	r4, r17
    1d0c:	81 2f       	mov	r24, r17
    1d0e:	90 e0       	ldi	r25, 0x00	; 0
    1d10:	c8 16       	cp	r12, r24
    1d12:	d9 06       	cpc	r13, r25
    1d14:	2c f4       	brge	.+10     	; 0x1d20 <vfprintf+0x260>
    1d16:	1c 19       	sub	r17, r12
    1d18:	04 c0       	rjmp	.+8      	; 0x1d22 <vfprintf+0x262>
    1d1a:	44 24       	eor	r4, r4
    1d1c:	43 94       	inc	r4
    1d1e:	01 c0       	rjmp	.+2      	; 0x1d22 <vfprintf+0x262>
    1d20:	10 e0       	ldi	r17, 0x00	; 0
    1d22:	77 fe       	sbrs	r7, 7
    1d24:	07 c0       	rjmp	.+14     	; 0x1d34 <vfprintf+0x274>
    1d26:	1c 14       	cp	r1, r12
    1d28:	1d 04       	cpc	r1, r13
    1d2a:	3c f4       	brge	.+14     	; 0x1d3a <vfprintf+0x27a>
    1d2c:	96 01       	movw	r18, r12
    1d2e:	2f 5f       	subi	r18, 0xFF	; 255
    1d30:	3f 4f       	sbci	r19, 0xFF	; 255
    1d32:	05 c0       	rjmp	.+10     	; 0x1d3e <vfprintf+0x27e>
    1d34:	25 e0       	ldi	r18, 0x05	; 5
    1d36:	30 e0       	ldi	r19, 0x00	; 0
    1d38:	02 c0       	rjmp	.+4      	; 0x1d3e <vfprintf+0x27e>
    1d3a:	21 e0       	ldi	r18, 0x01	; 1
    1d3c:	30 e0       	ldi	r19, 0x00	; 0
    1d3e:	66 20       	and	r6, r6
    1d40:	11 f0       	breq	.+4      	; 0x1d46 <vfprintf+0x286>
    1d42:	2f 5f       	subi	r18, 0xFF	; 255
    1d44:	3f 4f       	sbci	r19, 0xFF	; 255
    1d46:	11 23       	and	r17, r17
    1d48:	31 f0       	breq	.+12     	; 0x1d56 <vfprintf+0x296>
    1d4a:	41 2f       	mov	r20, r17
    1d4c:	50 e0       	ldi	r21, 0x00	; 0
    1d4e:	4f 5f       	subi	r20, 0xFF	; 255
    1d50:	5f 4f       	sbci	r21, 0xFF	; 255
    1d52:	24 0f       	add	r18, r20
    1d54:	35 1f       	adc	r19, r21
    1d56:	45 2d       	mov	r20, r5
    1d58:	50 e0       	ldi	r21, 0x00	; 0
    1d5a:	24 17       	cp	r18, r20
    1d5c:	35 07       	cpc	r19, r21
    1d5e:	14 f4       	brge	.+4      	; 0x1d64 <vfprintf+0x2a4>
    1d60:	52 1a       	sub	r5, r18
    1d62:	01 c0       	rjmp	.+2      	; 0x1d66 <vfprintf+0x2a6>
    1d64:	51 2c       	mov	r5, r1
    1d66:	87 2d       	mov	r24, r7
    1d68:	89 70       	andi	r24, 0x09	; 9
    1d6a:	41 f4       	brne	.+16     	; 0x1d7c <vfprintf+0x2bc>
    1d6c:	55 20       	and	r5, r5
    1d6e:	31 f0       	breq	.+12     	; 0x1d7c <vfprintf+0x2bc>
    1d70:	b7 01       	movw	r22, r14
    1d72:	80 e2       	ldi	r24, 0x20	; 32
    1d74:	90 e0       	ldi	r25, 0x00	; 0
    1d76:	ca d3       	rcall	.+1940   	; 0x250c <fputc>
    1d78:	5a 94       	dec	r5
    1d7a:	f8 cf       	rjmp	.-16     	; 0x1d6c <vfprintf+0x2ac>
    1d7c:	66 20       	and	r6, r6
    1d7e:	21 f0       	breq	.+8      	; 0x1d88 <vfprintf+0x2c8>
    1d80:	b7 01       	movw	r22, r14
    1d82:	86 2d       	mov	r24, r6
    1d84:	90 e0       	ldi	r25, 0x00	; 0
    1d86:	c2 d3       	rcall	.+1924   	; 0x250c <fputc>
    1d88:	73 fc       	sbrc	r7, 3
    1d8a:	08 c0       	rjmp	.+16     	; 0x1d9c <vfprintf+0x2dc>
    1d8c:	55 20       	and	r5, r5
    1d8e:	31 f0       	breq	.+12     	; 0x1d9c <vfprintf+0x2dc>
    1d90:	b7 01       	movw	r22, r14
    1d92:	80 e3       	ldi	r24, 0x30	; 48
    1d94:	90 e0       	ldi	r25, 0x00	; 0
    1d96:	ba d3       	rcall	.+1908   	; 0x250c <fputc>
    1d98:	5a 94       	dec	r5
    1d9a:	f8 cf       	rjmp	.-16     	; 0x1d8c <vfprintf+0x2cc>
    1d9c:	77 fe       	sbrs	r7, 7
    1d9e:	5d c0       	rjmp	.+186    	; 0x1e5a <vfprintf+0x39a>
    1da0:	9c 2d       	mov	r25, r12
    1da2:	8d 2d       	mov	r24, r13
    1da4:	d7 fe       	sbrs	r13, 7
    1da6:	02 c0       	rjmp	.+4      	; 0x1dac <vfprintf+0x2ec>
    1da8:	90 e0       	ldi	r25, 0x00	; 0
    1daa:	80 e0       	ldi	r24, 0x00	; 0
    1dac:	69 2e       	mov	r6, r25
    1dae:	78 2e       	mov	r7, r24
    1db0:	40 e0       	ldi	r20, 0x00	; 0
    1db2:	50 e0       	ldi	r21, 0x00	; 0
    1db4:	c6 01       	movw	r24, r12
    1db6:	84 19       	sub	r24, r4
    1db8:	91 09       	sbc	r25, r1
    1dba:	9d 87       	std	Y+13, r25	; 0x0d
    1dbc:	8c 87       	std	Y+12, r24	; 0x0c
    1dbe:	96 01       	movw	r18, r12
    1dc0:	26 19       	sub	r18, r6
    1dc2:	37 09       	sbc	r19, r7
    1dc4:	28 0d       	add	r18, r8
    1dc6:	39 1d       	adc	r19, r9
    1dc8:	81 2f       	mov	r24, r17
    1dca:	90 e0       	ldi	r25, 0x00	; 0
    1dcc:	ee 27       	eor	r30, r30
    1dce:	ff 27       	eor	r31, r31
    1dd0:	e8 1b       	sub	r30, r24
    1dd2:	f9 0b       	sbc	r31, r25
    1dd4:	ff 87       	std	Y+15, r31	; 0x0f
    1dd6:	ee 87       	std	Y+14, r30	; 0x0e
    1dd8:	ff ef       	ldi	r31, 0xFF	; 255
    1dda:	6f 16       	cp	r6, r31
    1ddc:	7f 06       	cpc	r7, r31
    1dde:	61 f4       	brne	.+24     	; 0x1df8 <vfprintf+0x338>
    1de0:	b7 01       	movw	r22, r14
    1de2:	8e e2       	ldi	r24, 0x2E	; 46
    1de4:	90 e0       	ldi	r25, 0x00	; 0
    1de6:	2b 8b       	std	Y+19, r18	; 0x13
    1de8:	3a 8b       	std	Y+18, r19	; 0x12
    1dea:	48 8b       	std	Y+16, r20	; 0x10
    1dec:	59 8b       	std	Y+17, r21	; 0x11
    1dee:	8e d3       	rcall	.+1820   	; 0x250c <fputc>
    1df0:	59 89       	ldd	r21, Y+17	; 0x11
    1df2:	48 89       	ldd	r20, Y+16	; 0x10
    1df4:	3a 89       	ldd	r19, Y+18	; 0x12
    1df6:	2b 89       	ldd	r18, Y+19	; 0x13
    1df8:	c6 14       	cp	r12, r6
    1dfa:	d7 04       	cpc	r13, r7
    1dfc:	54 f0       	brlt	.+20     	; 0x1e12 <vfprintf+0x352>
    1dfe:	6c 85       	ldd	r22, Y+12	; 0x0c
    1e00:	7d 85       	ldd	r23, Y+13	; 0x0d
    1e02:	66 15       	cp	r22, r6
    1e04:	77 05       	cpc	r23, r7
    1e06:	2c f4       	brge	.+10     	; 0x1e12 <vfprintf+0x352>
    1e08:	f9 01       	movw	r30, r18
    1e0a:	e4 0f       	add	r30, r20
    1e0c:	f5 1f       	adc	r31, r21
    1e0e:	81 81       	ldd	r24, Z+1	; 0x01
    1e10:	01 c0       	rjmp	.+2      	; 0x1e14 <vfprintf+0x354>
    1e12:	80 e3       	ldi	r24, 0x30	; 48
    1e14:	71 e0       	ldi	r23, 0x01	; 1
    1e16:	67 1a       	sub	r6, r23
    1e18:	71 08       	sbc	r7, r1
    1e1a:	4f 5f       	subi	r20, 0xFF	; 255
    1e1c:	5f 4f       	sbci	r21, 0xFF	; 255
    1e1e:	ee 85       	ldd	r30, Y+14	; 0x0e
    1e20:	ff 85       	ldd	r31, Y+15	; 0x0f
    1e22:	6e 16       	cp	r6, r30
    1e24:	7f 06       	cpc	r7, r31
    1e26:	64 f0       	brlt	.+24     	; 0x1e40 <vfprintf+0x380>
    1e28:	b7 01       	movw	r22, r14
    1e2a:	90 e0       	ldi	r25, 0x00	; 0
    1e2c:	2b 8b       	std	Y+19, r18	; 0x13
    1e2e:	3a 8b       	std	Y+18, r19	; 0x12
    1e30:	48 8b       	std	Y+16, r20	; 0x10
    1e32:	59 8b       	std	Y+17, r21	; 0x11
    1e34:	6b d3       	rcall	.+1750   	; 0x250c <fputc>
    1e36:	2b 89       	ldd	r18, Y+19	; 0x13
    1e38:	3a 89       	ldd	r19, Y+18	; 0x12
    1e3a:	48 89       	ldd	r20, Y+16	; 0x10
    1e3c:	59 89       	ldd	r21, Y+17	; 0x11
    1e3e:	cc cf       	rjmp	.-104    	; 0x1dd8 <vfprintf+0x318>
    1e40:	6c 14       	cp	r6, r12
    1e42:	7d 04       	cpc	r7, r13
    1e44:	39 f4       	brne	.+14     	; 0x1e54 <vfprintf+0x394>
    1e46:	9a 81       	ldd	r25, Y+2	; 0x02
    1e48:	96 33       	cpi	r25, 0x36	; 54
    1e4a:	18 f4       	brcc	.+6      	; 0x1e52 <vfprintf+0x392>
    1e4c:	95 33       	cpi	r25, 0x35	; 53
    1e4e:	11 f4       	brne	.+4      	; 0x1e54 <vfprintf+0x394>
    1e50:	04 ff       	sbrs	r16, 4
    1e52:	81 e3       	ldi	r24, 0x31	; 49
    1e54:	b7 01       	movw	r22, r14
    1e56:	90 e0       	ldi	r25, 0x00	; 0
    1e58:	45 c0       	rjmp	.+138    	; 0x1ee4 <vfprintf+0x424>
    1e5a:	8a 81       	ldd	r24, Y+2	; 0x02
    1e5c:	81 33       	cpi	r24, 0x31	; 49
    1e5e:	09 f0       	breq	.+2      	; 0x1e62 <vfprintf+0x3a2>
    1e60:	0f 7e       	andi	r16, 0xEF	; 239
    1e62:	b7 01       	movw	r22, r14
    1e64:	90 e0       	ldi	r25, 0x00	; 0
    1e66:	52 d3       	rcall	.+1700   	; 0x250c <fputc>
    1e68:	11 11       	cpse	r17, r1
    1e6a:	05 c0       	rjmp	.+10     	; 0x1e76 <vfprintf+0x3b6>
    1e6c:	74 fe       	sbrs	r7, 4
    1e6e:	16 c0       	rjmp	.+44     	; 0x1e9c <vfprintf+0x3dc>
    1e70:	85 e4       	ldi	r24, 0x45	; 69
    1e72:	90 e0       	ldi	r25, 0x00	; 0
    1e74:	15 c0       	rjmp	.+42     	; 0x1ea0 <vfprintf+0x3e0>
    1e76:	b7 01       	movw	r22, r14
    1e78:	8e e2       	ldi	r24, 0x2E	; 46
    1e7a:	90 e0       	ldi	r25, 0x00	; 0
    1e7c:	47 d3       	rcall	.+1678   	; 0x250c <fputc>
    1e7e:	82 e0       	ldi	r24, 0x02	; 2
    1e80:	66 24       	eor	r6, r6
    1e82:	63 94       	inc	r6
    1e84:	68 0e       	add	r6, r24
    1e86:	f4 01       	movw	r30, r8
    1e88:	e8 0f       	add	r30, r24
    1e8a:	f1 1d       	adc	r31, r1
    1e8c:	80 81       	ld	r24, Z
    1e8e:	b7 01       	movw	r22, r14
    1e90:	90 e0       	ldi	r25, 0x00	; 0
    1e92:	3c d3       	rcall	.+1656   	; 0x250c <fputc>
    1e94:	11 50       	subi	r17, 0x01	; 1
    1e96:	51 f3       	breq	.-44     	; 0x1e6c <vfprintf+0x3ac>
    1e98:	86 2d       	mov	r24, r6
    1e9a:	f2 cf       	rjmp	.-28     	; 0x1e80 <vfprintf+0x3c0>
    1e9c:	85 e6       	ldi	r24, 0x65	; 101
    1e9e:	90 e0       	ldi	r25, 0x00	; 0
    1ea0:	b7 01       	movw	r22, r14
    1ea2:	34 d3       	rcall	.+1640   	; 0x250c <fputc>
    1ea4:	d7 fc       	sbrc	r13, 7
    1ea6:	05 c0       	rjmp	.+10     	; 0x1eb2 <vfprintf+0x3f2>
    1ea8:	c1 14       	cp	r12, r1
    1eaa:	d1 04       	cpc	r13, r1
    1eac:	39 f4       	brne	.+14     	; 0x1ebc <vfprintf+0x3fc>
    1eae:	04 ff       	sbrs	r16, 4
    1eb0:	05 c0       	rjmp	.+10     	; 0x1ebc <vfprintf+0x3fc>
    1eb2:	d1 94       	neg	r13
    1eb4:	c1 94       	neg	r12
    1eb6:	d1 08       	sbc	r13, r1
    1eb8:	8d e2       	ldi	r24, 0x2D	; 45
    1eba:	01 c0       	rjmp	.+2      	; 0x1ebe <vfprintf+0x3fe>
    1ebc:	8b e2       	ldi	r24, 0x2B	; 43
    1ebe:	b7 01       	movw	r22, r14
    1ec0:	90 e0       	ldi	r25, 0x00	; 0
    1ec2:	24 d3       	rcall	.+1608   	; 0x250c <fputc>
    1ec4:	80 e3       	ldi	r24, 0x30	; 48
    1ec6:	6a e0       	ldi	r22, 0x0A	; 10
    1ec8:	c6 16       	cp	r12, r22
    1eca:	d1 04       	cpc	r13, r1
    1ecc:	2c f0       	brlt	.+10     	; 0x1ed8 <vfprintf+0x418>
    1ece:	8f 5f       	subi	r24, 0xFF	; 255
    1ed0:	fa e0       	ldi	r31, 0x0A	; 10
    1ed2:	cf 1a       	sub	r12, r31
    1ed4:	d1 08       	sbc	r13, r1
    1ed6:	f7 cf       	rjmp	.-18     	; 0x1ec6 <vfprintf+0x406>
    1ed8:	b7 01       	movw	r22, r14
    1eda:	90 e0       	ldi	r25, 0x00	; 0
    1edc:	17 d3       	rcall	.+1582   	; 0x250c <fputc>
    1ede:	b7 01       	movw	r22, r14
    1ee0:	c6 01       	movw	r24, r12
    1ee2:	c0 96       	adiw	r24, 0x30	; 48
    1ee4:	13 d3       	rcall	.+1574   	; 0x250c <fputc>
    1ee6:	36 c1       	rjmp	.+620    	; 0x2154 <vfprintf+0x694>
    1ee8:	83 36       	cpi	r24, 0x63	; 99
    1eea:	31 f0       	breq	.+12     	; 0x1ef8 <vfprintf+0x438>
    1eec:	83 37       	cpi	r24, 0x73	; 115
    1eee:	79 f0       	breq	.+30     	; 0x1f0e <vfprintf+0x44e>
    1ef0:	83 35       	cpi	r24, 0x53	; 83
    1ef2:	09 f0       	breq	.+2      	; 0x1ef6 <vfprintf+0x436>
    1ef4:	54 c0       	rjmp	.+168    	; 0x1f9e <vfprintf+0x4de>
    1ef6:	20 c0       	rjmp	.+64     	; 0x1f38 <vfprintf+0x478>
    1ef8:	56 01       	movw	r10, r12
    1efa:	72 e0       	ldi	r23, 0x02	; 2
    1efc:	a7 0e       	add	r10, r23
    1efe:	b1 1c       	adc	r11, r1
    1f00:	f6 01       	movw	r30, r12
    1f02:	80 81       	ld	r24, Z
    1f04:	89 83       	std	Y+1, r24	; 0x01
    1f06:	01 e0       	ldi	r16, 0x01	; 1
    1f08:	10 e0       	ldi	r17, 0x00	; 0
    1f0a:	64 01       	movw	r12, r8
    1f0c:	13 c0       	rjmp	.+38     	; 0x1f34 <vfprintf+0x474>
    1f0e:	56 01       	movw	r10, r12
    1f10:	f2 e0       	ldi	r31, 0x02	; 2
    1f12:	af 0e       	add	r10, r31
    1f14:	b1 1c       	adc	r11, r1
    1f16:	f6 01       	movw	r30, r12
    1f18:	c0 80       	ld	r12, Z
    1f1a:	d1 80       	ldd	r13, Z+1	; 0x01
    1f1c:	26 ff       	sbrs	r18, 6
    1f1e:	03 c0       	rjmp	.+6      	; 0x1f26 <vfprintf+0x466>
    1f20:	61 2f       	mov	r22, r17
    1f22:	70 e0       	ldi	r23, 0x00	; 0
    1f24:	02 c0       	rjmp	.+4      	; 0x1f2a <vfprintf+0x46a>
    1f26:	6f ef       	ldi	r22, 0xFF	; 255
    1f28:	7f ef       	ldi	r23, 0xFF	; 255
    1f2a:	c6 01       	movw	r24, r12
    1f2c:	2b 8b       	std	Y+19, r18	; 0x13
    1f2e:	e3 d2       	rcall	.+1478   	; 0x24f6 <strnlen>
    1f30:	8c 01       	movw	r16, r24
    1f32:	2b 89       	ldd	r18, Y+19	; 0x13
    1f34:	2f 77       	andi	r18, 0x7F	; 127
    1f36:	14 c0       	rjmp	.+40     	; 0x1f60 <vfprintf+0x4a0>
    1f38:	56 01       	movw	r10, r12
    1f3a:	f2 e0       	ldi	r31, 0x02	; 2
    1f3c:	af 0e       	add	r10, r31
    1f3e:	b1 1c       	adc	r11, r1
    1f40:	f6 01       	movw	r30, r12
    1f42:	c0 80       	ld	r12, Z
    1f44:	d1 80       	ldd	r13, Z+1	; 0x01
    1f46:	26 ff       	sbrs	r18, 6
    1f48:	03 c0       	rjmp	.+6      	; 0x1f50 <vfprintf+0x490>
    1f4a:	61 2f       	mov	r22, r17
    1f4c:	70 e0       	ldi	r23, 0x00	; 0
    1f4e:	02 c0       	rjmp	.+4      	; 0x1f54 <vfprintf+0x494>
    1f50:	6f ef       	ldi	r22, 0xFF	; 255
    1f52:	7f ef       	ldi	r23, 0xFF	; 255
    1f54:	c6 01       	movw	r24, r12
    1f56:	2b 8b       	std	Y+19, r18	; 0x13
    1f58:	c3 d2       	rcall	.+1414   	; 0x24e0 <strnlen_P>
    1f5a:	8c 01       	movw	r16, r24
    1f5c:	2b 89       	ldd	r18, Y+19	; 0x13
    1f5e:	20 68       	ori	r18, 0x80	; 128
    1f60:	72 2e       	mov	r7, r18
    1f62:	23 fd       	sbrc	r18, 3
    1f64:	18 c0       	rjmp	.+48     	; 0x1f96 <vfprintf+0x4d6>
    1f66:	85 2d       	mov	r24, r5
    1f68:	90 e0       	ldi	r25, 0x00	; 0
    1f6a:	08 17       	cp	r16, r24
    1f6c:	19 07       	cpc	r17, r25
    1f6e:	98 f4       	brcc	.+38     	; 0x1f96 <vfprintf+0x4d6>
    1f70:	b7 01       	movw	r22, r14
    1f72:	80 e2       	ldi	r24, 0x20	; 32
    1f74:	90 e0       	ldi	r25, 0x00	; 0
    1f76:	ca d2       	rcall	.+1428   	; 0x250c <fputc>
    1f78:	5a 94       	dec	r5
    1f7a:	f5 cf       	rjmp	.-22     	; 0x1f66 <vfprintf+0x4a6>
    1f7c:	f6 01       	movw	r30, r12
    1f7e:	77 fc       	sbrc	r7, 7
    1f80:	85 91       	lpm	r24, Z+
    1f82:	77 fe       	sbrs	r7, 7
    1f84:	81 91       	ld	r24, Z+
    1f86:	6f 01       	movw	r12, r30
    1f88:	b7 01       	movw	r22, r14
    1f8a:	90 e0       	ldi	r25, 0x00	; 0
    1f8c:	bf d2       	rcall	.+1406   	; 0x250c <fputc>
    1f8e:	51 10       	cpse	r5, r1
    1f90:	5a 94       	dec	r5
    1f92:	01 50       	subi	r16, 0x01	; 1
    1f94:	11 09       	sbc	r17, r1
    1f96:	01 15       	cp	r16, r1
    1f98:	11 05       	cpc	r17, r1
    1f9a:	81 f7       	brne	.-32     	; 0x1f7c <vfprintf+0x4bc>
    1f9c:	db c0       	rjmp	.+438    	; 0x2154 <vfprintf+0x694>
    1f9e:	84 36       	cpi	r24, 0x64	; 100
    1fa0:	11 f0       	breq	.+4      	; 0x1fa6 <vfprintf+0x4e6>
    1fa2:	89 36       	cpi	r24, 0x69	; 105
    1fa4:	49 f5       	brne	.+82     	; 0x1ff8 <vfprintf+0x538>
    1fa6:	56 01       	movw	r10, r12
    1fa8:	27 ff       	sbrs	r18, 7
    1faa:	09 c0       	rjmp	.+18     	; 0x1fbe <vfprintf+0x4fe>
    1fac:	f4 e0       	ldi	r31, 0x04	; 4
    1fae:	af 0e       	add	r10, r31
    1fb0:	b1 1c       	adc	r11, r1
    1fb2:	f6 01       	movw	r30, r12
    1fb4:	60 81       	ld	r22, Z
    1fb6:	71 81       	ldd	r23, Z+1	; 0x01
    1fb8:	82 81       	ldd	r24, Z+2	; 0x02
    1fba:	93 81       	ldd	r25, Z+3	; 0x03
    1fbc:	0a c0       	rjmp	.+20     	; 0x1fd2 <vfprintf+0x512>
    1fbe:	f2 e0       	ldi	r31, 0x02	; 2
    1fc0:	af 0e       	add	r10, r31
    1fc2:	b1 1c       	adc	r11, r1
    1fc4:	f6 01       	movw	r30, r12
    1fc6:	60 81       	ld	r22, Z
    1fc8:	71 81       	ldd	r23, Z+1	; 0x01
    1fca:	88 27       	eor	r24, r24
    1fcc:	77 fd       	sbrc	r23, 7
    1fce:	80 95       	com	r24
    1fd0:	98 2f       	mov	r25, r24
    1fd2:	02 2f       	mov	r16, r18
    1fd4:	0f 76       	andi	r16, 0x6F	; 111
    1fd6:	97 ff       	sbrs	r25, 7
    1fd8:	08 c0       	rjmp	.+16     	; 0x1fea <vfprintf+0x52a>
    1fda:	90 95       	com	r25
    1fdc:	80 95       	com	r24
    1fde:	70 95       	com	r23
    1fe0:	61 95       	neg	r22
    1fe2:	7f 4f       	sbci	r23, 0xFF	; 255
    1fe4:	8f 4f       	sbci	r24, 0xFF	; 255
    1fe6:	9f 4f       	sbci	r25, 0xFF	; 255
    1fe8:	00 68       	ori	r16, 0x80	; 128
    1fea:	2a e0       	ldi	r18, 0x0A	; 10
    1fec:	30 e0       	ldi	r19, 0x00	; 0
    1fee:	a4 01       	movw	r20, r8
    1ff0:	de d2       	rcall	.+1468   	; 0x25ae <__ultoa_invert>
    1ff2:	c8 2e       	mov	r12, r24
    1ff4:	c8 18       	sub	r12, r8
    1ff6:	3d c0       	rjmp	.+122    	; 0x2072 <vfprintf+0x5b2>
    1ff8:	02 2f       	mov	r16, r18
    1ffa:	85 37       	cpi	r24, 0x75	; 117
    1ffc:	21 f4       	brne	.+8      	; 0x2006 <vfprintf+0x546>
    1ffe:	0f 7e       	andi	r16, 0xEF	; 239
    2000:	2a e0       	ldi	r18, 0x0A	; 10
    2002:	30 e0       	ldi	r19, 0x00	; 0
    2004:	1d c0       	rjmp	.+58     	; 0x2040 <vfprintf+0x580>
    2006:	09 7f       	andi	r16, 0xF9	; 249
    2008:	8f 36       	cpi	r24, 0x6F	; 111
    200a:	91 f0       	breq	.+36     	; 0x2030 <vfprintf+0x570>
    200c:	18 f4       	brcc	.+6      	; 0x2014 <vfprintf+0x554>
    200e:	88 35       	cpi	r24, 0x58	; 88
    2010:	59 f0       	breq	.+22     	; 0x2028 <vfprintf+0x568>
    2012:	a9 c0       	rjmp	.+338    	; 0x2166 <vfprintf+0x6a6>
    2014:	80 37       	cpi	r24, 0x70	; 112
    2016:	19 f0       	breq	.+6      	; 0x201e <vfprintf+0x55e>
    2018:	88 37       	cpi	r24, 0x78	; 120
    201a:	11 f0       	breq	.+4      	; 0x2020 <vfprintf+0x560>
    201c:	a4 c0       	rjmp	.+328    	; 0x2166 <vfprintf+0x6a6>
    201e:	00 61       	ori	r16, 0x10	; 16
    2020:	04 ff       	sbrs	r16, 4
    2022:	09 c0       	rjmp	.+18     	; 0x2036 <vfprintf+0x576>
    2024:	04 60       	ori	r16, 0x04	; 4
    2026:	07 c0       	rjmp	.+14     	; 0x2036 <vfprintf+0x576>
    2028:	24 ff       	sbrs	r18, 4
    202a:	08 c0       	rjmp	.+16     	; 0x203c <vfprintf+0x57c>
    202c:	06 60       	ori	r16, 0x06	; 6
    202e:	06 c0       	rjmp	.+12     	; 0x203c <vfprintf+0x57c>
    2030:	28 e0       	ldi	r18, 0x08	; 8
    2032:	30 e0       	ldi	r19, 0x00	; 0
    2034:	05 c0       	rjmp	.+10     	; 0x2040 <vfprintf+0x580>
    2036:	20 e1       	ldi	r18, 0x10	; 16
    2038:	30 e0       	ldi	r19, 0x00	; 0
    203a:	02 c0       	rjmp	.+4      	; 0x2040 <vfprintf+0x580>
    203c:	20 e1       	ldi	r18, 0x10	; 16
    203e:	32 e0       	ldi	r19, 0x02	; 2
    2040:	56 01       	movw	r10, r12
    2042:	07 ff       	sbrs	r16, 7
    2044:	09 c0       	rjmp	.+18     	; 0x2058 <vfprintf+0x598>
    2046:	f4 e0       	ldi	r31, 0x04	; 4
    2048:	af 0e       	add	r10, r31
    204a:	b1 1c       	adc	r11, r1
    204c:	f6 01       	movw	r30, r12
    204e:	60 81       	ld	r22, Z
    2050:	71 81       	ldd	r23, Z+1	; 0x01
    2052:	82 81       	ldd	r24, Z+2	; 0x02
    2054:	93 81       	ldd	r25, Z+3	; 0x03
    2056:	08 c0       	rjmp	.+16     	; 0x2068 <vfprintf+0x5a8>
    2058:	f2 e0       	ldi	r31, 0x02	; 2
    205a:	af 0e       	add	r10, r31
    205c:	b1 1c       	adc	r11, r1
    205e:	f6 01       	movw	r30, r12
    2060:	60 81       	ld	r22, Z
    2062:	71 81       	ldd	r23, Z+1	; 0x01
    2064:	80 e0       	ldi	r24, 0x00	; 0
    2066:	90 e0       	ldi	r25, 0x00	; 0
    2068:	a4 01       	movw	r20, r8
    206a:	a1 d2       	rcall	.+1346   	; 0x25ae <__ultoa_invert>
    206c:	c8 2e       	mov	r12, r24
    206e:	c8 18       	sub	r12, r8
    2070:	0f 77       	andi	r16, 0x7F	; 127
    2072:	06 ff       	sbrs	r16, 6
    2074:	0b c0       	rjmp	.+22     	; 0x208c <vfprintf+0x5cc>
    2076:	20 2f       	mov	r18, r16
    2078:	2e 7f       	andi	r18, 0xFE	; 254
    207a:	c1 16       	cp	r12, r17
    207c:	50 f4       	brcc	.+20     	; 0x2092 <vfprintf+0x5d2>
    207e:	04 ff       	sbrs	r16, 4
    2080:	0a c0       	rjmp	.+20     	; 0x2096 <vfprintf+0x5d6>
    2082:	02 fd       	sbrc	r16, 2
    2084:	08 c0       	rjmp	.+16     	; 0x2096 <vfprintf+0x5d6>
    2086:	20 2f       	mov	r18, r16
    2088:	2e 7e       	andi	r18, 0xEE	; 238
    208a:	05 c0       	rjmp	.+10     	; 0x2096 <vfprintf+0x5d6>
    208c:	dc 2c       	mov	r13, r12
    208e:	20 2f       	mov	r18, r16
    2090:	03 c0       	rjmp	.+6      	; 0x2098 <vfprintf+0x5d8>
    2092:	dc 2c       	mov	r13, r12
    2094:	01 c0       	rjmp	.+2      	; 0x2098 <vfprintf+0x5d8>
    2096:	d1 2e       	mov	r13, r17
    2098:	24 ff       	sbrs	r18, 4
    209a:	0d c0       	rjmp	.+26     	; 0x20b6 <vfprintf+0x5f6>
    209c:	fe 01       	movw	r30, r28
    209e:	ec 0d       	add	r30, r12
    20a0:	f1 1d       	adc	r31, r1
    20a2:	80 81       	ld	r24, Z
    20a4:	80 33       	cpi	r24, 0x30	; 48
    20a6:	11 f4       	brne	.+4      	; 0x20ac <vfprintf+0x5ec>
    20a8:	29 7e       	andi	r18, 0xE9	; 233
    20aa:	09 c0       	rjmp	.+18     	; 0x20be <vfprintf+0x5fe>
    20ac:	22 ff       	sbrs	r18, 2
    20ae:	06 c0       	rjmp	.+12     	; 0x20bc <vfprintf+0x5fc>
    20b0:	d3 94       	inc	r13
    20b2:	d3 94       	inc	r13
    20b4:	04 c0       	rjmp	.+8      	; 0x20be <vfprintf+0x5fe>
    20b6:	82 2f       	mov	r24, r18
    20b8:	86 78       	andi	r24, 0x86	; 134
    20ba:	09 f0       	breq	.+2      	; 0x20be <vfprintf+0x5fe>
    20bc:	d3 94       	inc	r13
    20be:	23 fd       	sbrc	r18, 3
    20c0:	12 c0       	rjmp	.+36     	; 0x20e6 <vfprintf+0x626>
    20c2:	20 ff       	sbrs	r18, 0
    20c4:	06 c0       	rjmp	.+12     	; 0x20d2 <vfprintf+0x612>
    20c6:	1c 2d       	mov	r17, r12
    20c8:	d5 14       	cp	r13, r5
    20ca:	18 f4       	brcc	.+6      	; 0x20d2 <vfprintf+0x612>
    20cc:	15 0d       	add	r17, r5
    20ce:	1d 19       	sub	r17, r13
    20d0:	d5 2c       	mov	r13, r5
    20d2:	d5 14       	cp	r13, r5
    20d4:	60 f4       	brcc	.+24     	; 0x20ee <vfprintf+0x62e>
    20d6:	b7 01       	movw	r22, r14
    20d8:	80 e2       	ldi	r24, 0x20	; 32
    20da:	90 e0       	ldi	r25, 0x00	; 0
    20dc:	2b 8b       	std	Y+19, r18	; 0x13
    20de:	16 d2       	rcall	.+1068   	; 0x250c <fputc>
    20e0:	d3 94       	inc	r13
    20e2:	2b 89       	ldd	r18, Y+19	; 0x13
    20e4:	f6 cf       	rjmp	.-20     	; 0x20d2 <vfprintf+0x612>
    20e6:	d5 14       	cp	r13, r5
    20e8:	10 f4       	brcc	.+4      	; 0x20ee <vfprintf+0x62e>
    20ea:	5d 18       	sub	r5, r13
    20ec:	01 c0       	rjmp	.+2      	; 0x20f0 <vfprintf+0x630>
    20ee:	51 2c       	mov	r5, r1
    20f0:	24 ff       	sbrs	r18, 4
    20f2:	11 c0       	rjmp	.+34     	; 0x2116 <vfprintf+0x656>
    20f4:	b7 01       	movw	r22, r14
    20f6:	80 e3       	ldi	r24, 0x30	; 48
    20f8:	90 e0       	ldi	r25, 0x00	; 0
    20fa:	2b 8b       	std	Y+19, r18	; 0x13
    20fc:	07 d2       	rcall	.+1038   	; 0x250c <fputc>
    20fe:	2b 89       	ldd	r18, Y+19	; 0x13
    2100:	22 ff       	sbrs	r18, 2
    2102:	16 c0       	rjmp	.+44     	; 0x2130 <vfprintf+0x670>
    2104:	21 ff       	sbrs	r18, 1
    2106:	03 c0       	rjmp	.+6      	; 0x210e <vfprintf+0x64e>
    2108:	88 e5       	ldi	r24, 0x58	; 88
    210a:	90 e0       	ldi	r25, 0x00	; 0
    210c:	02 c0       	rjmp	.+4      	; 0x2112 <vfprintf+0x652>
    210e:	88 e7       	ldi	r24, 0x78	; 120
    2110:	90 e0       	ldi	r25, 0x00	; 0
    2112:	b7 01       	movw	r22, r14
    2114:	0c c0       	rjmp	.+24     	; 0x212e <vfprintf+0x66e>
    2116:	82 2f       	mov	r24, r18
    2118:	86 78       	andi	r24, 0x86	; 134
    211a:	51 f0       	breq	.+20     	; 0x2130 <vfprintf+0x670>
    211c:	21 fd       	sbrc	r18, 1
    211e:	02 c0       	rjmp	.+4      	; 0x2124 <vfprintf+0x664>
    2120:	80 e2       	ldi	r24, 0x20	; 32
    2122:	01 c0       	rjmp	.+2      	; 0x2126 <vfprintf+0x666>
    2124:	8b e2       	ldi	r24, 0x2B	; 43
    2126:	27 fd       	sbrc	r18, 7
    2128:	8d e2       	ldi	r24, 0x2D	; 45
    212a:	b7 01       	movw	r22, r14
    212c:	90 e0       	ldi	r25, 0x00	; 0
    212e:	ee d1       	rcall	.+988    	; 0x250c <fputc>
    2130:	c1 16       	cp	r12, r17
    2132:	30 f4       	brcc	.+12     	; 0x2140 <vfprintf+0x680>
    2134:	b7 01       	movw	r22, r14
    2136:	80 e3       	ldi	r24, 0x30	; 48
    2138:	90 e0       	ldi	r25, 0x00	; 0
    213a:	e8 d1       	rcall	.+976    	; 0x250c <fputc>
    213c:	11 50       	subi	r17, 0x01	; 1
    213e:	f8 cf       	rjmp	.-16     	; 0x2130 <vfprintf+0x670>
    2140:	ca 94       	dec	r12
    2142:	f4 01       	movw	r30, r8
    2144:	ec 0d       	add	r30, r12
    2146:	f1 1d       	adc	r31, r1
    2148:	80 81       	ld	r24, Z
    214a:	b7 01       	movw	r22, r14
    214c:	90 e0       	ldi	r25, 0x00	; 0
    214e:	de d1       	rcall	.+956    	; 0x250c <fputc>
    2150:	c1 10       	cpse	r12, r1
    2152:	f6 cf       	rjmp	.-20     	; 0x2140 <vfprintf+0x680>
    2154:	55 20       	and	r5, r5
    2156:	09 f4       	brne	.+2      	; 0x215a <vfprintf+0x69a>
    2158:	dd cc       	rjmp	.-1606   	; 0x1b14 <vfprintf+0x54>
    215a:	b7 01       	movw	r22, r14
    215c:	80 e2       	ldi	r24, 0x20	; 32
    215e:	90 e0       	ldi	r25, 0x00	; 0
    2160:	d5 d1       	rcall	.+938    	; 0x250c <fputc>
    2162:	5a 94       	dec	r5
    2164:	f7 cf       	rjmp	.-18     	; 0x2154 <vfprintf+0x694>
    2166:	f7 01       	movw	r30, r14
    2168:	86 81       	ldd	r24, Z+6	; 0x06
    216a:	97 81       	ldd	r25, Z+7	; 0x07
    216c:	02 c0       	rjmp	.+4      	; 0x2172 <vfprintf+0x6b2>
    216e:	8f ef       	ldi	r24, 0xFF	; 255
    2170:	9f ef       	ldi	r25, 0xFF	; 255
    2172:	63 96       	adiw	r28, 0x13	; 19
    2174:	e2 e1       	ldi	r30, 0x12	; 18
    2176:	b5 c0       	rjmp	.+362    	; 0x22e2 <__epilogue_restores__>

00002178 <__moddi3>:
    2178:	68 94       	set
    217a:	01 c0       	rjmp	.+2      	; 0x217e <__divdi3_moddi3>

0000217c <__divdi3>:
    217c:	e8 94       	clt

0000217e <__divdi3_moddi3>:
    217e:	f9 2f       	mov	r31, r25
    2180:	f1 2b       	or	r31, r17
    2182:	0a f0       	brmi	.+2      	; 0x2186 <__divdi3_moddi3+0x8>
    2184:	27 c0       	rjmp	.+78     	; 0x21d4 <__udivdi3_umoddi3>
    2186:	a0 e0       	ldi	r26, 0x00	; 0
    2188:	b0 e0       	ldi	r27, 0x00	; 0
    218a:	e8 ec       	ldi	r30, 0xC8	; 200
    218c:	f0 e1       	ldi	r31, 0x10	; 16
    218e:	93 c0       	rjmp	.+294    	; 0x22b6 <__prologue_saves__+0xc>
    2190:	09 2e       	mov	r0, r25
    2192:	05 94       	asr	r0
    2194:	1a f4       	brpl	.+6      	; 0x219c <__divdi3_moddi3+0x1e>
    2196:	79 d0       	rcall	.+242    	; 0x228a <__negdi2>
    2198:	11 23       	and	r17, r17
    219a:	92 f4       	brpl	.+36     	; 0x21c0 <__divdi3_moddi3+0x42>
    219c:	f0 e8       	ldi	r31, 0x80	; 128
    219e:	0f 26       	eor	r0, r31
    21a0:	ff ef       	ldi	r31, 0xFF	; 255
    21a2:	e0 94       	com	r14
    21a4:	f0 94       	com	r15
    21a6:	00 95       	com	r16
    21a8:	10 95       	com	r17
    21aa:	b0 94       	com	r11
    21ac:	c0 94       	com	r12
    21ae:	d0 94       	com	r13
    21b0:	a1 94       	neg	r10
    21b2:	bf 0a       	sbc	r11, r31
    21b4:	cf 0a       	sbc	r12, r31
    21b6:	df 0a       	sbc	r13, r31
    21b8:	ef 0a       	sbc	r14, r31
    21ba:	ff 0a       	sbc	r15, r31
    21bc:	0f 0b       	sbc	r16, r31
    21be:	1f 0b       	sbc	r17, r31
    21c0:	13 d0       	rcall	.+38     	; 0x21e8 <__udivmod64>
    21c2:	07 fc       	sbrc	r0, 7
    21c4:	62 d0       	rcall	.+196    	; 0x228a <__negdi2>
    21c6:	cd b7       	in	r28, 0x3d	; 61
    21c8:	de b7       	in	r29, 0x3e	; 62
    21ca:	ec e0       	ldi	r30, 0x0C	; 12
    21cc:	90 c0       	rjmp	.+288    	; 0x22ee <__epilogue_restores__+0xc>

000021ce <__umoddi3>:
    21ce:	68 94       	set
    21d0:	01 c0       	rjmp	.+2      	; 0x21d4 <__udivdi3_umoddi3>

000021d2 <__udivdi3>:
    21d2:	e8 94       	clt

000021d4 <__udivdi3_umoddi3>:
    21d4:	8f 92       	push	r8
    21d6:	9f 92       	push	r9
    21d8:	cf 93       	push	r28
    21da:	df 93       	push	r29
    21dc:	05 d0       	rcall	.+10     	; 0x21e8 <__udivmod64>
    21de:	df 91       	pop	r29
    21e0:	cf 91       	pop	r28
    21e2:	9f 90       	pop	r9
    21e4:	8f 90       	pop	r8
    21e6:	08 95       	ret

000021e8 <__udivmod64>:
    21e8:	88 24       	eor	r8, r8
    21ea:	99 24       	eor	r9, r9
    21ec:	f4 01       	movw	r30, r8
    21ee:	e4 01       	movw	r28, r8
    21f0:	b0 e4       	ldi	r27, 0x40	; 64
    21f2:	9f 93       	push	r25
    21f4:	aa 27       	eor	r26, r26
    21f6:	9a 15       	cp	r25, r10
    21f8:	8b 04       	cpc	r8, r11
    21fa:	9c 04       	cpc	r9, r12
    21fc:	ed 05       	cpc	r30, r13
    21fe:	fe 05       	cpc	r31, r14
    2200:	cf 05       	cpc	r28, r15
    2202:	d0 07       	cpc	r29, r16
    2204:	a1 07       	cpc	r26, r17
    2206:	98 f4       	brcc	.+38     	; 0x222e <__udivmod64+0x46>
    2208:	ad 2f       	mov	r26, r29
    220a:	dc 2f       	mov	r29, r28
    220c:	cf 2f       	mov	r28, r31
    220e:	fe 2f       	mov	r31, r30
    2210:	e9 2d       	mov	r30, r9
    2212:	98 2c       	mov	r9, r8
    2214:	89 2e       	mov	r8, r25
    2216:	98 2f       	mov	r25, r24
    2218:	87 2f       	mov	r24, r23
    221a:	76 2f       	mov	r23, r22
    221c:	65 2f       	mov	r22, r21
    221e:	54 2f       	mov	r21, r20
    2220:	43 2f       	mov	r20, r19
    2222:	32 2f       	mov	r19, r18
    2224:	22 27       	eor	r18, r18
    2226:	b8 50       	subi	r27, 0x08	; 8
    2228:	31 f7       	brne	.-52     	; 0x21f6 <__udivmod64+0xe>
    222a:	bf 91       	pop	r27
    222c:	27 c0       	rjmp	.+78     	; 0x227c <__udivmod64+0x94>
    222e:	1b 2e       	mov	r1, r27
    2230:	bf 91       	pop	r27
    2232:	bb 27       	eor	r27, r27
    2234:	22 0f       	add	r18, r18
    2236:	33 1f       	adc	r19, r19
    2238:	44 1f       	adc	r20, r20
    223a:	55 1f       	adc	r21, r21
    223c:	66 1f       	adc	r22, r22
    223e:	77 1f       	adc	r23, r23
    2240:	88 1f       	adc	r24, r24
    2242:	99 1f       	adc	r25, r25
    2244:	88 1c       	adc	r8, r8
    2246:	99 1c       	adc	r9, r9
    2248:	ee 1f       	adc	r30, r30
    224a:	ff 1f       	adc	r31, r31
    224c:	cc 1f       	adc	r28, r28
    224e:	dd 1f       	adc	r29, r29
    2250:	aa 1f       	adc	r26, r26
    2252:	bb 1f       	adc	r27, r27
    2254:	8a 14       	cp	r8, r10
    2256:	9b 04       	cpc	r9, r11
    2258:	ec 05       	cpc	r30, r12
    225a:	fd 05       	cpc	r31, r13
    225c:	ce 05       	cpc	r28, r14
    225e:	df 05       	cpc	r29, r15
    2260:	a0 07       	cpc	r26, r16
    2262:	b1 07       	cpc	r27, r17
    2264:	48 f0       	brcs	.+18     	; 0x2278 <__udivmod64+0x90>
    2266:	8a 18       	sub	r8, r10
    2268:	9b 08       	sbc	r9, r11
    226a:	ec 09       	sbc	r30, r12
    226c:	fd 09       	sbc	r31, r13
    226e:	ce 09       	sbc	r28, r14
    2270:	df 09       	sbc	r29, r15
    2272:	a0 0b       	sbc	r26, r16
    2274:	b1 0b       	sbc	r27, r17
    2276:	21 60       	ori	r18, 0x01	; 1
    2278:	1a 94       	dec	r1
    227a:	e1 f6       	brne	.-72     	; 0x2234 <__udivmod64+0x4c>
    227c:	2e f4       	brtc	.+10     	; 0x2288 <__udivmod64+0xa0>
    227e:	94 01       	movw	r18, r8
    2280:	af 01       	movw	r20, r30
    2282:	be 01       	movw	r22, r28
    2284:	cd 01       	movw	r24, r26
    2286:	00 0c       	add	r0, r0
    2288:	08 95       	ret

0000228a <__negdi2>:
    228a:	60 95       	com	r22
    228c:	70 95       	com	r23
    228e:	80 95       	com	r24
    2290:	90 95       	com	r25
    2292:	30 95       	com	r19
    2294:	40 95       	com	r20
    2296:	50 95       	com	r21
    2298:	21 95       	neg	r18
    229a:	3f 4f       	sbci	r19, 0xFF	; 255
    229c:	4f 4f       	sbci	r20, 0xFF	; 255
    229e:	5f 4f       	sbci	r21, 0xFF	; 255
    22a0:	6f 4f       	sbci	r22, 0xFF	; 255
    22a2:	7f 4f       	sbci	r23, 0xFF	; 255
    22a4:	8f 4f       	sbci	r24, 0xFF	; 255
    22a6:	9f 4f       	sbci	r25, 0xFF	; 255
    22a8:	08 95       	ret

000022aa <__prologue_saves__>:
    22aa:	2f 92       	push	r2
    22ac:	3f 92       	push	r3
    22ae:	4f 92       	push	r4
    22b0:	5f 92       	push	r5
    22b2:	6f 92       	push	r6
    22b4:	7f 92       	push	r7
    22b6:	8f 92       	push	r8
    22b8:	9f 92       	push	r9
    22ba:	af 92       	push	r10
    22bc:	bf 92       	push	r11
    22be:	cf 92       	push	r12
    22c0:	df 92       	push	r13
    22c2:	ef 92       	push	r14
    22c4:	ff 92       	push	r15
    22c6:	0f 93       	push	r16
    22c8:	1f 93       	push	r17
    22ca:	cf 93       	push	r28
    22cc:	df 93       	push	r29
    22ce:	cd b7       	in	r28, 0x3d	; 61
    22d0:	de b7       	in	r29, 0x3e	; 62
    22d2:	ca 1b       	sub	r28, r26
    22d4:	db 0b       	sbc	r29, r27
    22d6:	0f b6       	in	r0, 0x3f	; 63
    22d8:	f8 94       	cli
    22da:	de bf       	out	0x3e, r29	; 62
    22dc:	0f be       	out	0x3f, r0	; 63
    22de:	cd bf       	out	0x3d, r28	; 61
    22e0:	09 94       	ijmp

000022e2 <__epilogue_restores__>:
    22e2:	2a 88       	ldd	r2, Y+18	; 0x12
    22e4:	39 88       	ldd	r3, Y+17	; 0x11
    22e6:	48 88       	ldd	r4, Y+16	; 0x10
    22e8:	5f 84       	ldd	r5, Y+15	; 0x0f
    22ea:	6e 84       	ldd	r6, Y+14	; 0x0e
    22ec:	7d 84       	ldd	r7, Y+13	; 0x0d
    22ee:	8c 84       	ldd	r8, Y+12	; 0x0c
    22f0:	9b 84       	ldd	r9, Y+11	; 0x0b
    22f2:	aa 84       	ldd	r10, Y+10	; 0x0a
    22f4:	b9 84       	ldd	r11, Y+9	; 0x09
    22f6:	c8 84       	ldd	r12, Y+8	; 0x08
    22f8:	df 80       	ldd	r13, Y+7	; 0x07
    22fa:	ee 80       	ldd	r14, Y+6	; 0x06
    22fc:	fd 80       	ldd	r15, Y+5	; 0x05
    22fe:	0c 81       	ldd	r16, Y+4	; 0x04
    2300:	1b 81       	ldd	r17, Y+3	; 0x03
    2302:	aa 81       	ldd	r26, Y+2	; 0x02
    2304:	b9 81       	ldd	r27, Y+1	; 0x01
    2306:	ce 0f       	add	r28, r30
    2308:	d1 1d       	adc	r29, r1
    230a:	0f b6       	in	r0, 0x3f	; 63
    230c:	f8 94       	cli
    230e:	de bf       	out	0x3e, r29	; 62
    2310:	0f be       	out	0x3f, r0	; 63
    2312:	cd bf       	out	0x3d, r28	; 61
    2314:	ed 01       	movw	r28, r26
    2316:	08 95       	ret

00002318 <__adddi3_s8>:
    2318:	00 24       	eor	r0, r0
    231a:	a7 fd       	sbrc	r26, 7
    231c:	00 94       	com	r0
    231e:	2a 0f       	add	r18, r26
    2320:	30 1d       	adc	r19, r0
    2322:	40 1d       	adc	r20, r0
    2324:	50 1d       	adc	r21, r0
    2326:	60 1d       	adc	r22, r0
    2328:	70 1d       	adc	r23, r0
    232a:	80 1d       	adc	r24, r0
    232c:	90 1d       	adc	r25, r0
    232e:	08 95       	ret

00002330 <__ftoa_engine>:
    2330:	28 30       	cpi	r18, 0x08	; 8
    2332:	08 f0       	brcs	.+2      	; 0x2336 <__ftoa_engine+0x6>
    2334:	27 e0       	ldi	r18, 0x07	; 7
    2336:	33 27       	eor	r19, r19
    2338:	da 01       	movw	r26, r20
    233a:	99 0f       	add	r25, r25
    233c:	31 1d       	adc	r19, r1
    233e:	87 fd       	sbrc	r24, 7
    2340:	91 60       	ori	r25, 0x01	; 1
    2342:	00 96       	adiw	r24, 0x00	; 0
    2344:	61 05       	cpc	r22, r1
    2346:	71 05       	cpc	r23, r1
    2348:	39 f4       	brne	.+14     	; 0x2358 <__ftoa_engine+0x28>
    234a:	32 60       	ori	r19, 0x02	; 2
    234c:	2e 5f       	subi	r18, 0xFE	; 254
    234e:	3d 93       	st	X+, r19
    2350:	30 e3       	ldi	r19, 0x30	; 48
    2352:	2a 95       	dec	r18
    2354:	e1 f7       	brne	.-8      	; 0x234e <__ftoa_engine+0x1e>
    2356:	08 95       	ret
    2358:	9f 3f       	cpi	r25, 0xFF	; 255
    235a:	30 f0       	brcs	.+12     	; 0x2368 <__ftoa_engine+0x38>
    235c:	80 38       	cpi	r24, 0x80	; 128
    235e:	71 05       	cpc	r23, r1
    2360:	61 05       	cpc	r22, r1
    2362:	09 f0       	breq	.+2      	; 0x2366 <__ftoa_engine+0x36>
    2364:	3c 5f       	subi	r19, 0xFC	; 252
    2366:	3c 5f       	subi	r19, 0xFC	; 252
    2368:	3d 93       	st	X+, r19
    236a:	91 30       	cpi	r25, 0x01	; 1
    236c:	08 f0       	brcs	.+2      	; 0x2370 <__ftoa_engine+0x40>
    236e:	80 68       	ori	r24, 0x80	; 128
    2370:	91 1d       	adc	r25, r1
    2372:	df 93       	push	r29
    2374:	cf 93       	push	r28
    2376:	1f 93       	push	r17
    2378:	0f 93       	push	r16
    237a:	ff 92       	push	r15
    237c:	ef 92       	push	r14
    237e:	19 2f       	mov	r17, r25
    2380:	98 7f       	andi	r25, 0xF8	; 248
    2382:	96 95       	lsr	r25
    2384:	e9 2f       	mov	r30, r25
    2386:	96 95       	lsr	r25
    2388:	96 95       	lsr	r25
    238a:	e9 0f       	add	r30, r25
    238c:	ff 27       	eor	r31, r31
    238e:	e6 56       	subi	r30, 0x66	; 102
    2390:	fe 4f       	sbci	r31, 0xFE	; 254
    2392:	99 27       	eor	r25, r25
    2394:	33 27       	eor	r19, r19
    2396:	ee 24       	eor	r14, r14
    2398:	ff 24       	eor	r15, r15
    239a:	a7 01       	movw	r20, r14
    239c:	e7 01       	movw	r28, r14
    239e:	05 90       	lpm	r0, Z+
    23a0:	08 94       	sec
    23a2:	07 94       	ror	r0
    23a4:	28 f4       	brcc	.+10     	; 0x23b0 <__ftoa_engine+0x80>
    23a6:	36 0f       	add	r19, r22
    23a8:	e7 1e       	adc	r14, r23
    23aa:	f8 1e       	adc	r15, r24
    23ac:	49 1f       	adc	r20, r25
    23ae:	51 1d       	adc	r21, r1
    23b0:	66 0f       	add	r22, r22
    23b2:	77 1f       	adc	r23, r23
    23b4:	88 1f       	adc	r24, r24
    23b6:	99 1f       	adc	r25, r25
    23b8:	06 94       	lsr	r0
    23ba:	a1 f7       	brne	.-24     	; 0x23a4 <__ftoa_engine+0x74>
    23bc:	05 90       	lpm	r0, Z+
    23be:	07 94       	ror	r0
    23c0:	28 f4       	brcc	.+10     	; 0x23cc <__ftoa_engine+0x9c>
    23c2:	e7 0e       	add	r14, r23
    23c4:	f8 1e       	adc	r15, r24
    23c6:	49 1f       	adc	r20, r25
    23c8:	56 1f       	adc	r21, r22
    23ca:	c1 1d       	adc	r28, r1
    23cc:	77 0f       	add	r23, r23
    23ce:	88 1f       	adc	r24, r24
    23d0:	99 1f       	adc	r25, r25
    23d2:	66 1f       	adc	r22, r22
    23d4:	06 94       	lsr	r0
    23d6:	a1 f7       	brne	.-24     	; 0x23c0 <__ftoa_engine+0x90>
    23d8:	05 90       	lpm	r0, Z+
    23da:	07 94       	ror	r0
    23dc:	28 f4       	brcc	.+10     	; 0x23e8 <__ftoa_engine+0xb8>
    23de:	f8 0e       	add	r15, r24
    23e0:	49 1f       	adc	r20, r25
    23e2:	56 1f       	adc	r21, r22
    23e4:	c7 1f       	adc	r28, r23
    23e6:	d1 1d       	adc	r29, r1
    23e8:	88 0f       	add	r24, r24
    23ea:	99 1f       	adc	r25, r25
    23ec:	66 1f       	adc	r22, r22
    23ee:	77 1f       	adc	r23, r23
    23f0:	06 94       	lsr	r0
    23f2:	a1 f7       	brne	.-24     	; 0x23dc <__ftoa_engine+0xac>
    23f4:	05 90       	lpm	r0, Z+
    23f6:	07 94       	ror	r0
    23f8:	20 f4       	brcc	.+8      	; 0x2402 <__ftoa_engine+0xd2>
    23fa:	49 0f       	add	r20, r25
    23fc:	56 1f       	adc	r21, r22
    23fe:	c7 1f       	adc	r28, r23
    2400:	d8 1f       	adc	r29, r24
    2402:	99 0f       	add	r25, r25
    2404:	66 1f       	adc	r22, r22
    2406:	77 1f       	adc	r23, r23
    2408:	88 1f       	adc	r24, r24
    240a:	06 94       	lsr	r0
    240c:	a9 f7       	brne	.-22     	; 0x23f8 <__ftoa_engine+0xc8>
    240e:	84 91       	lpm	r24, Z
    2410:	10 95       	com	r17
    2412:	17 70       	andi	r17, 0x07	; 7
    2414:	41 f0       	breq	.+16     	; 0x2426 <__ftoa_engine+0xf6>
    2416:	d6 95       	lsr	r29
    2418:	c7 95       	ror	r28
    241a:	57 95       	ror	r21
    241c:	47 95       	ror	r20
    241e:	f7 94       	ror	r15
    2420:	e7 94       	ror	r14
    2422:	1a 95       	dec	r17
    2424:	c1 f7       	brne	.-16     	; 0x2416 <__ftoa_engine+0xe6>
    2426:	e0 e4       	ldi	r30, 0x40	; 64
    2428:	f1 e0       	ldi	r31, 0x01	; 1
    242a:	68 94       	set
    242c:	15 90       	lpm	r1, Z+
    242e:	15 91       	lpm	r17, Z+
    2430:	35 91       	lpm	r19, Z+
    2432:	65 91       	lpm	r22, Z+
    2434:	95 91       	lpm	r25, Z+
    2436:	05 90       	lpm	r0, Z+
    2438:	7f e2       	ldi	r23, 0x2F	; 47
    243a:	73 95       	inc	r23
    243c:	e1 18       	sub	r14, r1
    243e:	f1 0a       	sbc	r15, r17
    2440:	43 0b       	sbc	r20, r19
    2442:	56 0b       	sbc	r21, r22
    2444:	c9 0b       	sbc	r28, r25
    2446:	d0 09       	sbc	r29, r0
    2448:	c0 f7       	brcc	.-16     	; 0x243a <__ftoa_engine+0x10a>
    244a:	e1 0c       	add	r14, r1
    244c:	f1 1e       	adc	r15, r17
    244e:	43 1f       	adc	r20, r19
    2450:	56 1f       	adc	r21, r22
    2452:	c9 1f       	adc	r28, r25
    2454:	d0 1d       	adc	r29, r0
    2456:	7e f4       	brtc	.+30     	; 0x2476 <__ftoa_engine+0x146>
    2458:	70 33       	cpi	r23, 0x30	; 48
    245a:	11 f4       	brne	.+4      	; 0x2460 <__ftoa_engine+0x130>
    245c:	8a 95       	dec	r24
    245e:	e6 cf       	rjmp	.-52     	; 0x242c <__ftoa_engine+0xfc>
    2460:	e8 94       	clt
    2462:	01 50       	subi	r16, 0x01	; 1
    2464:	30 f0       	brcs	.+12     	; 0x2472 <__ftoa_engine+0x142>
    2466:	08 0f       	add	r16, r24
    2468:	0a f4       	brpl	.+2      	; 0x246c <__ftoa_engine+0x13c>
    246a:	00 27       	eor	r16, r16
    246c:	02 17       	cp	r16, r18
    246e:	08 f4       	brcc	.+2      	; 0x2472 <__ftoa_engine+0x142>
    2470:	20 2f       	mov	r18, r16
    2472:	23 95       	inc	r18
    2474:	02 2f       	mov	r16, r18
    2476:	7a 33       	cpi	r23, 0x3A	; 58
    2478:	28 f0       	brcs	.+10     	; 0x2484 <__ftoa_engine+0x154>
    247a:	79 e3       	ldi	r23, 0x39	; 57
    247c:	7d 93       	st	X+, r23
    247e:	2a 95       	dec	r18
    2480:	e9 f7       	brne	.-6      	; 0x247c <__ftoa_engine+0x14c>
    2482:	10 c0       	rjmp	.+32     	; 0x24a4 <__ftoa_engine+0x174>
    2484:	7d 93       	st	X+, r23
    2486:	2a 95       	dec	r18
    2488:	89 f6       	brne	.-94     	; 0x242c <__ftoa_engine+0xfc>
    248a:	06 94       	lsr	r0
    248c:	97 95       	ror	r25
    248e:	67 95       	ror	r22
    2490:	37 95       	ror	r19
    2492:	17 95       	ror	r17
    2494:	17 94       	ror	r1
    2496:	e1 18       	sub	r14, r1
    2498:	f1 0a       	sbc	r15, r17
    249a:	43 0b       	sbc	r20, r19
    249c:	56 0b       	sbc	r21, r22
    249e:	c9 0b       	sbc	r28, r25
    24a0:	d0 09       	sbc	r29, r0
    24a2:	98 f0       	brcs	.+38     	; 0x24ca <__ftoa_engine+0x19a>
    24a4:	23 95       	inc	r18
    24a6:	7e 91       	ld	r23, -X
    24a8:	73 95       	inc	r23
    24aa:	7a 33       	cpi	r23, 0x3A	; 58
    24ac:	08 f0       	brcs	.+2      	; 0x24b0 <__ftoa_engine+0x180>
    24ae:	70 e3       	ldi	r23, 0x30	; 48
    24b0:	7c 93       	st	X, r23
    24b2:	20 13       	cpse	r18, r16
    24b4:	b8 f7       	brcc	.-18     	; 0x24a4 <__ftoa_engine+0x174>
    24b6:	7e 91       	ld	r23, -X
    24b8:	70 61       	ori	r23, 0x10	; 16
    24ba:	7d 93       	st	X+, r23
    24bc:	30 f0       	brcs	.+12     	; 0x24ca <__ftoa_engine+0x19a>
    24be:	83 95       	inc	r24
    24c0:	71 e3       	ldi	r23, 0x31	; 49
    24c2:	7d 93       	st	X+, r23
    24c4:	70 e3       	ldi	r23, 0x30	; 48
    24c6:	2a 95       	dec	r18
    24c8:	e1 f7       	brne	.-8      	; 0x24c2 <__ftoa_engine+0x192>
    24ca:	11 24       	eor	r1, r1
    24cc:	ef 90       	pop	r14
    24ce:	ff 90       	pop	r15
    24d0:	0f 91       	pop	r16
    24d2:	1f 91       	pop	r17
    24d4:	cf 91       	pop	r28
    24d6:	df 91       	pop	r29
    24d8:	99 27       	eor	r25, r25
    24da:	87 fd       	sbrc	r24, 7
    24dc:	90 95       	com	r25
    24de:	08 95       	ret

000024e0 <strnlen_P>:
    24e0:	fc 01       	movw	r30, r24
    24e2:	05 90       	lpm	r0, Z+
    24e4:	61 50       	subi	r22, 0x01	; 1
    24e6:	70 40       	sbci	r23, 0x00	; 0
    24e8:	01 10       	cpse	r0, r1
    24ea:	d8 f7       	brcc	.-10     	; 0x24e2 <strnlen_P+0x2>
    24ec:	80 95       	com	r24
    24ee:	90 95       	com	r25
    24f0:	8e 0f       	add	r24, r30
    24f2:	9f 1f       	adc	r25, r31
    24f4:	08 95       	ret

000024f6 <strnlen>:
    24f6:	fc 01       	movw	r30, r24
    24f8:	61 50       	subi	r22, 0x01	; 1
    24fa:	70 40       	sbci	r23, 0x00	; 0
    24fc:	01 90       	ld	r0, Z+
    24fe:	01 10       	cpse	r0, r1
    2500:	d8 f7       	brcc	.-10     	; 0x24f8 <strnlen+0x2>
    2502:	80 95       	com	r24
    2504:	90 95       	com	r25
    2506:	8e 0f       	add	r24, r30
    2508:	9f 1f       	adc	r25, r31
    250a:	08 95       	ret

0000250c <fputc>:
    250c:	0f 93       	push	r16
    250e:	1f 93       	push	r17
    2510:	cf 93       	push	r28
    2512:	df 93       	push	r29
    2514:	18 2f       	mov	r17, r24
    2516:	09 2f       	mov	r16, r25
    2518:	eb 01       	movw	r28, r22
    251a:	8b 81       	ldd	r24, Y+3	; 0x03
    251c:	81 fd       	sbrc	r24, 1
    251e:	03 c0       	rjmp	.+6      	; 0x2526 <fputc+0x1a>
    2520:	8f ef       	ldi	r24, 0xFF	; 255
    2522:	9f ef       	ldi	r25, 0xFF	; 255
    2524:	20 c0       	rjmp	.+64     	; 0x2566 <fputc+0x5a>
    2526:	82 ff       	sbrs	r24, 2
    2528:	10 c0       	rjmp	.+32     	; 0x254a <fputc+0x3e>
    252a:	4e 81       	ldd	r20, Y+6	; 0x06
    252c:	5f 81       	ldd	r21, Y+7	; 0x07
    252e:	2c 81       	ldd	r18, Y+4	; 0x04
    2530:	3d 81       	ldd	r19, Y+5	; 0x05
    2532:	42 17       	cp	r20, r18
    2534:	53 07       	cpc	r21, r19
    2536:	7c f4       	brge	.+30     	; 0x2556 <fputc+0x4a>
    2538:	e8 81       	ld	r30, Y
    253a:	f9 81       	ldd	r31, Y+1	; 0x01
    253c:	9f 01       	movw	r18, r30
    253e:	2f 5f       	subi	r18, 0xFF	; 255
    2540:	3f 4f       	sbci	r19, 0xFF	; 255
    2542:	39 83       	std	Y+1, r19	; 0x01
    2544:	28 83       	st	Y, r18
    2546:	10 83       	st	Z, r17
    2548:	06 c0       	rjmp	.+12     	; 0x2556 <fputc+0x4a>
    254a:	e8 85       	ldd	r30, Y+8	; 0x08
    254c:	f9 85       	ldd	r31, Y+9	; 0x09
    254e:	81 2f       	mov	r24, r17
    2550:	09 95       	icall
    2552:	89 2b       	or	r24, r25
    2554:	29 f7       	brne	.-54     	; 0x2520 <fputc+0x14>
    2556:	2e 81       	ldd	r18, Y+6	; 0x06
    2558:	3f 81       	ldd	r19, Y+7	; 0x07
    255a:	2f 5f       	subi	r18, 0xFF	; 255
    255c:	3f 4f       	sbci	r19, 0xFF	; 255
    255e:	3f 83       	std	Y+7, r19	; 0x07
    2560:	2e 83       	std	Y+6, r18	; 0x06
    2562:	81 2f       	mov	r24, r17
    2564:	90 2f       	mov	r25, r16
    2566:	df 91       	pop	r29
    2568:	cf 91       	pop	r28
    256a:	1f 91       	pop	r17
    256c:	0f 91       	pop	r16
    256e:	08 95       	ret

00002570 <sprintf>:
    2570:	ae e0       	ldi	r26, 0x0E	; 14
    2572:	b0 e0       	ldi	r27, 0x00	; 0
    2574:	ed eb       	ldi	r30, 0xBD	; 189
    2576:	f2 e1       	ldi	r31, 0x12	; 18
    2578:	a6 ce       	rjmp	.-692    	; 0x22c6 <__prologue_saves__+0x1c>
    257a:	0d 89       	ldd	r16, Y+21	; 0x15
    257c:	1e 89       	ldd	r17, Y+22	; 0x16
    257e:	86 e0       	ldi	r24, 0x06	; 6
    2580:	8c 83       	std	Y+4, r24	; 0x04
    2582:	1a 83       	std	Y+2, r17	; 0x02
    2584:	09 83       	std	Y+1, r16	; 0x01
    2586:	8f ef       	ldi	r24, 0xFF	; 255
    2588:	9f e7       	ldi	r25, 0x7F	; 127
    258a:	9e 83       	std	Y+6, r25	; 0x06
    258c:	8d 83       	std	Y+5, r24	; 0x05
    258e:	ae 01       	movw	r20, r28
    2590:	47 5e       	subi	r20, 0xE7	; 231
    2592:	5f 4f       	sbci	r21, 0xFF	; 255
    2594:	6f 89       	ldd	r22, Y+23	; 0x17
    2596:	78 8d       	ldd	r23, Y+24	; 0x18
    2598:	ce 01       	movw	r24, r28
    259a:	01 96       	adiw	r24, 0x01	; 1
    259c:	91 da       	rcall	.-2782   	; 0x1ac0 <vfprintf>
    259e:	ef 81       	ldd	r30, Y+7	; 0x07
    25a0:	f8 85       	ldd	r31, Y+8	; 0x08
    25a2:	e0 0f       	add	r30, r16
    25a4:	f1 1f       	adc	r31, r17
    25a6:	10 82       	st	Z, r1
    25a8:	2e 96       	adiw	r28, 0x0e	; 14
    25aa:	e4 e0       	ldi	r30, 0x04	; 4
    25ac:	a8 ce       	rjmp	.-688    	; 0x22fe <__epilogue_restores__+0x1c>

000025ae <__ultoa_invert>:
    25ae:	fa 01       	movw	r30, r20
    25b0:	aa 27       	eor	r26, r26
    25b2:	28 30       	cpi	r18, 0x08	; 8
    25b4:	51 f1       	breq	.+84     	; 0x260a <__ultoa_invert+0x5c>
    25b6:	20 31       	cpi	r18, 0x10	; 16
    25b8:	81 f1       	breq	.+96     	; 0x261a <__ultoa_invert+0x6c>
    25ba:	e8 94       	clt
    25bc:	6f 93       	push	r22
    25be:	6e 7f       	andi	r22, 0xFE	; 254
    25c0:	6e 5f       	subi	r22, 0xFE	; 254
    25c2:	7f 4f       	sbci	r23, 0xFF	; 255
    25c4:	8f 4f       	sbci	r24, 0xFF	; 255
    25c6:	9f 4f       	sbci	r25, 0xFF	; 255
    25c8:	af 4f       	sbci	r26, 0xFF	; 255
    25ca:	b1 e0       	ldi	r27, 0x01	; 1
    25cc:	3e d0       	rcall	.+124    	; 0x264a <__ultoa_invert+0x9c>
    25ce:	b4 e0       	ldi	r27, 0x04	; 4
    25d0:	3c d0       	rcall	.+120    	; 0x264a <__ultoa_invert+0x9c>
    25d2:	67 0f       	add	r22, r23
    25d4:	78 1f       	adc	r23, r24
    25d6:	89 1f       	adc	r24, r25
    25d8:	9a 1f       	adc	r25, r26
    25da:	a1 1d       	adc	r26, r1
    25dc:	68 0f       	add	r22, r24
    25de:	79 1f       	adc	r23, r25
    25e0:	8a 1f       	adc	r24, r26
    25e2:	91 1d       	adc	r25, r1
    25e4:	a1 1d       	adc	r26, r1
    25e6:	6a 0f       	add	r22, r26
    25e8:	71 1d       	adc	r23, r1
    25ea:	81 1d       	adc	r24, r1
    25ec:	91 1d       	adc	r25, r1
    25ee:	a1 1d       	adc	r26, r1
    25f0:	20 d0       	rcall	.+64     	; 0x2632 <__ultoa_invert+0x84>
    25f2:	09 f4       	brne	.+2      	; 0x25f6 <__ultoa_invert+0x48>
    25f4:	68 94       	set
    25f6:	3f 91       	pop	r19
    25f8:	2a e0       	ldi	r18, 0x0A	; 10
    25fa:	26 9f       	mul	r18, r22
    25fc:	11 24       	eor	r1, r1
    25fe:	30 19       	sub	r19, r0
    2600:	30 5d       	subi	r19, 0xD0	; 208
    2602:	31 93       	st	Z+, r19
    2604:	de f6       	brtc	.-74     	; 0x25bc <__ultoa_invert+0xe>
    2606:	cf 01       	movw	r24, r30
    2608:	08 95       	ret
    260a:	46 2f       	mov	r20, r22
    260c:	47 70       	andi	r20, 0x07	; 7
    260e:	40 5d       	subi	r20, 0xD0	; 208
    2610:	41 93       	st	Z+, r20
    2612:	b3 e0       	ldi	r27, 0x03	; 3
    2614:	0f d0       	rcall	.+30     	; 0x2634 <__ultoa_invert+0x86>
    2616:	c9 f7       	brne	.-14     	; 0x260a <__ultoa_invert+0x5c>
    2618:	f6 cf       	rjmp	.-20     	; 0x2606 <__ultoa_invert+0x58>
    261a:	46 2f       	mov	r20, r22
    261c:	4f 70       	andi	r20, 0x0F	; 15
    261e:	40 5d       	subi	r20, 0xD0	; 208
    2620:	4a 33       	cpi	r20, 0x3A	; 58
    2622:	18 f0       	brcs	.+6      	; 0x262a <__ultoa_invert+0x7c>
    2624:	49 5d       	subi	r20, 0xD9	; 217
    2626:	31 fd       	sbrc	r19, 1
    2628:	40 52       	subi	r20, 0x20	; 32
    262a:	41 93       	st	Z+, r20
    262c:	02 d0       	rcall	.+4      	; 0x2632 <__ultoa_invert+0x84>
    262e:	a9 f7       	brne	.-22     	; 0x261a <__ultoa_invert+0x6c>
    2630:	ea cf       	rjmp	.-44     	; 0x2606 <__ultoa_invert+0x58>
    2632:	b4 e0       	ldi	r27, 0x04	; 4
    2634:	a6 95       	lsr	r26
    2636:	97 95       	ror	r25
    2638:	87 95       	ror	r24
    263a:	77 95       	ror	r23
    263c:	67 95       	ror	r22
    263e:	ba 95       	dec	r27
    2640:	c9 f7       	brne	.-14     	; 0x2634 <__ultoa_invert+0x86>
    2642:	00 97       	sbiw	r24, 0x00	; 0
    2644:	61 05       	cpc	r22, r1
    2646:	71 05       	cpc	r23, r1
    2648:	08 95       	ret
    264a:	9b 01       	movw	r18, r22
    264c:	ac 01       	movw	r20, r24
    264e:	0a 2e       	mov	r0, r26
    2650:	06 94       	lsr	r0
    2652:	57 95       	ror	r21
    2654:	47 95       	ror	r20
    2656:	37 95       	ror	r19
    2658:	27 95       	ror	r18
    265a:	ba 95       	dec	r27
    265c:	c9 f7       	brne	.-14     	; 0x2650 <__ultoa_invert+0xa2>
    265e:	62 0f       	add	r22, r18
    2660:	73 1f       	adc	r23, r19
    2662:	84 1f       	adc	r24, r20
    2664:	95 1f       	adc	r25, r21
    2666:	a0 1d       	adc	r26, r0
    2668:	08 95       	ret

0000266a <_exit>:
    266a:	f8 94       	cli

0000266c <__stop_program>:
    266c:	ff cf       	rjmp	.-2      	; 0x266c <__stop_program>
